0000000000001000 A init_sec_base
0000000000001000 R init_text_begin
0000000000001000 r pe_interrupt_vector.ap_start
000000000000101f r pe_interrupt_vector.ap_start_pe
0000000000001090 r pe_interrupt_vector.ap_start_64
00000000000010ae R _kernel_Init
00000000000010ae r _kernel_Init.skip_x2apic
00000000000010bb r _kernel_Init.use_4level
00000000000010c8 r _kernel_Init.paging_done
0000000000002000 r _32_bit_PD
0000000000002000 R init_rodata_begin
0000000000002000 R init_text_end
0000000000003000 R pml4_table_init
0000000000004000 r pml4_table_pdpt_lowmem_rigon
0000000000005000 R pml5_table_init
0000000000006000 r pml5_table_pml4_low
0000000000007000 r gdt_start
0000000000007008 r gdt_code
0000000000007010 r gdt_data
0000000000007018 r gdt_longmode_code
0000000000007020 r gdt_descriptor
0000000000007020 r gdt_end
0000000000007026 r pe_interrupt_handlers
0000000000007026 r pe_interrupt_handlers.divide_by_zero
000000000000703e r pe_interrupt_handlers.debug
0000000000007056 r pe_interrupt_handlers.nmi
000000000000706e r pe_interrupt_handlers.bp
0000000000007086 r pe_interrupt_handlers.of
000000000000709e r pe_interrupt_handlers.br
00000000000070b6 r pe_interrupt_handlers.ud
00000000000070ce r pe_interrupt_handlers.nm
00000000000070e6 r pe_interrupt_handlers.df
00000000000070fe r pe_interrupt_handlers.cross
0000000000007116 r pe_interrupt_handlers.tss
000000000000712e r pe_interrupt_handlers.NP
0000000000007146 r pe_interrupt_handlers.SS
000000000000715e r pe_interrupt_handlers.GP
0000000000007176 r pe_interrupt_handlers.PF
000000000000718e r pe_interrupt_handlers.vec15
00000000000071a6 r pe_interrupt_handlers.MF
00000000000071be r pe_interrupt_handlers.AC
00000000000071d6 r pe_interrupt_handlers.MC
00000000000071ee r pe_interrupt_handlers.XM
0000000000007206 r pe_interrupt_handlers.VE
000000000000721e r pe_interrupt_handlers.CP
0000000000007236 R idt_table_pe
00000000000072e6 R idt_descriptor_pe
0000000000008000 A __HEAP_BITMAP_SIZE
0000000000008000 A __STACK_SIZE
0000000000008000 R enter_longmode_word
0000000000008000 R init_data_begin
0000000000008000 R init_rodata_end
0000000000008008 R enter_pemode_word
000000000000800c R enter_realmode_word
0000000000008010 R assigned_processor_id
0000000000008014 R enter_exception_when_init
0000000000008018 R pe_interrupt_vector
0000000000009000 R init_data_end
0000000000009000 R init_stack_begin
000000000000d000 r init_stack_end
000000000000d000 R init_stack_end
0000000000100000 A init_sec_size
0000000000200000 A __KLOG_SIZE
0000000000200000 A __PGTB_HEAP_SIZE
0000000000400000 A __HEAP_SIZE
0000000004000000 A KImgphybase
000000000402a000 A _data_lma
000000000403c000 A _rodata_lma
0000000004053000 A _stack_lma
000000000405b000 A _kspace_uppdpt_lma
000000000415b000 A _heap_bitmap_lma
0000000004200000 A _heap_lma
0000000004600000 A _klog_lma
0000000008000000 A __KImgSize
ff00000000000000 A PAGE_LEVEL_5
ffff800000000000 A Koffset
ffff800000000000 A PAGE_LEVEL_4
ffff800004000000 A KImgvbase
ffff800004000000 T text_begin
ffff800004000000 T _ZN10EFI_RT_SVSC1Ev
ffff800004000000 T _ZN10EFI_RT_SVSC2Ev
ffff80000400000c T _ZN10EFI_RT_SVS4InitEP17_EFI_SYSTEM_TABLEm
ffff800004000370 T _ZN10EFI_RT_SVS11rt_time_getEv
ffff8000040003d2 T _ZN10EFI_RT_SVS11rt_time_setER8EFI_TIME
ffff800004000442 T _ZN10EFI_RT_SVS8rt_resetE14EFI_RESET_TYPEmmPv
ffff8000040004b8 T _ZN10EFI_RT_SVS11rt_hotresetEv
ffff8000040004e0 T _ZN10EFI_RT_SVS12rt_coldresetEv
ffff800004000508 T _ZN10EFI_RT_SVS11rt_shutdownEv
ffff800004000530 T __cxa_atexit
ffff800004000547 T delay
ffff80000400056e T kernel_start
ffff800004000d25 T ap_init
ffff800004000db8 T _ZN17kcirclebufflogMgr4InitEv
ffff800004000df8 T _ZN17kcirclebufflogMgr5putskEPcm
ffff800004000f50 T _ZN17kcirclebufflogMgr5putskEPc
ffff800004000fca T _ZN17kcirclebufflogMgrD1Ev
ffff800004000fca T _ZN17kcirclebufflogMgrD2Ev
ffff800004000fd5 t _Z41__static_initialization_and_destruction_0v
ffff80000400100c t _GLOBAL__sub_I_gkcirclebufflogMgr
ffff80000400101e T __udivti3
ffff8000040012b2 T __umodti3
ffff800004001340 T _ZN6x2apic13x2apic_driver16raw_config_timerENS_15timer_lvt_entryE
ffff800004001368 T _ZN6x2apic13x2apic_driver27raw_config_timer_init_countEj
ffff80000400138e T _ZN6x2apic13x2apic_driver24raw_config_timer_dividerENS_12devide_reg_tE
ffff8000040013b6 T _ZN6x2apic13x2apic_driver23get_timer_current_countEv
ffff8000040013ce T _ZN6x2apic13x2apic_driver12raw_send_ipiENS_12x2apic_icr_tE
ffff8000040013f6 T _ZN6x2apic13x2apic_driver26broadcast_exself_fixed_ipiEPFvvE
ffff800004001438 T _ZN5xapic11apic_driver4InitEv
ffff800004001626 T _ZN5xapic11apic_driver8send_ipiENS_16xapic_icr_dest_tENS_19xapic_icr_command_tE
ffff800004001687 T div_by_zero_cpp_enter
ffff800004001692 T debug_cpp_enter
ffff80000400169d T nmi_cpp_enter
ffff8000040016a8 T breakpoint_cpp_enter
ffff8000040016b3 T overflow_cpp_enter
ffff8000040016be T invalid_opcode_cpp_enter
ffff8000040016c9 T double_fault_cpp_enter
ffff8000040016d4 T invalid_tss_cpp_enter
ffff8000040016df T general_protection_cpp_enter
ffff8000040016ea T page_fault_cpp_enter
ffff8000040016f5 T machine_check_cpp_enter
ffff800004001700 T simd_floating_point_cpp_enter
ffff80000400170b T virtualization_cpp_enter
ffff800004001716 T Control_Protection_cpp_enter
ffff800004001721 T timer_cpp_enter
ffff80000400172c T ipi_cpp_enter
ffff800004001738 T _Z24illeagale_interrupt_postt
ffff8000040017f0 T _ZN28x86_smp_processors_container17template_idt_initEv
ffff8000040019d4 T _ZN28x86_smp_processors_container11regist_coreEj
ffff800004001a84 T _ZN28x86_smp_processors_container18AP_Init_one_by_oneEv
ffff800004002326 t _ZZN19x64_local_processorC4EjENKUl11logical_idtE_clES0_
ffff8000040023dc T _ZN19x64_local_processorC1Ej
ffff8000040023dc T _ZN19x64_local_processorC2Ej
ffff800004002eb0 T _ZN19x64_local_processor44unsafe_handler_register_without_vecnum_chechEhPv
ffff800004002f98 T _ZN19x64_local_processor46unsafe_handler_unregister_without_vecnum_chechEh
ffff800004002fde W _ZN14spinlock_cpp_tC1Ev
ffff800004002fde W _ZN14spinlock_cpp_tC2Ev
ffff800004002ff0 W _ZN18illegal_idt_fillerILh0EE4fillEP11logical_idt
ffff800004003024 W _Z25illegal_interrupt_handlerILh0EEvP15interrupt_frame
ffff80000400306a W _ZN18illegal_idt_fillerILh255EE4fillEP11logical_idt
ffff8000040030ce W _ZN9Ktemplats11list_doublyIN26APICtb_analyzed_structures26processor_x64_lapic_structEE5beginEv
ffff8000040030fe W _ZN9Ktemplats11list_doublyIN26APICtb_analyzed_structures26processor_x64_lapic_structEE3endEv
ffff800004003128 W _ZNK9Ktemplats11list_doublyIN26APICtb_analyzed_structures26processor_x64_lapic_structEE8iteratorneERKS4_
ffff80000400314a W _ZN9Ktemplats11list_doublyIN26APICtb_analyzed_structures26processor_x64_lapic_structEE8iteratorppEv
ffff800004003176 W _ZN9Ktemplats11list_doublyIN26APICtb_analyzed_structures26processor_x64_lapic_structEE8iteratordeEv
ffff80000400318b W _Z25illegal_interrupt_handlerILh255EEvP15interrupt_frame
ffff8000040031d1 W _ZN18illegal_idt_fillerILh254EE4fillEP11logical_idt
ffff800004003234 W _ZN9Ktemplats11list_doublyIN26APICtb_analyzed_structures26processor_x64_lapic_structEE8iteratorC1EPNS3_4nodeE
ffff800004003234 W _ZN9Ktemplats11list_doublyIN26APICtb_analyzed_structures26processor_x64_lapic_structEE8iteratorC2EPNS3_4nodeE
ffff80000400324e W _Z25illegal_interrupt_handlerILh254EEvP15interrupt_frame
ffff800004003294 W _ZN18illegal_idt_fillerILh253EE4fillEP11logical_idt
ffff8000040032f7 W _Z25illegal_interrupt_handlerILh253EEvP15interrupt_frame
ffff80000400333d W _ZN18illegal_idt_fillerILh252EE4fillEP11logical_idt
ffff8000040033a0 W _Z25illegal_interrupt_handlerILh252EEvP15interrupt_frame
ffff8000040033e6 W _ZN18illegal_idt_fillerILh251EE4fillEP11logical_idt
ffff800004003449 W _Z25illegal_interrupt_handlerILh251EEvP15interrupt_frame
ffff80000400348f W _ZN18illegal_idt_fillerILh250EE4fillEP11logical_idt
ffff8000040034f2 W _Z25illegal_interrupt_handlerILh250EEvP15interrupt_frame
ffff800004003538 W _ZN18illegal_idt_fillerILh249EE4fillEP11logical_idt
ffff80000400359b W _Z25illegal_interrupt_handlerILh249EEvP15interrupt_frame
ffff8000040035e1 W _ZN18illegal_idt_fillerILh248EE4fillEP11logical_idt
ffff800004003644 W _Z25illegal_interrupt_handlerILh248EEvP15interrupt_frame
ffff80000400368a W _ZN18illegal_idt_fillerILh247EE4fillEP11logical_idt
ffff8000040036ed W _Z25illegal_interrupt_handlerILh247EEvP15interrupt_frame
ffff800004003733 W _ZN18illegal_idt_fillerILh246EE4fillEP11logical_idt
ffff800004003796 W _Z25illegal_interrupt_handlerILh246EEvP15interrupt_frame
ffff8000040037dc W _ZN18illegal_idt_fillerILh245EE4fillEP11logical_idt
ffff80000400383f W _Z25illegal_interrupt_handlerILh245EEvP15interrupt_frame
ffff800004003885 W _ZN18illegal_idt_fillerILh244EE4fillEP11logical_idt
ffff8000040038e8 W _Z25illegal_interrupt_handlerILh244EEvP15interrupt_frame
ffff80000400392e W _ZN18illegal_idt_fillerILh243EE4fillEP11logical_idt
ffff800004003991 W _Z25illegal_interrupt_handlerILh243EEvP15interrupt_frame
ffff8000040039d7 W _ZN18illegal_idt_fillerILh242EE4fillEP11logical_idt
ffff800004003a3a W _Z25illegal_interrupt_handlerILh242EEvP15interrupt_frame
ffff800004003a80 W _ZN18illegal_idt_fillerILh241EE4fillEP11logical_idt
ffff800004003ae3 W _Z25illegal_interrupt_handlerILh241EEvP15interrupt_frame
ffff800004003b29 W _ZN18illegal_idt_fillerILh240EE4fillEP11logical_idt
ffff800004003b8c W _Z25illegal_interrupt_handlerILh240EEvP15interrupt_frame
ffff800004003bd2 W _ZN18illegal_idt_fillerILh239EE4fillEP11logical_idt
ffff800004003c35 W _Z25illegal_interrupt_handlerILh239EEvP15interrupt_frame
ffff800004003c7b W _ZN18illegal_idt_fillerILh238EE4fillEP11logical_idt
ffff800004003cde W _Z25illegal_interrupt_handlerILh238EEvP15interrupt_frame
ffff800004003d24 W _ZN18illegal_idt_fillerILh237EE4fillEP11logical_idt
ffff800004003d87 W _Z25illegal_interrupt_handlerILh237EEvP15interrupt_frame
ffff800004003dcd W _ZN18illegal_idt_fillerILh236EE4fillEP11logical_idt
ffff800004003e30 W _Z25illegal_interrupt_handlerILh236EEvP15interrupt_frame
ffff800004003e76 W _ZN18illegal_idt_fillerILh235EE4fillEP11logical_idt
ffff800004003ed9 W _Z25illegal_interrupt_handlerILh235EEvP15interrupt_frame
ffff800004003f1f W _ZN18illegal_idt_fillerILh234EE4fillEP11logical_idt
ffff800004003f82 W _Z25illegal_interrupt_handlerILh234EEvP15interrupt_frame
ffff800004003fc8 W _ZN18illegal_idt_fillerILh233EE4fillEP11logical_idt
ffff80000400402b W _Z25illegal_interrupt_handlerILh233EEvP15interrupt_frame
ffff800004004071 W _ZN18illegal_idt_fillerILh232EE4fillEP11logical_idt
ffff8000040040d4 W _Z25illegal_interrupt_handlerILh232EEvP15interrupt_frame
ffff80000400411a W _ZN18illegal_idt_fillerILh231EE4fillEP11logical_idt
ffff80000400417d W _Z25illegal_interrupt_handlerILh231EEvP15interrupt_frame
ffff8000040041c3 W _ZN18illegal_idt_fillerILh230EE4fillEP11logical_idt
ffff800004004226 W _Z25illegal_interrupt_handlerILh230EEvP15interrupt_frame
ffff80000400426c W _ZN18illegal_idt_fillerILh229EE4fillEP11logical_idt
ffff8000040042cf W _Z25illegal_interrupt_handlerILh229EEvP15interrupt_frame
ffff800004004315 W _ZN18illegal_idt_fillerILh228EE4fillEP11logical_idt
ffff800004004378 W _Z25illegal_interrupt_handlerILh228EEvP15interrupt_frame
ffff8000040043be W _ZN18illegal_idt_fillerILh227EE4fillEP11logical_idt
ffff800004004421 W _Z25illegal_interrupt_handlerILh227EEvP15interrupt_frame
ffff800004004467 W _ZN18illegal_idt_fillerILh226EE4fillEP11logical_idt
ffff8000040044ca W _Z25illegal_interrupt_handlerILh226EEvP15interrupt_frame
ffff800004004510 W _ZN18illegal_idt_fillerILh225EE4fillEP11logical_idt
ffff800004004573 W _Z25illegal_interrupt_handlerILh225EEvP15interrupt_frame
ffff8000040045b9 W _ZN18illegal_idt_fillerILh224EE4fillEP11logical_idt
ffff80000400461c W _Z25illegal_interrupt_handlerILh224EEvP15interrupt_frame
ffff800004004662 W _ZN18illegal_idt_fillerILh223EE4fillEP11logical_idt
ffff8000040046c5 W _Z25illegal_interrupt_handlerILh223EEvP15interrupt_frame
ffff80000400470b W _ZN18illegal_idt_fillerILh222EE4fillEP11logical_idt
ffff80000400476e W _Z25illegal_interrupt_handlerILh222EEvP15interrupt_frame
ffff8000040047b4 W _ZN18illegal_idt_fillerILh221EE4fillEP11logical_idt
ffff800004004817 W _Z25illegal_interrupt_handlerILh221EEvP15interrupt_frame
ffff80000400485d W _ZN18illegal_idt_fillerILh220EE4fillEP11logical_idt
ffff8000040048c0 W _Z25illegal_interrupt_handlerILh220EEvP15interrupt_frame
ffff800004004906 W _ZN18illegal_idt_fillerILh219EE4fillEP11logical_idt
ffff800004004969 W _Z25illegal_interrupt_handlerILh219EEvP15interrupt_frame
ffff8000040049af W _ZN18illegal_idt_fillerILh218EE4fillEP11logical_idt
ffff800004004a12 W _Z25illegal_interrupt_handlerILh218EEvP15interrupt_frame
ffff800004004a58 W _ZN18illegal_idt_fillerILh217EE4fillEP11logical_idt
ffff800004004abb W _Z25illegal_interrupt_handlerILh217EEvP15interrupt_frame
ffff800004004b01 W _ZN18illegal_idt_fillerILh216EE4fillEP11logical_idt
ffff800004004b64 W _Z25illegal_interrupt_handlerILh216EEvP15interrupt_frame
ffff800004004baa W _ZN18illegal_idt_fillerILh215EE4fillEP11logical_idt
ffff800004004c0d W _Z25illegal_interrupt_handlerILh215EEvP15interrupt_frame
ffff800004004c53 W _ZN18illegal_idt_fillerILh214EE4fillEP11logical_idt
ffff800004004cb6 W _Z25illegal_interrupt_handlerILh214EEvP15interrupt_frame
ffff800004004cfc W _ZN18illegal_idt_fillerILh213EE4fillEP11logical_idt
ffff800004004d5f W _Z25illegal_interrupt_handlerILh213EEvP15interrupt_frame
ffff800004004da5 W _ZN18illegal_idt_fillerILh212EE4fillEP11logical_idt
ffff800004004e08 W _Z25illegal_interrupt_handlerILh212EEvP15interrupt_frame
ffff800004004e4e W _ZN18illegal_idt_fillerILh211EE4fillEP11logical_idt
ffff800004004eb1 W _Z25illegal_interrupt_handlerILh211EEvP15interrupt_frame
ffff800004004ef7 W _ZN18illegal_idt_fillerILh210EE4fillEP11logical_idt
ffff800004004f5a W _Z25illegal_interrupt_handlerILh210EEvP15interrupt_frame
ffff800004004fa0 W _ZN18illegal_idt_fillerILh209EE4fillEP11logical_idt
ffff800004005003 W _Z25illegal_interrupt_handlerILh209EEvP15interrupt_frame
ffff800004005049 W _ZN18illegal_idt_fillerILh208EE4fillEP11logical_idt
ffff8000040050ac W _Z25illegal_interrupt_handlerILh208EEvP15interrupt_frame
ffff8000040050f2 W _ZN18illegal_idt_fillerILh207EE4fillEP11logical_idt
ffff800004005155 W _Z25illegal_interrupt_handlerILh207EEvP15interrupt_frame
ffff80000400519b W _ZN18illegal_idt_fillerILh206EE4fillEP11logical_idt
ffff8000040051fe W _Z25illegal_interrupt_handlerILh206EEvP15interrupt_frame
ffff800004005244 W _ZN18illegal_idt_fillerILh205EE4fillEP11logical_idt
ffff8000040052a7 W _Z25illegal_interrupt_handlerILh205EEvP15interrupt_frame
ffff8000040052ed W _ZN18illegal_idt_fillerILh204EE4fillEP11logical_idt
ffff800004005350 W _Z25illegal_interrupt_handlerILh204EEvP15interrupt_frame
ffff800004005396 W _ZN18illegal_idt_fillerILh203EE4fillEP11logical_idt
ffff8000040053f9 W _Z25illegal_interrupt_handlerILh203EEvP15interrupt_frame
ffff80000400543f W _ZN18illegal_idt_fillerILh202EE4fillEP11logical_idt
ffff8000040054a2 W _Z25illegal_interrupt_handlerILh202EEvP15interrupt_frame
ffff8000040054e8 W _ZN18illegal_idt_fillerILh201EE4fillEP11logical_idt
ffff80000400554b W _Z25illegal_interrupt_handlerILh201EEvP15interrupt_frame
ffff800004005591 W _ZN18illegal_idt_fillerILh200EE4fillEP11logical_idt
ffff8000040055f4 W _Z25illegal_interrupt_handlerILh200EEvP15interrupt_frame
ffff80000400563a W _ZN18illegal_idt_fillerILh199EE4fillEP11logical_idt
ffff80000400569d W _Z25illegal_interrupt_handlerILh199EEvP15interrupt_frame
ffff8000040056e3 W _ZN18illegal_idt_fillerILh198EE4fillEP11logical_idt
ffff800004005746 W _Z25illegal_interrupt_handlerILh198EEvP15interrupt_frame
ffff80000400578c W _ZN18illegal_idt_fillerILh197EE4fillEP11logical_idt
ffff8000040057ef W _Z25illegal_interrupt_handlerILh197EEvP15interrupt_frame
ffff800004005835 W _ZN18illegal_idt_fillerILh196EE4fillEP11logical_idt
ffff800004005898 W _Z25illegal_interrupt_handlerILh196EEvP15interrupt_frame
ffff8000040058de W _ZN18illegal_idt_fillerILh195EE4fillEP11logical_idt
ffff800004005941 W _Z25illegal_interrupt_handlerILh195EEvP15interrupt_frame
ffff800004005987 W _ZN18illegal_idt_fillerILh194EE4fillEP11logical_idt
ffff8000040059ea W _Z25illegal_interrupt_handlerILh194EEvP15interrupt_frame
ffff800004005a30 W _ZN18illegal_idt_fillerILh193EE4fillEP11logical_idt
ffff800004005a93 W _Z25illegal_interrupt_handlerILh193EEvP15interrupt_frame
ffff800004005ad9 W _ZN18illegal_idt_fillerILh192EE4fillEP11logical_idt
ffff800004005b3c W _Z25illegal_interrupt_handlerILh192EEvP15interrupt_frame
ffff800004005b82 W _ZN18illegal_idt_fillerILh191EE4fillEP11logical_idt
ffff800004005be5 W _Z25illegal_interrupt_handlerILh191EEvP15interrupt_frame
ffff800004005c2b W _ZN18illegal_idt_fillerILh190EE4fillEP11logical_idt
ffff800004005c8e W _Z25illegal_interrupt_handlerILh190EEvP15interrupt_frame
ffff800004005cd4 W _ZN18illegal_idt_fillerILh189EE4fillEP11logical_idt
ffff800004005d37 W _Z25illegal_interrupt_handlerILh189EEvP15interrupt_frame
ffff800004005d7d W _ZN18illegal_idt_fillerILh188EE4fillEP11logical_idt
ffff800004005de0 W _Z25illegal_interrupt_handlerILh188EEvP15interrupt_frame
ffff800004005e26 W _ZN18illegal_idt_fillerILh187EE4fillEP11logical_idt
ffff800004005e89 W _Z25illegal_interrupt_handlerILh187EEvP15interrupt_frame
ffff800004005ecf W _ZN18illegal_idt_fillerILh186EE4fillEP11logical_idt
ffff800004005f32 W _Z25illegal_interrupt_handlerILh186EEvP15interrupt_frame
ffff800004005f78 W _ZN18illegal_idt_fillerILh185EE4fillEP11logical_idt
ffff800004005fdb W _Z25illegal_interrupt_handlerILh185EEvP15interrupt_frame
ffff800004006021 W _ZN18illegal_idt_fillerILh184EE4fillEP11logical_idt
ffff800004006084 W _Z25illegal_interrupt_handlerILh184EEvP15interrupt_frame
ffff8000040060ca W _ZN18illegal_idt_fillerILh183EE4fillEP11logical_idt
ffff80000400612d W _Z25illegal_interrupt_handlerILh183EEvP15interrupt_frame
ffff800004006173 W _ZN18illegal_idt_fillerILh182EE4fillEP11logical_idt
ffff8000040061d6 W _Z25illegal_interrupt_handlerILh182EEvP15interrupt_frame
ffff80000400621c W _ZN18illegal_idt_fillerILh181EE4fillEP11logical_idt
ffff80000400627f W _Z25illegal_interrupt_handlerILh181EEvP15interrupt_frame
ffff8000040062c5 W _ZN18illegal_idt_fillerILh180EE4fillEP11logical_idt
ffff800004006328 W _Z25illegal_interrupt_handlerILh180EEvP15interrupt_frame
ffff80000400636e W _ZN18illegal_idt_fillerILh179EE4fillEP11logical_idt
ffff8000040063d1 W _Z25illegal_interrupt_handlerILh179EEvP15interrupt_frame
ffff800004006417 W _ZN18illegal_idt_fillerILh178EE4fillEP11logical_idt
ffff80000400647a W _Z25illegal_interrupt_handlerILh178EEvP15interrupt_frame
ffff8000040064c0 W _ZN18illegal_idt_fillerILh177EE4fillEP11logical_idt
ffff800004006523 W _Z25illegal_interrupt_handlerILh177EEvP15interrupt_frame
ffff800004006569 W _ZN18illegal_idt_fillerILh176EE4fillEP11logical_idt
ffff8000040065cc W _Z25illegal_interrupt_handlerILh176EEvP15interrupt_frame
ffff800004006612 W _ZN18illegal_idt_fillerILh175EE4fillEP11logical_idt
ffff800004006675 W _Z25illegal_interrupt_handlerILh175EEvP15interrupt_frame
ffff8000040066bb W _ZN18illegal_idt_fillerILh174EE4fillEP11logical_idt
ffff80000400671e W _Z25illegal_interrupt_handlerILh174EEvP15interrupt_frame
ffff800004006764 W _ZN18illegal_idt_fillerILh173EE4fillEP11logical_idt
ffff8000040067c7 W _Z25illegal_interrupt_handlerILh173EEvP15interrupt_frame
ffff80000400680d W _ZN18illegal_idt_fillerILh172EE4fillEP11logical_idt
ffff800004006870 W _Z25illegal_interrupt_handlerILh172EEvP15interrupt_frame
ffff8000040068b6 W _ZN18illegal_idt_fillerILh171EE4fillEP11logical_idt
ffff800004006919 W _Z25illegal_interrupt_handlerILh171EEvP15interrupt_frame
ffff80000400695f W _ZN18illegal_idt_fillerILh170EE4fillEP11logical_idt
ffff8000040069c2 W _Z25illegal_interrupt_handlerILh170EEvP15interrupt_frame
ffff800004006a08 W _ZN18illegal_idt_fillerILh169EE4fillEP11logical_idt
ffff800004006a6b W _Z25illegal_interrupt_handlerILh169EEvP15interrupt_frame
ffff800004006ab1 W _ZN18illegal_idt_fillerILh168EE4fillEP11logical_idt
ffff800004006b14 W _Z25illegal_interrupt_handlerILh168EEvP15interrupt_frame
ffff800004006b5a W _ZN18illegal_idt_fillerILh167EE4fillEP11logical_idt
ffff800004006bbd W _Z25illegal_interrupt_handlerILh167EEvP15interrupt_frame
ffff800004006c03 W _ZN18illegal_idt_fillerILh166EE4fillEP11logical_idt
ffff800004006c66 W _Z25illegal_interrupt_handlerILh166EEvP15interrupt_frame
ffff800004006cac W _ZN18illegal_idt_fillerILh165EE4fillEP11logical_idt
ffff800004006d0f W _Z25illegal_interrupt_handlerILh165EEvP15interrupt_frame
ffff800004006d55 W _ZN18illegal_idt_fillerILh164EE4fillEP11logical_idt
ffff800004006db8 W _Z25illegal_interrupt_handlerILh164EEvP15interrupt_frame
ffff800004006dfe W _ZN18illegal_idt_fillerILh163EE4fillEP11logical_idt
ffff800004006e61 W _Z25illegal_interrupt_handlerILh163EEvP15interrupt_frame
ffff800004006ea7 W _ZN18illegal_idt_fillerILh162EE4fillEP11logical_idt
ffff800004006f0a W _Z25illegal_interrupt_handlerILh162EEvP15interrupt_frame
ffff800004006f50 W _ZN18illegal_idt_fillerILh161EE4fillEP11logical_idt
ffff800004006fb3 W _Z25illegal_interrupt_handlerILh161EEvP15interrupt_frame
ffff800004006ff9 W _ZN18illegal_idt_fillerILh160EE4fillEP11logical_idt
ffff80000400705c W _Z25illegal_interrupt_handlerILh160EEvP15interrupt_frame
ffff8000040070a2 W _ZN18illegal_idt_fillerILh159EE4fillEP11logical_idt
ffff800004007105 W _Z25illegal_interrupt_handlerILh159EEvP15interrupt_frame
ffff80000400714b W _ZN18illegal_idt_fillerILh158EE4fillEP11logical_idt
ffff8000040071ae W _Z25illegal_interrupt_handlerILh158EEvP15interrupt_frame
ffff8000040071f4 W _ZN18illegal_idt_fillerILh157EE4fillEP11logical_idt
ffff800004007257 W _Z25illegal_interrupt_handlerILh157EEvP15interrupt_frame
ffff80000400729d W _ZN18illegal_idt_fillerILh156EE4fillEP11logical_idt
ffff800004007300 W _Z25illegal_interrupt_handlerILh156EEvP15interrupt_frame
ffff800004007346 W _ZN18illegal_idt_fillerILh155EE4fillEP11logical_idt
ffff8000040073a9 W _Z25illegal_interrupt_handlerILh155EEvP15interrupt_frame
ffff8000040073ef W _ZN18illegal_idt_fillerILh154EE4fillEP11logical_idt
ffff800004007452 W _Z25illegal_interrupt_handlerILh154EEvP15interrupt_frame
ffff800004007498 W _ZN18illegal_idt_fillerILh153EE4fillEP11logical_idt
ffff8000040074fb W _Z25illegal_interrupt_handlerILh153EEvP15interrupt_frame
ffff800004007541 W _ZN18illegal_idt_fillerILh152EE4fillEP11logical_idt
ffff8000040075a4 W _Z25illegal_interrupt_handlerILh152EEvP15interrupt_frame
ffff8000040075ea W _ZN18illegal_idt_fillerILh151EE4fillEP11logical_idt
ffff80000400764d W _Z25illegal_interrupt_handlerILh151EEvP15interrupt_frame
ffff800004007693 W _ZN18illegal_idt_fillerILh150EE4fillEP11logical_idt
ffff8000040076f6 W _Z25illegal_interrupt_handlerILh150EEvP15interrupt_frame
ffff80000400773c W _ZN18illegal_idt_fillerILh149EE4fillEP11logical_idt
ffff80000400779f W _Z25illegal_interrupt_handlerILh149EEvP15interrupt_frame
ffff8000040077e5 W _ZN18illegal_idt_fillerILh148EE4fillEP11logical_idt
ffff800004007848 W _Z25illegal_interrupt_handlerILh148EEvP15interrupt_frame
ffff80000400788e W _ZN18illegal_idt_fillerILh147EE4fillEP11logical_idt
ffff8000040078f1 W _Z25illegal_interrupt_handlerILh147EEvP15interrupt_frame
ffff800004007937 W _ZN18illegal_idt_fillerILh146EE4fillEP11logical_idt
ffff80000400799a W _Z25illegal_interrupt_handlerILh146EEvP15interrupt_frame
ffff8000040079e0 W _ZN18illegal_idt_fillerILh145EE4fillEP11logical_idt
ffff800004007a43 W _Z25illegal_interrupt_handlerILh145EEvP15interrupt_frame
ffff800004007a89 W _ZN18illegal_idt_fillerILh144EE4fillEP11logical_idt
ffff800004007aec W _Z25illegal_interrupt_handlerILh144EEvP15interrupt_frame
ffff800004007b32 W _ZN18illegal_idt_fillerILh143EE4fillEP11logical_idt
ffff800004007b95 W _Z25illegal_interrupt_handlerILh143EEvP15interrupt_frame
ffff800004007bdb W _ZN18illegal_idt_fillerILh142EE4fillEP11logical_idt
ffff800004007c3e W _Z25illegal_interrupt_handlerILh142EEvP15interrupt_frame
ffff800004007c84 W _ZN18illegal_idt_fillerILh141EE4fillEP11logical_idt
ffff800004007ce7 W _Z25illegal_interrupt_handlerILh141EEvP15interrupt_frame
ffff800004007d2d W _ZN18illegal_idt_fillerILh140EE4fillEP11logical_idt
ffff800004007d90 W _Z25illegal_interrupt_handlerILh140EEvP15interrupt_frame
ffff800004007dd6 W _ZN18illegal_idt_fillerILh139EE4fillEP11logical_idt
ffff800004007e39 W _Z25illegal_interrupt_handlerILh139EEvP15interrupt_frame
ffff800004007e7f W _ZN18illegal_idt_fillerILh138EE4fillEP11logical_idt
ffff800004007ee2 W _Z25illegal_interrupt_handlerILh138EEvP15interrupt_frame
ffff800004007f28 W _ZN18illegal_idt_fillerILh137EE4fillEP11logical_idt
ffff800004007f8b W _Z25illegal_interrupt_handlerILh137EEvP15interrupt_frame
ffff800004007fd1 W _ZN18illegal_idt_fillerILh136EE4fillEP11logical_idt
ffff800004008034 W _Z25illegal_interrupt_handlerILh136EEvP15interrupt_frame
ffff80000400807a W _ZN18illegal_idt_fillerILh135EE4fillEP11logical_idt
ffff8000040080dd W _Z25illegal_interrupt_handlerILh135EEvP15interrupt_frame
ffff800004008123 W _ZN18illegal_idt_fillerILh134EE4fillEP11logical_idt
ffff800004008186 W _Z25illegal_interrupt_handlerILh134EEvP15interrupt_frame
ffff8000040081cc W _ZN18illegal_idt_fillerILh133EE4fillEP11logical_idt
ffff80000400822f W _Z25illegal_interrupt_handlerILh133EEvP15interrupt_frame
ffff800004008275 W _ZN18illegal_idt_fillerILh132EE4fillEP11logical_idt
ffff8000040082d8 W _Z25illegal_interrupt_handlerILh132EEvP15interrupt_frame
ffff80000400831e W _ZN18illegal_idt_fillerILh131EE4fillEP11logical_idt
ffff800004008381 W _Z25illegal_interrupt_handlerILh131EEvP15interrupt_frame
ffff8000040083c7 W _ZN18illegal_idt_fillerILh130EE4fillEP11logical_idt
ffff80000400842a W _Z25illegal_interrupt_handlerILh130EEvP15interrupt_frame
ffff800004008470 W _ZN18illegal_idt_fillerILh129EE4fillEP11logical_idt
ffff8000040084d3 W _Z25illegal_interrupt_handlerILh129EEvP15interrupt_frame
ffff800004008519 W _ZN18illegal_idt_fillerILh128EE4fillEP11logical_idt
ffff80000400857c W _Z25illegal_interrupt_handlerILh128EEvP15interrupt_frame
ffff8000040085c2 W _ZN18illegal_idt_fillerILh127EE4fillEP11logical_idt
ffff800004008625 W _Z25illegal_interrupt_handlerILh127EEvP15interrupt_frame
ffff80000400866b W _ZN18illegal_idt_fillerILh126EE4fillEP11logical_idt
ffff8000040086ce W _Z25illegal_interrupt_handlerILh126EEvP15interrupt_frame
ffff800004008714 W _ZN18illegal_idt_fillerILh125EE4fillEP11logical_idt
ffff800004008777 W _Z25illegal_interrupt_handlerILh125EEvP15interrupt_frame
ffff8000040087bd W _ZN18illegal_idt_fillerILh124EE4fillEP11logical_idt
ffff800004008820 W _Z25illegal_interrupt_handlerILh124EEvP15interrupt_frame
ffff800004008866 W _ZN18illegal_idt_fillerILh123EE4fillEP11logical_idt
ffff8000040088c9 W _Z25illegal_interrupt_handlerILh123EEvP15interrupt_frame
ffff80000400890f W _ZN18illegal_idt_fillerILh122EE4fillEP11logical_idt
ffff800004008972 W _Z25illegal_interrupt_handlerILh122EEvP15interrupt_frame
ffff8000040089b8 W _ZN18illegal_idt_fillerILh121EE4fillEP11logical_idt
ffff800004008a1b W _Z25illegal_interrupt_handlerILh121EEvP15interrupt_frame
ffff800004008a61 W _ZN18illegal_idt_fillerILh120EE4fillEP11logical_idt
ffff800004008ac4 W _Z25illegal_interrupt_handlerILh120EEvP15interrupt_frame
ffff800004008b0a W _ZN18illegal_idt_fillerILh119EE4fillEP11logical_idt
ffff800004008b6d W _Z25illegal_interrupt_handlerILh119EEvP15interrupt_frame
ffff800004008bb3 W _ZN18illegal_idt_fillerILh118EE4fillEP11logical_idt
ffff800004008c16 W _Z25illegal_interrupt_handlerILh118EEvP15interrupt_frame
ffff800004008c5c W _ZN18illegal_idt_fillerILh117EE4fillEP11logical_idt
ffff800004008cbf W _Z25illegal_interrupt_handlerILh117EEvP15interrupt_frame
ffff800004008d05 W _ZN18illegal_idt_fillerILh116EE4fillEP11logical_idt
ffff800004008d68 W _Z25illegal_interrupt_handlerILh116EEvP15interrupt_frame
ffff800004008dae W _ZN18illegal_idt_fillerILh115EE4fillEP11logical_idt
ffff800004008e11 W _Z25illegal_interrupt_handlerILh115EEvP15interrupt_frame
ffff800004008e57 W _ZN18illegal_idt_fillerILh114EE4fillEP11logical_idt
ffff800004008eba W _Z25illegal_interrupt_handlerILh114EEvP15interrupt_frame
ffff800004008f00 W _ZN18illegal_idt_fillerILh113EE4fillEP11logical_idt
ffff800004008f63 W _Z25illegal_interrupt_handlerILh113EEvP15interrupt_frame
ffff800004008fa9 W _ZN18illegal_idt_fillerILh112EE4fillEP11logical_idt
ffff80000400900c W _Z25illegal_interrupt_handlerILh112EEvP15interrupt_frame
ffff800004009052 W _ZN18illegal_idt_fillerILh111EE4fillEP11logical_idt
ffff8000040090b5 W _Z25illegal_interrupt_handlerILh111EEvP15interrupt_frame
ffff8000040090fb W _ZN18illegal_idt_fillerILh110EE4fillEP11logical_idt
ffff80000400915e W _Z25illegal_interrupt_handlerILh110EEvP15interrupt_frame
ffff8000040091a4 W _ZN18illegal_idt_fillerILh109EE4fillEP11logical_idt
ffff800004009207 W _Z25illegal_interrupt_handlerILh109EEvP15interrupt_frame
ffff80000400924d W _ZN18illegal_idt_fillerILh108EE4fillEP11logical_idt
ffff8000040092b0 W _Z25illegal_interrupt_handlerILh108EEvP15interrupt_frame
ffff8000040092f6 W _ZN18illegal_idt_fillerILh107EE4fillEP11logical_idt
ffff800004009359 W _Z25illegal_interrupt_handlerILh107EEvP15interrupt_frame
ffff80000400939f W _ZN18illegal_idt_fillerILh106EE4fillEP11logical_idt
ffff800004009402 W _Z25illegal_interrupt_handlerILh106EEvP15interrupt_frame
ffff800004009448 W _ZN18illegal_idt_fillerILh105EE4fillEP11logical_idt
ffff8000040094ab W _Z25illegal_interrupt_handlerILh105EEvP15interrupt_frame
ffff8000040094f1 W _ZN18illegal_idt_fillerILh104EE4fillEP11logical_idt
ffff800004009554 W _Z25illegal_interrupt_handlerILh104EEvP15interrupt_frame
ffff80000400959a W _ZN18illegal_idt_fillerILh103EE4fillEP11logical_idt
ffff8000040095fd W _Z25illegal_interrupt_handlerILh103EEvP15interrupt_frame
ffff800004009643 W _ZN18illegal_idt_fillerILh102EE4fillEP11logical_idt
ffff8000040096a6 W _Z25illegal_interrupt_handlerILh102EEvP15interrupt_frame
ffff8000040096ec W _ZN18illegal_idt_fillerILh101EE4fillEP11logical_idt
ffff80000400974f W _Z25illegal_interrupt_handlerILh101EEvP15interrupt_frame
ffff800004009795 W _ZN18illegal_idt_fillerILh100EE4fillEP11logical_idt
ffff8000040097f8 W _Z25illegal_interrupt_handlerILh100EEvP15interrupt_frame
ffff80000400983e W _ZN18illegal_idt_fillerILh99EE4fillEP11logical_idt
ffff8000040098a1 W _Z25illegal_interrupt_handlerILh99EEvP15interrupt_frame
ffff8000040098e7 W _ZN18illegal_idt_fillerILh98EE4fillEP11logical_idt
ffff80000400994a W _Z25illegal_interrupt_handlerILh98EEvP15interrupt_frame
ffff800004009990 W _ZN18illegal_idt_fillerILh97EE4fillEP11logical_idt
ffff8000040099f3 W _Z25illegal_interrupt_handlerILh97EEvP15interrupt_frame
ffff800004009a39 W _ZN18illegal_idt_fillerILh96EE4fillEP11logical_idt
ffff800004009a9c W _Z25illegal_interrupt_handlerILh96EEvP15interrupt_frame
ffff800004009ae2 W _ZN18illegal_idt_fillerILh95EE4fillEP11logical_idt
ffff800004009b45 W _Z25illegal_interrupt_handlerILh95EEvP15interrupt_frame
ffff800004009b8b W _ZN18illegal_idt_fillerILh94EE4fillEP11logical_idt
ffff800004009bee W _Z25illegal_interrupt_handlerILh94EEvP15interrupt_frame
ffff800004009c34 W _ZN18illegal_idt_fillerILh93EE4fillEP11logical_idt
ffff800004009c97 W _Z25illegal_interrupt_handlerILh93EEvP15interrupt_frame
ffff800004009cdd W _ZN18illegal_idt_fillerILh92EE4fillEP11logical_idt
ffff800004009d40 W _Z25illegal_interrupt_handlerILh92EEvP15interrupt_frame
ffff800004009d86 W _ZN18illegal_idt_fillerILh91EE4fillEP11logical_idt
ffff800004009de9 W _Z25illegal_interrupt_handlerILh91EEvP15interrupt_frame
ffff800004009e2f W _ZN18illegal_idt_fillerILh90EE4fillEP11logical_idt
ffff800004009e92 W _Z25illegal_interrupt_handlerILh90EEvP15interrupt_frame
ffff800004009ed8 W _ZN18illegal_idt_fillerILh89EE4fillEP11logical_idt
ffff800004009f3b W _Z25illegal_interrupt_handlerILh89EEvP15interrupt_frame
ffff800004009f81 W _ZN18illegal_idt_fillerILh88EE4fillEP11logical_idt
ffff800004009fe4 W _Z25illegal_interrupt_handlerILh88EEvP15interrupt_frame
ffff80000400a02a W _ZN18illegal_idt_fillerILh87EE4fillEP11logical_idt
ffff80000400a08d W _Z25illegal_interrupt_handlerILh87EEvP15interrupt_frame
ffff80000400a0d3 W _ZN18illegal_idt_fillerILh86EE4fillEP11logical_idt
ffff80000400a136 W _Z25illegal_interrupt_handlerILh86EEvP15interrupt_frame
ffff80000400a17c W _ZN18illegal_idt_fillerILh85EE4fillEP11logical_idt
ffff80000400a1df W _Z25illegal_interrupt_handlerILh85EEvP15interrupt_frame
ffff80000400a225 W _ZN18illegal_idt_fillerILh84EE4fillEP11logical_idt
ffff80000400a288 W _Z25illegal_interrupt_handlerILh84EEvP15interrupt_frame
ffff80000400a2ce W _ZN18illegal_idt_fillerILh83EE4fillEP11logical_idt
ffff80000400a331 W _Z25illegal_interrupt_handlerILh83EEvP15interrupt_frame
ffff80000400a377 W _ZN18illegal_idt_fillerILh82EE4fillEP11logical_idt
ffff80000400a3da W _Z25illegal_interrupt_handlerILh82EEvP15interrupt_frame
ffff80000400a420 W _ZN18illegal_idt_fillerILh81EE4fillEP11logical_idt
ffff80000400a483 W _Z25illegal_interrupt_handlerILh81EEvP15interrupt_frame
ffff80000400a4c9 W _ZN18illegal_idt_fillerILh80EE4fillEP11logical_idt
ffff80000400a52c W _Z25illegal_interrupt_handlerILh80EEvP15interrupt_frame
ffff80000400a572 W _ZN18illegal_idt_fillerILh79EE4fillEP11logical_idt
ffff80000400a5d5 W _Z25illegal_interrupt_handlerILh79EEvP15interrupt_frame
ffff80000400a61b W _ZN18illegal_idt_fillerILh78EE4fillEP11logical_idt
ffff80000400a67e W _Z25illegal_interrupt_handlerILh78EEvP15interrupt_frame
ffff80000400a6c4 W _ZN18illegal_idt_fillerILh77EE4fillEP11logical_idt
ffff80000400a727 W _Z25illegal_interrupt_handlerILh77EEvP15interrupt_frame
ffff80000400a76d W _ZN18illegal_idt_fillerILh76EE4fillEP11logical_idt
ffff80000400a7d0 W _Z25illegal_interrupt_handlerILh76EEvP15interrupt_frame
ffff80000400a816 W _ZN18illegal_idt_fillerILh75EE4fillEP11logical_idt
ffff80000400a879 W _Z25illegal_interrupt_handlerILh75EEvP15interrupt_frame
ffff80000400a8bf W _ZN18illegal_idt_fillerILh74EE4fillEP11logical_idt
ffff80000400a922 W _Z25illegal_interrupt_handlerILh74EEvP15interrupt_frame
ffff80000400a968 W _ZN18illegal_idt_fillerILh73EE4fillEP11logical_idt
ffff80000400a9cb W _Z25illegal_interrupt_handlerILh73EEvP15interrupt_frame
ffff80000400aa11 W _ZN18illegal_idt_fillerILh72EE4fillEP11logical_idt
ffff80000400aa74 W _Z25illegal_interrupt_handlerILh72EEvP15interrupt_frame
ffff80000400aaba W _ZN18illegal_idt_fillerILh71EE4fillEP11logical_idt
ffff80000400ab1d W _Z25illegal_interrupt_handlerILh71EEvP15interrupt_frame
ffff80000400ab63 W _ZN18illegal_idt_fillerILh70EE4fillEP11logical_idt
ffff80000400abc6 W _Z25illegal_interrupt_handlerILh70EEvP15interrupt_frame
ffff80000400ac0c W _ZN18illegal_idt_fillerILh69EE4fillEP11logical_idt
ffff80000400ac6f W _Z25illegal_interrupt_handlerILh69EEvP15interrupt_frame
ffff80000400acb5 W _ZN18illegal_idt_fillerILh68EE4fillEP11logical_idt
ffff80000400ad18 W _Z25illegal_interrupt_handlerILh68EEvP15interrupt_frame
ffff80000400ad5e W _ZN18illegal_idt_fillerILh67EE4fillEP11logical_idt
ffff80000400adc1 W _Z25illegal_interrupt_handlerILh67EEvP15interrupt_frame
ffff80000400ae07 W _ZN18illegal_idt_fillerILh66EE4fillEP11logical_idt
ffff80000400ae6a W _Z25illegal_interrupt_handlerILh66EEvP15interrupt_frame
ffff80000400aeb0 W _ZN18illegal_idt_fillerILh65EE4fillEP11logical_idt
ffff80000400af13 W _Z25illegal_interrupt_handlerILh65EEvP15interrupt_frame
ffff80000400af59 W _ZN18illegal_idt_fillerILh64EE4fillEP11logical_idt
ffff80000400afbc W _Z25illegal_interrupt_handlerILh64EEvP15interrupt_frame
ffff80000400b002 W _ZN18illegal_idt_fillerILh63EE4fillEP11logical_idt
ffff80000400b065 W _Z25illegal_interrupt_handlerILh63EEvP15interrupt_frame
ffff80000400b0ab W _ZN18illegal_idt_fillerILh62EE4fillEP11logical_idt
ffff80000400b10e W _Z25illegal_interrupt_handlerILh62EEvP15interrupt_frame
ffff80000400b154 W _ZN18illegal_idt_fillerILh61EE4fillEP11logical_idt
ffff80000400b1b7 W _Z25illegal_interrupt_handlerILh61EEvP15interrupt_frame
ffff80000400b1fd W _ZN18illegal_idt_fillerILh60EE4fillEP11logical_idt
ffff80000400b260 W _Z25illegal_interrupt_handlerILh60EEvP15interrupt_frame
ffff80000400b2a6 W _ZN18illegal_idt_fillerILh59EE4fillEP11logical_idt
ffff80000400b309 W _Z25illegal_interrupt_handlerILh59EEvP15interrupt_frame
ffff80000400b34f W _ZN18illegal_idt_fillerILh58EE4fillEP11logical_idt
ffff80000400b3b2 W _Z25illegal_interrupt_handlerILh58EEvP15interrupt_frame
ffff80000400b3f8 W _ZN18illegal_idt_fillerILh57EE4fillEP11logical_idt
ffff80000400b45b W _Z25illegal_interrupt_handlerILh57EEvP15interrupt_frame
ffff80000400b4a1 W _ZN18illegal_idt_fillerILh56EE4fillEP11logical_idt
ffff80000400b504 W _Z25illegal_interrupt_handlerILh56EEvP15interrupt_frame
ffff80000400b54a W _ZN18illegal_idt_fillerILh55EE4fillEP11logical_idt
ffff80000400b5ad W _Z25illegal_interrupt_handlerILh55EEvP15interrupt_frame
ffff80000400b5f3 W _ZN18illegal_idt_fillerILh54EE4fillEP11logical_idt
ffff80000400b656 W _Z25illegal_interrupt_handlerILh54EEvP15interrupt_frame
ffff80000400b69c W _ZN18illegal_idt_fillerILh53EE4fillEP11logical_idt
ffff80000400b6ff W _Z25illegal_interrupt_handlerILh53EEvP15interrupt_frame
ffff80000400b745 W _ZN18illegal_idt_fillerILh52EE4fillEP11logical_idt
ffff80000400b7a8 W _Z25illegal_interrupt_handlerILh52EEvP15interrupt_frame
ffff80000400b7ee W _ZN18illegal_idt_fillerILh51EE4fillEP11logical_idt
ffff80000400b851 W _Z25illegal_interrupt_handlerILh51EEvP15interrupt_frame
ffff80000400b897 W _ZN18illegal_idt_fillerILh50EE4fillEP11logical_idt
ffff80000400b8fa W _Z25illegal_interrupt_handlerILh50EEvP15interrupt_frame
ffff80000400b940 W _ZN18illegal_idt_fillerILh49EE4fillEP11logical_idt
ffff80000400b9a3 W _Z25illegal_interrupt_handlerILh49EEvP15interrupt_frame
ffff80000400b9e9 W _ZN18illegal_idt_fillerILh48EE4fillEP11logical_idt
ffff80000400ba4c W _Z25illegal_interrupt_handlerILh48EEvP15interrupt_frame
ffff80000400ba92 W _ZN18illegal_idt_fillerILh47EE4fillEP11logical_idt
ffff80000400baf5 W _Z25illegal_interrupt_handlerILh47EEvP15interrupt_frame
ffff80000400bb3b W _ZN18illegal_idt_fillerILh46EE4fillEP11logical_idt
ffff80000400bb9e W _Z25illegal_interrupt_handlerILh46EEvP15interrupt_frame
ffff80000400bbe4 W _ZN18illegal_idt_fillerILh45EE4fillEP11logical_idt
ffff80000400bc47 W _Z25illegal_interrupt_handlerILh45EEvP15interrupt_frame
ffff80000400bc8d W _ZN18illegal_idt_fillerILh44EE4fillEP11logical_idt
ffff80000400bcf0 W _Z25illegal_interrupt_handlerILh44EEvP15interrupt_frame
ffff80000400bd36 W _ZN18illegal_idt_fillerILh43EE4fillEP11logical_idt
ffff80000400bd99 W _Z25illegal_interrupt_handlerILh43EEvP15interrupt_frame
ffff80000400bddf W _ZN18illegal_idt_fillerILh42EE4fillEP11logical_idt
ffff80000400be42 W _Z25illegal_interrupt_handlerILh42EEvP15interrupt_frame
ffff80000400be88 W _ZN18illegal_idt_fillerILh41EE4fillEP11logical_idt
ffff80000400beeb W _Z25illegal_interrupt_handlerILh41EEvP15interrupt_frame
ffff80000400bf31 W _ZN18illegal_idt_fillerILh40EE4fillEP11logical_idt
ffff80000400bf94 W _Z25illegal_interrupt_handlerILh40EEvP15interrupt_frame
ffff80000400bfda W _ZN18illegal_idt_fillerILh39EE4fillEP11logical_idt
ffff80000400c03d W _Z25illegal_interrupt_handlerILh39EEvP15interrupt_frame
ffff80000400c083 W _ZN18illegal_idt_fillerILh38EE4fillEP11logical_idt
ffff80000400c0e6 W _Z25illegal_interrupt_handlerILh38EEvP15interrupt_frame
ffff80000400c12c W _ZN18illegal_idt_fillerILh37EE4fillEP11logical_idt
ffff80000400c18f W _Z25illegal_interrupt_handlerILh37EEvP15interrupt_frame
ffff80000400c1d5 W _ZN18illegal_idt_fillerILh36EE4fillEP11logical_idt
ffff80000400c238 W _Z25illegal_interrupt_handlerILh36EEvP15interrupt_frame
ffff80000400c27e W _ZN18illegal_idt_fillerILh35EE4fillEP11logical_idt
ffff80000400c2e1 W _Z25illegal_interrupt_handlerILh35EEvP15interrupt_frame
ffff80000400c327 W _ZN18illegal_idt_fillerILh34EE4fillEP11logical_idt
ffff80000400c38a W _Z25illegal_interrupt_handlerILh34EEvP15interrupt_frame
ffff80000400c3d0 W _ZN18illegal_idt_fillerILh33EE4fillEP11logical_idt
ffff80000400c433 W _Z25illegal_interrupt_handlerILh33EEvP15interrupt_frame
ffff80000400c479 W _ZN18illegal_idt_fillerILh32EE4fillEP11logical_idt
ffff80000400c4dc W _Z25illegal_interrupt_handlerILh32EEvP15interrupt_frame
ffff80000400c522 W _ZN18illegal_idt_fillerILh31EE4fillEP11logical_idt
ffff80000400c585 W _Z25illegal_interrupt_handlerILh31EEvP15interrupt_frame
ffff80000400c5cb W _ZN18illegal_idt_fillerILh30EE4fillEP11logical_idt
ffff80000400c62e W _Z25illegal_interrupt_handlerILh30EEvP15interrupt_frame
ffff80000400c674 W _ZN18illegal_idt_fillerILh29EE4fillEP11logical_idt
ffff80000400c6d7 W _Z25illegal_interrupt_handlerILh29EEvP15interrupt_frame
ffff80000400c71d W _ZN18illegal_idt_fillerILh28EE4fillEP11logical_idt
ffff80000400c780 W _Z25illegal_interrupt_handlerILh28EEvP15interrupt_frame
ffff80000400c7c6 W _ZN18illegal_idt_fillerILh27EE4fillEP11logical_idt
ffff80000400c829 W _Z25illegal_interrupt_handlerILh27EEvP15interrupt_frame
ffff80000400c86f W _ZN18illegal_idt_fillerILh26EE4fillEP11logical_idt
ffff80000400c8d2 W _Z25illegal_interrupt_handlerILh26EEvP15interrupt_frame
ffff80000400c918 W _ZN18illegal_idt_fillerILh25EE4fillEP11logical_idt
ffff80000400c97b W _Z25illegal_interrupt_handlerILh25EEvP15interrupt_frame
ffff80000400c9c1 W _ZN18illegal_idt_fillerILh24EE4fillEP11logical_idt
ffff80000400ca24 W _Z25illegal_interrupt_handlerILh24EEvP15interrupt_frame
ffff80000400ca6a W _ZN18illegal_idt_fillerILh23EE4fillEP11logical_idt
ffff80000400cacd W _Z25illegal_interrupt_handlerILh23EEvP15interrupt_frame
ffff80000400cb13 W _ZN18illegal_idt_fillerILh22EE4fillEP11logical_idt
ffff80000400cb76 W _Z25illegal_interrupt_handlerILh22EEvP15interrupt_frame
ffff80000400cbbc W _ZN18illegal_idt_fillerILh21EE4fillEP11logical_idt
ffff80000400cc1f W _Z25illegal_interrupt_handlerILh21EEvP15interrupt_frame
ffff80000400cc65 W _ZN18illegal_idt_fillerILh20EE4fillEP11logical_idt
ffff80000400ccc8 W _Z25illegal_interrupt_handlerILh20EEvP15interrupt_frame
ffff80000400cd0e W _ZN18illegal_idt_fillerILh19EE4fillEP11logical_idt
ffff80000400cd71 W _Z25illegal_interrupt_handlerILh19EEvP15interrupt_frame
ffff80000400cdb7 W _ZN18illegal_idt_fillerILh18EE4fillEP11logical_idt
ffff80000400ce1a W _Z25illegal_interrupt_handlerILh18EEvP15interrupt_frame
ffff80000400ce60 W _ZN18illegal_idt_fillerILh17EE4fillEP11logical_idt
ffff80000400cec3 W _Z25illegal_interrupt_handlerILh17EEvP15interrupt_frame
ffff80000400cf09 W _ZN18illegal_idt_fillerILh16EE4fillEP11logical_idt
ffff80000400cf6c W _Z25illegal_interrupt_handlerILh16EEvP15interrupt_frame
ffff80000400cfb2 W _ZN18illegal_idt_fillerILh15EE4fillEP11logical_idt
ffff80000400d015 W _Z25illegal_interrupt_handlerILh15EEvP15interrupt_frame
ffff80000400d05b W _ZN18illegal_idt_fillerILh14EE4fillEP11logical_idt
ffff80000400d0be W _Z25illegal_interrupt_handlerILh14EEvP15interrupt_frame
ffff80000400d104 W _ZN18illegal_idt_fillerILh13EE4fillEP11logical_idt
ffff80000400d167 W _Z25illegal_interrupt_handlerILh13EEvP15interrupt_frame
ffff80000400d1ad W _ZN18illegal_idt_fillerILh12EE4fillEP11logical_idt
ffff80000400d210 W _Z25illegal_interrupt_handlerILh12EEvP15interrupt_frame
ffff80000400d256 W _ZN18illegal_idt_fillerILh11EE4fillEP11logical_idt
ffff80000400d2b9 W _Z25illegal_interrupt_handlerILh11EEvP15interrupt_frame
ffff80000400d2ff W _ZN18illegal_idt_fillerILh10EE4fillEP11logical_idt
ffff80000400d362 W _Z25illegal_interrupt_handlerILh10EEvP15interrupt_frame
ffff80000400d3a8 W _ZN18illegal_idt_fillerILh9EE4fillEP11logical_idt
ffff80000400d40b W _Z25illegal_interrupt_handlerILh9EEvP15interrupt_frame
ffff80000400d451 W _ZN18illegal_idt_fillerILh8EE4fillEP11logical_idt
ffff80000400d4ac W _Z25illegal_interrupt_handlerILh8EEvP15interrupt_frame
ffff80000400d4f2 W _ZN18illegal_idt_fillerILh7EE4fillEP11logical_idt
ffff80000400d54d W _Z25illegal_interrupt_handlerILh7EEvP15interrupt_frame
ffff80000400d593 W _ZN18illegal_idt_fillerILh6EE4fillEP11logical_idt
ffff80000400d5ee W _Z25illegal_interrupt_handlerILh6EEvP15interrupt_frame
ffff80000400d634 W _ZN18illegal_idt_fillerILh5EE4fillEP11logical_idt
ffff80000400d68f W _Z25illegal_interrupt_handlerILh5EEvP15interrupt_frame
ffff80000400d6d5 W _ZN18illegal_idt_fillerILh4EE4fillEP11logical_idt
ffff80000400d730 W _Z25illegal_interrupt_handlerILh4EEvP15interrupt_frame
ffff80000400d776 W _ZN18illegal_idt_fillerILh3EE4fillEP11logical_idt
ffff80000400d7d1 W _Z25illegal_interrupt_handlerILh3EEvP15interrupt_frame
ffff80000400d817 W _ZN18illegal_idt_fillerILh2EE4fillEP11logical_idt
ffff80000400d872 W _Z25illegal_interrupt_handlerILh2EEvP15interrupt_frame
ffff80000400d8b8 W _ZN18illegal_idt_fillerILh1EE4fillEP11logical_idt
ffff80000400d913 W _Z25illegal_interrupt_handlerILh1EEvP15interrupt_frame
ffff80000400d959 T _ZN26APICtb_analyzed_structures5xapicEPN9ACPI_MADT16Local_APIC_entryE
ffff80000400d9d9 T _ZN26APICtb_analyzed_structures5xapicEPN9ACPI_MADT32processor_local_x2apic_structureE
ffff80000400da51 T _ZN26APICtb_analyzed_structures6ioapicEPN9ACPI_MADT17io_apic_structureE
ffff80000400da85 T _ZN26APICtb_analyzed_structures22isa_interrupt_ovverideEPN9ACPI_MADT25interrupt_source_overrideE
ffff80000400dae0 T _ZN26APICtb_analyzed_structures11nmi_soureceEPN9ACPI_MADT20nmi_source_structureE
ffff80000400db1c T _ZN26APICtb_analyzed_structures17all_processor_nmiEPN9ACPI_MADT24local_apic_nmi_structureE
ffff80000400db8b T _ZN26APICtb_analyzed_structures17all_processor_nmiEPN9ACPI_MADT26local_x2apic_nmi_structureE
ffff80000400dbfa T _ZN19APIC_table_analyzerC1EP10MADT_Table
ffff80000400dbfa T _ZN19APIC_table_analyzerC2EP10MADT_Table
ffff80000400e0c2 T _ZN19APIC_table_analyzerD1Ev
ffff80000400e0c2 T _ZN19APIC_table_analyzerD2Ev
ffff80000400e1c6 W _ZN9Ktemplats11list_doublyIN26APICtb_analyzed_structures26processor_x64_lapic_structEEC1Ev
ffff80000400e1c6 W _ZN9Ktemplats11list_doublyIN26APICtb_analyzed_structures26processor_x64_lapic_structEEC2Ev
ffff80000400e1f4 W _ZN9Ktemplats11list_doublyIN26APICtb_analyzed_structures17io_apic_structureEEC1Ev
ffff80000400e1f4 W _ZN9Ktemplats11list_doublyIN26APICtb_analyzed_structures17io_apic_structureEEC2Ev
ffff80000400e222 W _ZN9Ktemplats11list_doublyIN26APICtb_analyzed_structures29ISA_interrupt_ovveride_structEEC1Ev
ffff80000400e222 W _ZN9Ktemplats11list_doublyIN26APICtb_analyzed_structures29ISA_interrupt_ovveride_structEEC2Ev
ffff80000400e250 W _ZN9Ktemplats11list_doublyIN26APICtb_analyzed_structures18nmi_sourece_structEEC1Ev
ffff80000400e250 W _ZN9Ktemplats11list_doublyIN26APICtb_analyzed_structures18nmi_sourece_structEEC2Ev
ffff80000400e27e W _ZN9Ktemplats11list_doublyIN26APICtb_analyzed_structures24all_processor_nmi_structEEC1Ev
ffff80000400e27e W _ZN9Ktemplats11list_doublyIN26APICtb_analyzed_structures24all_processor_nmi_structEEC2Ev
ffff80000400e2ac W _ZN9Ktemplats11list_doublyIN26APICtb_analyzed_structures26processor_x64_lapic_structEE9push_backERKS2_
ffff80000400e348 W _ZN9Ktemplats11list_doublyIN26APICtb_analyzed_structures17io_apic_structureEE9push_backERKS2_
ffff80000400e3e4 W _ZN9Ktemplats11list_doublyIN26APICtb_analyzed_structures29ISA_interrupt_ovveride_structEE9push_backERKS2_
ffff80000400e480 W _ZN9Ktemplats11list_doublyIN26APICtb_analyzed_structures18nmi_sourece_structEE9push_backERKS2_
ffff80000400e51c W _ZN9Ktemplats11list_doublyIN26APICtb_analyzed_structures24all_processor_nmi_structEE9push_backERKS2_
ffff80000400e5b8 W _ZN9Ktemplats11list_doublyIN26APICtb_analyzed_structures26processor_x64_lapic_structEED1Ev
ffff80000400e5b8 W _ZN9Ktemplats11list_doublyIN26APICtb_analyzed_structures26processor_x64_lapic_structEED2Ev
ffff80000400e5da W _ZN9Ktemplats11list_doublyIN26APICtb_analyzed_structures17io_apic_structureEED1Ev
ffff80000400e5da W _ZN9Ktemplats11list_doublyIN26APICtb_analyzed_structures17io_apic_structureEED2Ev
ffff80000400e5fc W _ZN9Ktemplats11list_doublyIN26APICtb_analyzed_structures29ISA_interrupt_ovveride_structEED1Ev
ffff80000400e5fc W _ZN9Ktemplats11list_doublyIN26APICtb_analyzed_structures29ISA_interrupt_ovveride_structEED2Ev
ffff80000400e61e W _ZN9Ktemplats11list_doublyIN26APICtb_analyzed_structures18nmi_sourece_structEED1Ev
ffff80000400e61e W _ZN9Ktemplats11list_doublyIN26APICtb_analyzed_structures18nmi_sourece_structEED2Ev
ffff80000400e640 W _ZN9Ktemplats11list_doublyIN26APICtb_analyzed_structures24all_processor_nmi_structEED1Ev
ffff80000400e640 W _ZN9Ktemplats11list_doublyIN26APICtb_analyzed_structures24all_processor_nmi_structEED2Ev
ffff80000400e662 W _ZN9Ktemplats11list_doublyIN26APICtb_analyzed_structures26processor_x64_lapic_structEE10alloc_nodeERKS2_
ffff80000400e6f8 W _ZN9Ktemplats11list_doublyIN26APICtb_analyzed_structures17io_apic_structureEE10alloc_nodeERKS2_
ffff80000400e7a0 W _ZN9Ktemplats11list_doublyIN26APICtb_analyzed_structures29ISA_interrupt_ovveride_structEE10alloc_nodeERKS2_
ffff80000400e844 W _ZN9Ktemplats11list_doublyIN26APICtb_analyzed_structures18nmi_sourece_structEE10alloc_nodeERKS2_
ffff80000400e8da W _ZN9Ktemplats11list_doublyIN26APICtb_analyzed_structures24all_processor_nmi_structEE10alloc_nodeERKS2_
ffff80000400e976 W _ZN9Ktemplats11list_doublyIN26APICtb_analyzed_structures26processor_x64_lapic_structEE5clearEv
ffff80000400e9ea W _ZN9Ktemplats11list_doublyIN26APICtb_analyzed_structures17io_apic_structureEE5clearEv
ffff80000400ea5e W _ZN9Ktemplats11list_doublyIN26APICtb_analyzed_structures29ISA_interrupt_ovveride_structEE5clearEv
ffff80000400ead2 W _ZN9Ktemplats11list_doublyIN26APICtb_analyzed_structures18nmi_sourece_structEE5clearEv
ffff80000400eb46 W _ZN9Ktemplats11list_doublyIN26APICtb_analyzed_structures24all_processor_nmi_structEE5clearEv
ffff80000400ebba W _ZN9Ktemplats11list_doublyIN26APICtb_analyzed_structures26processor_x64_lapic_structEE9free_nodeEPNS3_4nodeE
ffff80000400ebf4 W _ZN9Ktemplats11list_doublyIN26APICtb_analyzed_structures17io_apic_structureEE9free_nodeEPNS3_4nodeE
ffff80000400ec2e W _ZN9Ktemplats11list_doublyIN26APICtb_analyzed_structures29ISA_interrupt_ovveride_structEE9free_nodeEPNS3_4nodeE
ffff80000400ec68 W _ZN9Ktemplats11list_doublyIN26APICtb_analyzed_structures18nmi_sourece_structEE9free_nodeEPNS3_4nodeE
ffff80000400eca2 W _ZN9Ktemplats11list_doublyIN26APICtb_analyzed_structures24all_processor_nmi_structEE9free_nodeEPNS3_4nodeE
ffff80000400ece0 T div_by_zero_bare_enter
ffff80000400ed55 T breakpoint_bare_enter
ffff80000400edca T nmi_bare_enter
ffff80000400ee3f T overflow_bare_enter
ffff80000400eeb4 T invalid_opcode_bare_enter
ffff80000400ef29 T general_protection_bare_enter
ffff80000400ef97 T double_fault_bare_enter
ffff80000400f005 T page_fault_bare_enter
ffff80000400f073 T machine_check_bare_enter
ffff80000400f0e6 T invalid_tss_bare_enter
ffff80000400f154 T simd_floating_point_bare_enter
ffff80000400f1c7 T virtualization_bare_enter
ffff80000400f235 T timer_bare_enter
ffff80000400f2a8 T ipi_bare_enter
ffff80000400f316 T _ZN32HPET_driver_only_read_time_stampC1EPN4HPET6ACPItb10HPET_TableE
ffff80000400f316 T _ZN32HPET_driver_only_read_time_stampC2EPN4HPET6ACPItb10HPET_TableE
ffff80000400f35c T _ZN32HPET_driver_only_read_time_stamp17second_stage_initEv
ffff80000400f5d2 T _ZN32HPET_driver_only_read_time_stampD1Ev
ffff80000400f5d2 T _ZN32HPET_driver_only_read_time_stampD2Ev
ffff80000400f6a8 T _ZN32HPET_driver_only_read_time_stamp20get_time_stamp_in_nsEv
ffff80000400f73a T _ZN32HPET_driver_only_read_time_stamp22get_time_stamp_in_miusEv
ffff80000400f7cc T _ZN4time13hardware_time7try_tscEv
ffff80000400f7d8 T _ZN4time13hardware_time23inform_initialized_hpetEv
ffff80000400f7f0 T _ZN4time13hardware_time16get_tsc_reliableEv
ffff80000400f804 T _ZN4time13hardware_time23get_if_hpet_initializedEv
ffff80000400f818 T _ZN4time13hardware_time16processor_registEv
ffff80000400f8d0 T _ZN4time13hardware_time9get_stampENS_24hardware_time_base_tokenE
ffff80000400f9d4 W _ZN4time24hardware_time_base_tokenC1Ev
ffff80000400f9d4 W _ZN4time24hardware_time_base_tokenC2Ev
ffff80000400f9e0 T _ZN11ksymmanager4InitEP14BootInfoHeader
ffff80000400fad8 T _ZN11ksymmanager19get_entry_near_addrEm
ffff80000400fc06 T _ZN11ksymmanager11get_phybaseEv
ffff80000400fc1a T _ZN11ksymmanager12get_virtbaseEv
ffff80000400fc2e T _ZN11ksymmanager15get_entry_countEv
ffff80000400fc40 T _Z10self_tracev
ffff80000400fc65 T _Z10else_tracePv
ffff80000400fe86 T _Z13is_guid_equalPA2_mS0_
ffff80000400fec8 T _ZN9acpimgr_t4InitEP17_EFI_SYSTEM_TABLE
ffff8000040102da T _ZN9acpimgr_t14get_acpi_tableEPc
ffff8000040104eb T reverse_perbytes
ffff800004010556 T strcmp_in_kernel
ffff8000040105d9 T strlen_in_kernel
ffff80000401060b T get_first_true_bit_index
ffff80000401067c T get_first_zero_bit_index
ffff8000040106f8 T _Z7strncmpPKcS0_m
ffff80000401077a T setmem
ffff800004010840 T _Z23__kspace_stack_chk_failv
ffff800004010849 T __wrap___stack_chk_fail
ffff80000401085c T ksystemramcpy
ffff8000040109d7 T linearTBSerialDelete
ffff800004010a83 T linearTBSerialInsert
ffff800004010bb3 T getbit_entry1bit_width
ffff800004010bfe T setbit_entry1bit_width
ffff800004010cb2 T setbits_entry1bit_width
ffff800004010dc6 T align_up
ffff800004010e05 T atomic_write8_wmb
ffff800004010e22 T atomic_write16_wmb
ffff800004010e41 T atomic_write32_wmb
ffff800004010e5b T atomic_write64_wmb
ffff800004010e78 T atomic_read8_rmb
ffff800004010e92 T atomic_read16_rmb
ffff800004010eae T atomic_read32_rmb
ffff800004010ec7 T atomic_read64_rmb
ffff800004010ee3 T atomic_write8_rdbk
ffff800004010f11 T atomic_write16_rdbk
ffff800004010f43 T atomic_write32_rdbk
ffff800004010f6c T atomic_write64_rdbk
ffff800004010f9c T rdmsr
ffff800004010fc2 T wrmsr
ffff800004010fed T rdtsc
ffff80000401100b T read_gs_u64
ffff800004011039 T gs_u64_write
ffff80000401105e t _ZL9drawpixeliij
ffff8000040110b2 t _ZL8getpixelii
ffff8000040110ff t _ZL18DrawHorizentalLinejjij
ffff800004011188 t _ZL13FillRectanglejjiij
ffff800004011215 t _ZL30kernelshellclearScreenInternalv
ffff80000401129e t _ZL29drawKernelShellBorderInternalv
ffff8000040114aa t _ZL11DrawPictureiiP24BGRR32bitsRawPictureType
ffff80000401153a t _ZL28drawCharacterWithoutRenderediit
ffff800004011809 t _ZL25ValidateDrawingParametersii
ffff80000401193c T InitialKernelShellControler
ffff800004011e06 T InitialGlobalBasicGraphicInfo
ffff800004011f0f T InitialGlobalCharacterSetBitmapControler
ffff80000401205d T DrawHorizentalLineSecure
ffff80000401213b T FillRectangleSecure
ffff80000401223d T DrawPictureSecure
ffff8000040123b0 T DrawVerticalLineSecure
ffff8000040124ac T _Z28KernelShellClearScreenSecurev
ffff80000401254c T _Z27DrawKernelShellBorderSecurev
ffff8000040126e3 T DrawCharacterWithoutRenderSecure
ffff8000040128a9 t _ZL17kernelshellmoveupttttt
ffff80000401298a T kernelshellmoveupSecure
ffff800004012acb T kputchar
ffff800004012d02 T kputcharSecure
ffff800004012f1c T kputsascii
ffff800004013021 T kputsSecure
ffff8000040131ba T kpnumSecure
ffff800004013664 t _ZL4outbth
ffff80000401367f t _ZL3inbt
ffff800004013699 T serial_init_stage1
ffff800004013724 T _Z18serial_init_stage2v
ffff80000401372a T _Z24serial_is_transmit_emptyv
ffff800004013747 T serial_putc
ffff800004013787 T serial_puts
ffff8000040137c4 T __builtin_ctzll
ffff8000040137e0 T _Z5delaym
ffff80000401380a T _ZN18KernelPanicManagerC1Ev
ffff80000401380a T _ZN18KernelPanicManagerC2Ev
ffff800004013816 T _ZN18KernelPanicManagerD1Ev
ffff800004013816 T _ZN18KernelPanicManagerD2Ev
ffff800004013822 T _ZN18KernelPanicManager4InitEm
ffff800004013840 T _ZN18KernelPanicManager16setShutdownDelayEi
ffff80000401385a T _ZN18KernelPanicManager13dumpRegistersERK7pt_regs
ffff800004013e12 T _ZN18KernelPanicManager5panicEPKc
ffff800004013eb4 T _ZN18KernelPanicManager5panicEPKcRK7pt_regs
ffff800004013f96 T _ZN18KernelPanicManager5panicEPKcRK12panic_info_t
ffff800004014094 T __popcountdi2
ffff800004014134 T _ZN8bitmap_t7bit_setEmb
ffff8000040141ec T _ZN8bitmap_t7bit_getEm
ffff80000401422a T _ZN8bitmap_t8bits_setEmmb
ffff800004014286 T _ZN8bitmap_t9bytes_setEmmb
ffff8000040142e4 T _ZN8bitmap_t8u64s_setEmmb
ffff800004014350 T _ZN8bitmap_t31continual_avaliable_bits_searchEmRm
ffff800004014500 T _ZN8bitmap_t32continual_avaliable_bytes_searchEmRm
ffff80000401469e T _ZN8bitmap_t31continual_avaliable_u64s_searchEmRm
ffff8000040147c8 T _ZN8bitmap_t19get_bitmap_used_bitEv
ffff8000040147da T _ZN8bitmap_t18used_bit_count_addEm
ffff800004014836 T _ZN8bitmap_t18used_bit_count_subEm
ffff8000040148ae T _ZN8bitmap_t21count_bitmap_used_bitEv
ffff800004014926 T _ZN9Ktemplats13kernel_bitmapD1Ev
ffff800004014926 T _ZN9Ktemplats13kernel_bitmapD2Ev
ffff800004014996 T _ZN9Ktemplats13kernel_bitmapC1Em
ffff800004014996 T _ZN9Ktemplats13kernel_bitmapC2Em
ffff800004014a88 W _ZN16spinrwlock_cpp_tC1Ev
ffff800004014a88 W _ZN16spinrwlock_cpp_tC2Ev
ffff800004014acc W _ZN8bitmap_tC1Ev
ffff800004014acc W _ZN8bitmap_tC2Ev
ffff800004014b06 T _ZN14spinlock_cpp_t4lockEv
ffff800004014b2a T _ZN14spinlock_cpp_t6unlockEv
ffff800004014b44 T _ZN13trylock_cpp_t8try_lockEv
ffff800004014b68 T _ZN13trylock_cpp_t6unlockEv
ffff800004014b7a T _ZN16spinrwlock_cpp_t9read_lockEv
ffff800004014be4 T _ZN16spinrwlock_cpp_t11read_unlockEv
ffff800004014c4c T _ZN16spinrwlock_cpp_t10write_lockEv
ffff800004014c72 T _ZN16spinrwlock_cpp_t12write_unlockEv
ffff800004014c98 T _ZN8RBTree_t11left_rotateEP4Node
ffff800004014d0c T _ZN8RBTree_t12right_rotateEP4Node
ffff800004014d80 T _ZN8RBTree_t10fix_insertEP4Node
ffff800004015170 T _ZN8RBTree_t11subtree_minEP4Node
ffff80000401519a T _ZN8RBTree_t10fix_removeEP4NodeS1_
ffff8000040157f0 T _ZN8RBTree_t11subtree_maxEP4Node
ffff800004015820 T _ZN8RBTree_t9successorEP4Node
ffff8000040158ae T _ZN8RBTree_tC1EPFiPKvS1_E
ffff8000040158ae T _ZN8RBTree_tC2EPFiPKvS1_E
ffff8000040158d4 T _ZN8RBTree_t6searchEPv
ffff80000401594a T _ZN8RBTree_t6insertEPv
ffff800004015ab2 T _ZN8RBTree_t6removeEPv
ffff800004015df0 t _ZZN3kio4kout11print_numerEPmNS0_19numer_system_selectEhbENKUlcE_clEc
ffff800004015e8c T _ZN3kio4kout11print_numerEPmNS0_19numer_system_selectEhb
ffff800004016176 T _ZN3kio4koutlsEPKc
ffff80000401622a T _ZN3kio4koutlsEc
ffff8000040162d0 T _ZN3kio4kout4InitEv
ffff800004016310 T _ZN3kio4koutlsEPKv
ffff8000040163de T _ZN3kio4koutlsEm
ffff800004016438 T _ZN3kio4koutlsEl
ffff800004016492 T _ZN3kio4koutlsEj
ffff8000040164ec T _ZN3kio4koutlsEi
ffff800004016546 T _ZN3kio4koutlsEt
ffff8000040165a2 T _ZN3kio4koutlsEs
ffff8000040165fe T _ZN3kio4koutlsEh
ffff80000401665a T _ZN3kio4koutlsEa
ffff8000040166b6 T _ZN3kio4kout9shift_binEv
ffff8000040166cc T _ZN3kio4kout9shift_decEv
ffff8000040166e2 T _ZN3kio4kout9shift_hexEv
ffff8000040166f8 T _ZN3kio4kout14get_statisticsEv
ffff800004016728 T _ZN3kio4koutlsENS_8now_timeE
ffff80000401686a T _ZN3kio4koutlsENS_4endlE
ffff8000040168ae t _Z41__static_initialization_and_destruction_0v
ffff800004016917 t _GLOBAL__sub_I__ZN3kio8bsp_koutE
ffff80000401692a W _ZN3kio8now_timeC1Ev
ffff80000401692a W _ZN3kio8now_timeC2Ev
ffff800004016936 W _ZN3kio4endlC1Ev
ffff800004016936 W _ZN3kio4endlC2Ev
ffff800004016942 W _ZN3kio4koutD1Ev
ffff800004016942 W _ZN3kio4koutD2Ev
ffff80000401694d T _Z12query_apicidv
ffff800004016983 T _Z14query_x2apicidv
ffff8000040169bd T _Z19is_x2apic_supportedv
ffff800004016a02 T _Z16is_avx_supportedv
ffff800004016a47 W _Z5cpuidPjS_S_S_
ffff800004016a9c T _ZN24GlobalMemoryPGlevelMgr_t4InitEP24EFI_MEMORY_DESCRIPTORX64m
ffff800004017026 T _ZN24GlobalMemoryPGlevelMgr_t27getGlobalPhysicalMemoryInfoEv
ffff800004017034 T _ZN24GlobalMemoryPGlevelMgr_t46getRootPhysicalMemoryDescriptorTableEntryCountEv
ffff80000401704a T _ZN24GlobalMemoryPGlevelMgr_t24queryPhysicalMemoryUsageEm
ffff800004017119 t _ZL21compareEfiDescriptorsPKvS0_
ffff800004017174 T _ZN24GlobalMemoryPGlevelMgr_t31sortEfiMemoryMapByPhysicalStartEv
ffff800004017336 T _ZN24GlobalMemoryPGlevelMgr_t23fillMemoryHolesInEfiMapEv
ffff80000401749a T _ZN24GlobalMemoryPGlevelMgr_t21FixedPhyaddPgallocateEmm12PHY_MEM_TYPE
ffff8000040179c6 T _ZN24GlobalMemoryPGlevelMgr_t11pageRecycleEm
ffff800004017cee T _ZN24GlobalMemoryPGlevelMgr_t12pageSetValueEmm
ffff800004017d90 T _Z18MemoryTypeToStringj
ffff800004018042 T _ZN24GlobalMemoryPGlevelMgr_t13getMaxPhyaddrEv
ffff800004018057 T _Z21PrintMemoryDescriptorPK24EFI_MEMORY_DESCRIPTORX64
ffff8000040181ba T _ZN24GlobalMemoryPGlevelMgr_t16printPhyMemDesTbEv
ffff8000040182b4 T _ZN24GlobalMemoryPGlevelMgr_t29printEfiMemoryDescriptorTableEv
ffff8000040183ba T _ZN24GlobalMemoryPGlevelMgr_tC1Ev
ffff8000040183ba T _ZN24GlobalMemoryPGlevelMgr_tC2Ev
ffff8000040183c6 T _ZN24GlobalMemoryPGlevelMgr_tC1EP24EFI_MEMORY_DESCRIPTORX64m
ffff8000040183c6 T _ZN24GlobalMemoryPGlevelMgr_tC2EP24EFI_MEMORY_DESCRIPTORX64m
ffff8000040183da T _ZN24GlobalMemoryPGlevelMgr_t22DisableBasicMemServiceEv
ffff8000040183fa T _ZN24GlobalMemoryPGlevelMgr_t23findDescriptorByAddressEm
ffff8000040184cc T _ZN24GlobalMemoryPGlevelMgr_t23descriptor_remapped_incEm
ffff800004018562 T _ZN24GlobalMemoryPGlevelMgr_t23descriptor_remapped_decEm
ffff80000401860a T _ZN24GlobalMemoryPGlevelMgr_t27getEfiMemoryDescriptorTableEv
ffff80000401861e T _ZN24GlobalMemoryPGlevelMgr_t37getEfiMemoryDescriptorTableEntryCountEv
ffff800004018633 t _Z41__static_initialization_and_destruction_0v
ffff800004018653 t _GLOBAL__sub_I_gBaseMemMgr
ffff800004018666 T _ZN15phymemspace_mgr14phy_to_indicesEmRmS0_S0_
ffff8000040186ca T _ZN15phymemspace_mgr13atom_page_ptrC1Ejtt
ffff8000040186ca T _ZN15phymemspace_mgr13atom_page_ptrC2Ejtt
ffff800004018848 T _ZN15phymemspace_mgr13atom_page_ptr8the_nextEv
ffff800004018b0e T _ZN15phymemspace_mgr13pages_recycleEmm
ffff800004018d10 T _ZN15phymemspace_mgr19pages_mmio_unregistEmm
ffff800004018dd6 T _ZN15phymemspace_mgr4InitEv
ffff8000040194b0 T _ZN15phymemspace_mgr20pages_recycle_verifyEmmRNS_12page_state_tE
ffff800004019816 T _ZN15phymemspace_mgr16PHYSEG_LIST_ITEM15get_seg_by_addrEmRNS_6PHYSEGE
ffff800004019904 T _ZN15phymemspace_mgr18get_physeg_by_addrEm
ffff800004019964 T _ZN15phymemspace_mgr17get_statisit_copyEv
ffff8000040199ce t _Z41__static_initialization_and_destruction_0v
ffff8000040199ee t _Z41__static_initialization_and_destruction_1v
ffff800004019a0e t _GLOBAL__sub_I__ZN15phymemspace_mgr10statisitcsE
ffff800004019a20 t _GLOBAL__sub_D__ZN15phymemspace_mgr10statisitcsE
ffff800004019a32 W _ZN9Ktemplats11list_doublyIN15phymemspace_mgr6PHYSEGEEC1Ev
ffff800004019a32 W _ZN9Ktemplats11list_doublyIN15phymemspace_mgr6PHYSEGEEC2Ev
ffff800004019a60 W _ZN15phymemspace_mgr16PHYSEG_LIST_ITEMC1Ev
ffff800004019a60 W _ZN15phymemspace_mgr16PHYSEG_LIST_ITEMC2Ev
ffff800004019a82 W _ZN9Ktemplats11list_doublyIN15phymemspace_mgr12low1mb_mgr_t12low1mb_seg_tEED1Ev
ffff800004019a82 W _ZN9Ktemplats11list_doublyIN15phymemspace_mgr12low1mb_mgr_t12low1mb_seg_tEED2Ev
ffff800004019aa4 W _ZN9Ktemplats33sparse_table_2level_no_OBJCONTENTIjN15phymemspace_mgr14page_size1gb_tELj3ELj9EE3getEj
ffff800004019b7a W _ZN9Ktemplats33sparse_table_2level_no_OBJCONTENTIjN15phymemspace_mgr14page_size1gb_tELj3ELj9EE10root_entryC1Ev
ffff800004019b7a W _ZN9Ktemplats33sparse_table_2level_no_OBJCONTENTIjN15phymemspace_mgr14page_size1gb_tELj3ELj9EE10root_entryC2Ev
ffff800004019ba6 W _ZN9Ktemplats33sparse_table_2level_no_OBJCONTENTIjN15phymemspace_mgr14page_size1gb_tELj3ELj9EEC1Ev
ffff800004019ba6 W _ZN9Ktemplats33sparse_table_2level_no_OBJCONTENTIjN15phymemspace_mgr14page_size1gb_tELj3ELj9EEC2Ev
ffff800004019c04 W _ZN9Ktemplats11list_doublyIN15phymemspace_mgr12low1mb_mgr_t12low1mb_seg_tEE5clearEv
ffff800004019c78 W _ZN9Ktemplats33sparse_table_2level_no_OBJCONTENTIjN15phymemspace_mgr14page_size1gb_tELj3ELj9EE10high_indexEj
ffff800004019c87 W _ZN9Ktemplats33sparse_table_2level_no_OBJCONTENTIjN15phymemspace_mgr14page_size1gb_tELj3ELj9EE9low_indexEj
ffff800004019c98 W _ZN9Ktemplats11list_doublyIN15phymemspace_mgr12low1mb_mgr_t12low1mb_seg_tEE9free_nodeEPNS4_4nodeE
ffff800004019cd2 W _ZN15phymemspace_mgr12low1mb_mgr_t17interval_LinkListD1Ev
ffff800004019cd2 W _ZN15phymemspace_mgr12low1mb_mgr_t17interval_LinkListD2Ev
ffff800004019cf4 T _ZN15phymemspace_mgr19_phypg_count_modifyEmbb
ffff800004019fe4 T _ZN15phymemspace_mgr18phypg_refcount_decEm
ffff80000401a010 T _ZN15phymemspace_mgr18phypg_refcount_incEm
ffff80000401a03c T _ZN15phymemspace_mgr18phypg_mapcount_decEm
ffff80000401a068 T _ZN15phymemspace_mgr18phypg_mapcount_incEm
ffff80000401a094 t _ZZN15phymemspace_mgr15pages_state_setEmmNS_12page_state_tENS_23pages_state_set_flags_tEENKUlmE_clEm
ffff80000401a1e0 t _ZZN15phymemspace_mgr15pages_state_setEmmNS_12page_state_tENS_23pages_state_set_flags_tEENKUlRNS_14page_size2mb_tEE_clES3_
ffff80000401a2d0 t _ZZN15phymemspace_mgr15pages_state_setEmmNS_12page_state_tENS_23pages_state_set_flags_tEENKUlRNS_14page_size2mb_tEE0_clES3_
ffff80000401a422 t _ZZN15phymemspace_mgr15pages_state_setEmmNS_12page_state_tENS_23pages_state_set_flags_tEENKUlRNS_14page_size1gb_tEE_clES3_
ffff80000401a5a8 t _ZZN15phymemspace_mgr15pages_state_setEmmNS_12page_state_tENS_23pages_state_set_flags_tEENKUlmmE_clEmm
ffff80000401a784 t _ZZN15phymemspace_mgr15pages_state_setEmmNS_12page_state_tENS_23pages_state_set_flags_tEENKUlmmPNS_14page_size4kb_tEE_clEmmS3_
ffff80000401a812 t _ZZN15phymemspace_mgr15pages_state_setEmmNS_12page_state_tENS_23pages_state_set_flags_tEENKUlmmPNS_14page_size2mb_tEE_clEmmS3_
ffff80000401a8a0 t _ZZN15phymemspace_mgr15pages_state_setEmmNS_12page_state_tENS_23pages_state_set_flags_tEENKUlvE_clEv
ffff80000401a990 t _ZZN15phymemspace_mgr15pages_state_setEmmNS_12page_state_tENS_23pages_state_set_flags_tEENKUlvE0_clEv
ffff80000401aa5a t _ZZN15phymemspace_mgr15pages_state_setEmmNS_12page_state_tENS_23pages_state_set_flags_tEENKUlvE1_clEv
ffff80000401ab18 T _ZN15phymemspace_mgr15pages_state_setEmmNS_12page_state_tENS_23pages_state_set_flags_tE
ffff80000401b43a W _ZN15phymemspace_mgr14page_size2mb_tC1Ev
ffff80000401b43a W _ZN15phymemspace_mgr14page_size2mb_tC2Ev
ffff80000401b450 W _ZN9Ktemplats33sparse_table_2level_no_OBJCONTENTIjN15phymemspace_mgr14page_size1gb_tELj3ELj9EE10enable_idxEj
ffff80000401b572 W _ZN9Ktemplats33sparse_table_2level_no_OBJCONTENTIjN15phymemspace_mgr14page_size1gb_tELj3ELj9EE9sub_tableD1Ev
ffff80000401b572 W _ZN9Ktemplats33sparse_table_2level_no_OBJCONTENTIjN15phymemspace_mgr14page_size1gb_tELj3ELj9EE9sub_tableD2Ev
ffff80000401b594 W _ZN9Ktemplats33sparse_table_2level_no_OBJCONTENTIjN15phymemspace_mgr14page_size1gb_tELj3ELj9EE7releaseEj
ffff80000401b6e0 W _ZN15phymemspace_mgr14page_size1gb_tC1Ev
ffff80000401b6e0 W _ZN15phymemspace_mgr14page_size1gb_tC2Ev
ffff80000401b6f6 W _ZN9Ktemplats33sparse_table_2level_no_OBJCONTENTIjN15phymemspace_mgr14page_size1gb_tELj3ELj9EE9sub_tableC1Ev
ffff80000401b6f6 W _ZN9Ktemplats33sparse_table_2level_no_OBJCONTENTIjN15phymemspace_mgr14page_size1gb_tELj3ELj9EE9sub_tableC2Ev
ffff80000401b756 T _ZN15phymemspace_mgr16PHYSEG_LIST_ITEM7add_segERNS_6PHYSEGE
ffff80000401b9ac T _ZN15phymemspace_mgr16PHYSEG_LIST_ITEM7del_segEm
ffff80000401baf0 T _ZN15phymemspace_mgr16PHYSEG_LIST_ITEM17is_seg_have_coverEmm
ffff80000401bb7e T _ZN15phymemspace_mgr12low1mb_mgr_t17interval_LinkList10regist_segENS0_12low1mb_seg_tE
ffff80000401bdac T _ZN15phymemspace_mgr12low1mb_mgr_t17interval_LinkList7del_segEj
ffff80000401beea T _ZN15phymemspace_mgr12low1mb_mgr_t17interval_LinkList15get_seg_by_addrEj
ffff80000401bfa0 T _ZN15phymemspace_mgr12low1mb_mgr_t17interval_LinkList17is_seg_have_coverEmm
ffff80000401c054 T _ZN15phymemspace_mgr12low1mb_mgr_t10regist_segENS0_12low1mb_seg_tE
ffff80000401c090 T _ZN15phymemspace_mgr12low1mb_mgr_t7del_segEj
ffff80000401c0bc T _ZN15phymemspace_mgr12low1mb_mgr_t15get_seg_by_addrEj
ffff80000401c100 T _ZN15phymemspace_mgr12low1mb_mgr_t17is_seg_have_coverEmm
ffff80000401c136 T _ZN15phymemspace_mgr12low1mb_mgr_tC1Ev
ffff80000401c136 T _ZN15phymemspace_mgr12low1mb_mgr_tC2Ev
ffff80000401c142 W _ZN9Ktemplats11list_doublyIN15phymemspace_mgr6PHYSEGEE10push_frontERKS2_
ffff80000401c1dc W _ZN9Ktemplats11list_doublyIN15phymemspace_mgr6PHYSEGEE9push_backERKS2_
ffff80000401c278 W _ZN9Ktemplats11list_doublyIN15phymemspace_mgr6PHYSEGEE10alloc_nodeERKS2_
ffff80000401c362 W _ZN9Ktemplats11list_doublyIN15phymemspace_mgr6PHYSEGEE9pop_frontEv
ffff80000401c3f0 W _ZN9Ktemplats11list_doublyIN15phymemspace_mgr6PHYSEGEE8pop_backEv
ffff80000401c482 W _ZN9Ktemplats11list_doublyIN15phymemspace_mgr6PHYSEGEE9free_nodeEPNS3_4nodeE
ffff80000401c4bc W _ZN9Ktemplats11list_doublyIN15phymemspace_mgr12low1mb_mgr_t12low1mb_seg_tEE10push_frontERKS3_
ffff80000401c556 W _ZN9Ktemplats11list_doublyIN15phymemspace_mgr12low1mb_mgr_t12low1mb_seg_tEE9push_backERKS3_
ffff80000401c5f2 W _ZN9Ktemplats11list_doublyIN15phymemspace_mgr12low1mb_mgr_t12low1mb_seg_tEE10alloc_nodeERKS3_
ffff80000401c696 W _ZN9Ktemplats11list_doublyIN15phymemspace_mgr12low1mb_mgr_t12low1mb_seg_tEE9pop_frontEv
ffff80000401c724 W _ZN9Ktemplats11list_doublyIN15phymemspace_mgr12low1mb_mgr_t12low1mb_seg_tEE8pop_backEv
ffff80000401c7b6 t _ZL14idx_to_phyaddr16phyaddr_in_idx_t
ffff80000401c7fd t _ZL14phyaddr_to_idxm
ffff80000401c852 t _ZL12is_idx_equal16phyaddr_in_idx_tS_
ffff80000401c8aa T _ZN15phymemspace_mgr21align4kb_pages_searchERKNS_6PHYSEGERmm
ffff80000401dae0 T _ZN15phymemspace_mgr21align2mb_pages_searchERKNS_6PHYSEGERmm
ffff80000401e594 T _ZN15phymemspace_mgr21align1gb_pages_searchERKNS_6PHYSEGERmm
ffff80000401ea22 W _ZN16phyaddr_in_idx_tC1Ev
ffff80000401ea22 W _ZN16phyaddr_in_idx_tC2Ev
ffff80000401ea4c t _ZL10align_downmm
ffff80000401ea66 T _ZN15phymemspace_mgr20del_no_atomig_1GB_pgEm
ffff80000401ec02 T _ZN15phymemspace_mgr19phymemseg_to_pacageEmmRNS_27seg_to_pages_info_package_tE
ffff80000401ef2e t _ZZN15phymemspace_mgr11pages_allocEmNS_12page_state_tEhENKUlvE_clEv
ffff80000401ef74 T _ZN15phymemspace_mgr11pages_allocEmNS_12page_state_tEh
ffff80000401f48a T _ZN15phymemspace_mgr17pages_mmio_registEmm
ffff80000401f54a t _ZZN15phymemspace_mgr17blackhole_acclaimEmmNS_10seg_type_tENS_25blackhole_acclaim_flags_tEENKUlvE_clEv
ffff80000401f64a T _ZN15phymemspace_mgr17blackhole_acclaimEmmNS_10seg_type_tENS_25blackhole_acclaim_flags_tE
ffff80000401f7c6 T _ZN15phymemspace_mgr18blackhole_decclaimEm
ffff80000401fbd6 T _ZN15phymemspace_mgr16PHYSEG_LIST_ITEM15get_seg_by_baseEmRNS_6PHYSEGE
ffff80000401fcac W _ZN9Ktemplats11list_doublyIN15phymemspace_mgr6PHYSEGEE5beginEv
ffff80000401fcdc W _ZN9Ktemplats11list_doublyIN15phymemspace_mgr6PHYSEGEE8iteratordeEv
ffff80000401fcf2 W _ZN9Ktemplats11list_doublyIN15phymemspace_mgr6PHYSEGEE8iteratorppEv
ffff80000401fd1e W _ZN9Ktemplats11list_doublyIN15phymemspace_mgr6PHYSEGEE3endEv
ffff80000401fd48 W _ZNK9Ktemplats11list_doublyIN15phymemspace_mgr6PHYSEGEE8iteratorneERKS4_
ffff80000401fd6a W _ZN9Ktemplats11list_doublyIN15phymemspace_mgr6PHYSEGEE8iteratorC1EPNS3_4nodeE
ffff80000401fd6a W _ZN9Ktemplats11list_doublyIN15phymemspace_mgr6PHYSEGEE8iteratorC2EPNS3_4nodeE
ffff80000401fd84 T _ZN13kpoolmemmgr_t19find_hcb_by_addressEPv
ffff80000401fe18 T _ZN13kpoolmemmgr_t20enable_new_hcb_allocEv
ffff80000401fe2c t _ZL25handle_heap_obj_destroyedPKcPv
ffff80000401fef0 T _ZN13kpoolmemmgr_t24get_current_heap_complexEv
ffff80000401ff08 T _ZN13kpoolmemmgr_t6kallocEm13alloc_flags_t
ffff80000402028a T _ZN13kpoolmemmgr_t7reallocEPvm13alloc_flags_t
ffff8000040205a0 T _ZN13kpoolmemmgr_t5clearEPv
ffff80000402068a T _ZN13kpoolmemmgr_t4InitEv
ffff8000040206b6 T _ZN13kpoolmemmgr_t14self_heap_initEv
ffff800004020808 T _ZN13kpoolmemmgr_t5kfreeEPv
ffff8000040209a8 T _ZN13kpoolmemmgr_t7get_phyEm
ffff800004020a66 T _ZN13kpoolmemmgr_t8get_virtEm
ffff800004020b24 T _ZN13kpoolmemmgr_tC1Ev
ffff800004020b24 T _ZN13kpoolmemmgr_tC2Ev
ffff800004020b30 T _ZN13kpoolmemmgr_tD1Ev
ffff800004020b30 T _ZN13kpoolmemmgr_tD2Ev
ffff800004020b3b t _Z41__static_initialization_and_destruction_0v
ffff800004020b5b t _Z41__static_initialization_and_destruction_1v
ffff800004020b7b t _GLOBAL__sub_I__ZN13kpoolmemmgr_t24is_able_to_alloc_new_hcbE
ffff800004020b8d t _GLOBAL__sub_D__ZN13kpoolmemmgr_t24is_able_to_alloc_new_hcbE
ffff800004020ba0 T _ZN13kpoolmemmgr_t6HCB_v2C1Ev
ffff800004020ba0 T _ZN13kpoolmemmgr_t6HCB_v2C2Ev
ffff800004020bd0 T _ZN13kpoolmemmgr_t6HCB_v210HCB_bitmap4InitEv
ffff800004020c7e T _ZN13kpoolmemmgr_t6HCB_v210HCB_bitmap17second_stage_InitEj
ffff800004020d6a T _ZN13kpoolmemmgr_t6HCB_v210HCB_bitmapC1Ev
ffff800004020d6a T _ZN13kpoolmemmgr_t6HCB_v210HCB_bitmapC2Ev
ffff800004020d8c T _ZN13kpoolmemmgr_t6HCB_v210HCB_bitmapD1Ev
ffff800004020d8c T _ZN13kpoolmemmgr_t6HCB_v210HCB_bitmapD2Ev
ffff800004020e5c t _ZZN13kpoolmemmgr_t6HCB_v210HCB_bitmap48continual_avaliable_u64s_search_higher_alignmentEmmRmENKUlmE_clEm
ffff800004020eb4 T _ZN13kpoolmemmgr_t6HCB_v210HCB_bitmap48continual_avaliable_u64s_search_higher_alignmentEmmRm
ffff800004021058 T _ZN13kpoolmemmgr_t6HCB_v210HCB_bitmap27target_bit_seg_is_avaliableEmm
ffff8000040212b0 T _ZN13kpoolmemmgr_t6HCB_v210HCB_bitmap11bit_seg_setEmmb
ffff80000402143c T _ZN13kpoolmemmgr_t6HCB_v222first_linekd_heap_InitEv
ffff8000040214c0 T _ZN13kpoolmemmgr_t6HCB_v2C1Ej
ffff8000040214c0 T _ZN13kpoolmemmgr_t6HCB_v2C2Ej
ffff800004021508 T _ZN13kpoolmemmgr_t6HCB_v217second_stage_InitEv
ffff800004021624 T _ZN13kpoolmemmgr_t6HCB_v2D1Ev
ffff800004021624 T _ZN13kpoolmemmgr_t6HCB_v2D2Ev
ffff8000040216ea T _ZN13kpoolmemmgr_t6HCB_v25clearEPv
ffff80000402175e T _ZN13kpoolmemmgr_t6HCB_v213in_heap_allocERPvj13alloc_flags_t
ffff800004021f68 T _ZN13kpoolmemmgr_t6HCB_v24freeEPv
ffff800004022190 T _ZN13kpoolmemmgr_t6HCB_v215in_heap_reallocERPvj13alloc_flags_t
ffff8000040226a0 T _ZN13kpoolmemmgr_t6HCB_v220get_used_bytes_countEv
ffff8000040226b6 T _ZN13kpoolmemmgr_t6HCB_v27is_fullEv
ffff800004022712 T _ZN13kpoolmemmgr_t6HCB_v216count_used_bytesEv
ffff800004022738 T _ZN13kpoolmemmgr_t6HCB_v226is_addr_belong_to_this_hcbEPv
ffff80000402280e T _ZN13kpoolmemmgr_t6HCB_v211tran_to_phyEPv
ffff80000402289c T _ZN13kpoolmemmgr_t6HCB_v212tran_to_virtEm
ffff80000402292a T _ZN13kpoolmemmgr_t6HCB_v223get_belonged_cpu_apicidEv
ffff80000402293a T _ZN12AddressSpaceC1Ev
ffff80000402293a T _ZN12AddressSpaceC2Ev
ffff800004022960 t _ZL10align_downmm
ffff80000402297a t _ZZN12AddressSpace14enable_VM_descE7VM_DESCENKUlR19PageTableEntryUnion18PageTableEntryTypeE_clES2_S3_
ffff800004022b18 t _ZZN12AddressSpace14enable_VM_descE7VM_DESCENKUlmmtE_clEmmt
ffff800004023012 t _ZZN12AddressSpace14enable_VM_descE7VM_DESCENKUlmmtE0_clEmmt
ffff800004023392 t _ZZN12AddressSpace14enable_VM_descE7VM_DESCENKUlmmmE_clEmmm
ffff8000040236b0 t _ZZZN12AddressSpace14enable_VM_descE7VM_DESCENKUlR26seg_to_pages_info_pakage_tE_clES2_ENKUlmmE_clEmm
ffff8000040239d4 t _ZZN12AddressSpace14enable_VM_descE7VM_DESCENKUlR26seg_to_pages_info_pakage_tE_clES2_
ffff800004023c2a t _ZZN12AddressSpace14enable_VM_descE7VM_DESCENKUlmmE_clEmm
ffff800004023c50 T _ZN12AddressSpace14enable_VM_descE7VM_DESC
ffff8000040240f2 t _ZZN12AddressSpace15disable_VM_descE7VM_DESCENKUlmmtE_clEmmt
ffff8000040245b0 t _ZZN12AddressSpace15disable_VM_descE7VM_DESCENKUlmmtE0_clEmmt
ffff8000040249de t _ZZN12AddressSpace15disable_VM_descE7VM_DESCENKUlmmmE_clEmmm
ffff800004024cc8 t _ZZZN12AddressSpace15disable_VM_descE7VM_DESCENKUlR26seg_to_pages_info_pakage_tE_clES2_ENKUlmmE_clEmm
ffff800004024fec t _ZZN12AddressSpace15disable_VM_descE7VM_DESCENKUlR26seg_to_pages_info_pakage_tE_clES2_
ffff800004025242 t _ZZN12AddressSpace15disable_VM_descE7VM_DESCENKUlmmE_clEmm
ffff800004025268 T _ZN12AddressSpace15disable_VM_descE7VM_DESC
ffff8000040256da T _ZN12AddressSpace14vaddr_to_paddrEm
ffff8000040259d2 T _ZN12AddressSpace23unsafe_load_pml4_to_cr3Et
ffff800004025a02 T _ZN12AddressSpaceD1Ev
ffff800004025a02 T _ZN12AddressSpaceD2Ev
ffff800004025a40 T _ZN12AddressSpace17second_stage_initEv
ffff800004025be8 T _ZN12AddressSpace39build_identity_map_ONLY_IN_gKERNELSPACEEv
ffff800004025cbc t _ZL10align_downmm
ffff800004025cd5 T _Z21cache_strategy_to_idx16cache_strategy_t
ffff800004025d6a T _ZN12KspaceMapMgr18VM_search_by_vaddrEmR7VM_DESC
ffff800004025e1a T _ZN12KspaceMapMgr6VM_addE7VM_DESC
ffff800004025e8e T _ZN12KspaceMapMgr6VM_delEP7VM_DESC
ffff800004025ee6 t _ZZZN12KspaceMapMgr14enable_VMentryER7VM_DESCENKUlvE_clEvENKUlvE_clEv
ffff800004025fb4 t _ZZN12KspaceMapMgr14enable_VMentryER7VM_DESCENKUlvE_clEv
ffff800004026068 T _ZN12KspaceMapMgr14enable_VMentryER7VM_DESC
ffff800004026338 T _ZN12KspaceMapMgr10pgs_remappEmm8pgaccessmb
ffff8000040266a2 T _ZN12KspaceMapMgr21seg_to_pages_info_getER26seg_to_pages_info_pakage_t7VM_DESC
ffff800004026acc T _ZN12KspaceMapMgr15disable_VMentryER7VM_DESC
ffff800004026cde T _ZN12KspaceMapMgr22v_to_phyaddrtraslationEmRm
ffff800004026dc0 T _Z12VM_vaddr_cmpP7VM_DESCS0_
ffff800004026e30 t _ZZN12KspaceMapMgr17kspace_vm_table_t21alloc_available_spaceEmjENKUlvE_clEv
ffff800004026ef4 t _ZZN12KspaceMapMgr17kspace_vm_table_t21alloc_available_spaceEmjENKUlmE_clEm
ffff800004026fd4 T _ZN12KspaceMapMgr17kspace_vm_table_t21alloc_available_spaceEmj
ffff80000402717d t _Z41__static_initialization_and_destruction_0v
ffff80000402719d t _GLOBAL__sub_I__ZN12KspaceMapMgr15kspace_vm_tableE
ffff8000040271b0 T _ZN12KspaceMapMgr4InitEv
ffff8000040274c9 T _Z26nonleaf_pgtbentry_flagssetR19PageTableEntryUnion
ffff800004027504 T _ZN12KspaceMapMgr24_4lv_pte_4KB_entries_setEmmt8pgaccess
ffff8000040279b0 T _ZN12KspaceMapMgr14invalidate_segEv
ffff800004027ba2 T _ZN12KspaceMapMgr24_4lv_pde_2MB_entries_setEmmt8pgaccess
ffff800004027f8a T _ZN12KspaceMapMgr26_4lv_pdpte_1GB_entries_setEmmt8pgaccess
ffff800004028246 T _ZN12KspaceMapMgr17pgs_remapped_freeEm
ffff80000402837e T _ZN12KspaceMapMgr20invalidate_tlb_entryEv
ffff8000040284fa T _ZN12KspaceMapMgr26_4lv_pte_4KB_entries_clearEmt
ffff8000040287d0 T _ZN12KspaceMapMgr28_4lv_pdpte_1GB_entries_clearEmt
ffff80000402890e T _ZN12KspaceMapMgr25enable_DEFAULT_PAT_CONFIGEv
ffff800004028930 T _ZN12KspaceMapMgr26_4lv_pde_2MB_entries_clearEmt
ffff800004028bd8 T _ZN12KspaceMapMgr28v_to_phyaddrtraslation_entryEmR19PageTableEntryUnionRj
ffff800004028dde W _ZN12KspaceMapMgr17kspace_vm_table_tC1Ev
ffff800004028dde W _ZN12KspaceMapMgr17kspace_vm_table_tC2Ev
ffff800004028e0d T _Z20__wrapped_pgs_vallocmN15phymemspace_mgr12page_state_tEh
ffff800004028eaf T _Z18__wrapped_pgs_freePvm
ffff800004028f0e T _Z20__wrapped_heap_allocm13alloc_flags_t
ffff800004028f71 T _Z19__wrapped_heap_freePv
ffff800004028f93 T _Z22__wrapped_heap_reallocPvm13alloc_flags_t
ffff800004028ffe T _Znwm
ffff80000402904d T _Znwm13alloc_flags_t
ffff8000040290b0 T _Znam
ffff8000040290ff T _Znam13alloc_flags_t
ffff800004029162 T _Znambh
ffff8000040291bd T _ZdlPv
ffff8000040291df T _ZdlPvm
ffff8000040291ee T _ZdaPv
ffff800004029210 T _ZdaPvm
ffff80000402921f T _ZnwmPv
ffff800004029231 T _ZnamPv
ffff800004029244 T _ZN15PhyAddrAccessor11is_init_cr3Ev
ffff80000402926e T _ZN15PhyAddrAccessor6readu8Em
ffff8000040292d0 T _ZN15PhyAddrAccessor7readu16Em
ffff800004029332 T _ZN15PhyAddrAccessor7readu32Em
ffff800004029392 T _ZN15PhyAddrAccessor7readu64Em
ffff8000040293f4 T _ZN15PhyAddrAccessor7writeu8Emh
ffff80000402945e T _ZN15PhyAddrAccessor8writeu16Emt
ffff8000040294ca T _ZN15PhyAddrAccessor8writeu32Emj
ffff800004029530 T _ZN15PhyAddrAccessor8writeu64Emm
ffff80000402959a T efi_call0
ffff8000040295a5 T efi_call1
ffff8000040295b3 T efi_call2
ffff8000040295c1 T efi_call3
ffff8000040295d2 T efi_call4
ffff8000040295e6 T efi_call5
ffff8000040295ff T efi_call6
ffff800004029622 T efi_call7
ffff80000402964f T efi_call8
ffff800004029686 T efi_call9
ffff8000040296c7 T efi_call10
ffff80000402a000 D _data_start
ffff80000402a000 D __stack_chk_guard
ffff80000402a000 T text_end
ffff80000402a008 D _ZN18KernelPanicManager13shutdownDelayE
ffff80000402a00c D pglv_4_or_5
ffff80000402a010 D _ZN15PhyAddrAccessor14init_pgtb_rootE
ffff80000402a080 D global_gST
ffff80000402a088 D _ZN10EFI_RT_SVS3gSTE
ffff80000402a090 D _ZN10EFI_RT_SVS12reset_systemE
ffff80000402a098 D _ZN10EFI_RT_SVS8get_timeE
ffff80000402a0a0 D _ZN10EFI_RT_SVS8set_timeE
ffff80000402a0a8 D _ZN10EFI_RT_SVS15get_wakeup_timeE
ffff80000402a0b0 D _ZN10EFI_RT_SVS15set_wakeup_timeE
ffff80000402a0b8 D _ZN10EFI_RT_SVS23set_virtual_address_mapE
ffff80000402a0c0 D _ZN10EFI_RT_SVS15convert_pointerE
ffff80000402a0d0 D __dso_handle
ffff80000402a0e0 D global_time
ffff80000402a0f0 D efi_map_ver
ffff80000402a100 D gkcirclebufflogMgr
ffff80000402a118 D _ZN5xapic11apic_driver13lapic_phyaddrE
ffff80000402a120 D _ZN5xapic11apic_driver14lapic_virtaddrE
ffff80000402a128 D global_ipi_handler
ffff80000402a140 D ap_hlt_word
ffff80000402a160 D _ZN28x86_smp_processors_container35local_processor_interrupt_mgr_arrayE
ffff800004032160 D template_idt
ffff800004033160 D gAnalyzer
ffff800004033168 D readonly_timer
ffff800004033170 D _ZN4time9bsp_tokenE
ffff800004033178 D _ZN4time13hardware_time15is_tsc_reliableE
ffff80000403317c D _ZN4time13hardware_time16tsc_fs_per_cycleE
ffff800004033180 D _ZN4time13hardware_time19is_hpet_initializedE
ffff800004033188 D _ZN11ksymmanager7phybaseE
ffff800004033190 D _ZN11ksymmanager8virtbaseE
ffff800004033198 D _ZN11ksymmanager12symbol_tableE
ffff8000040331a0 D _ZN11ksymmanager11entry_countE
ffff8000040331a4 D _ZN11ksymmanager10entry_sizeE
ffff8000040331c0 D gAcpiVaddrSapceMgr
ffff800004033340 D GlobalKernelShellInputBuffer
ffff800004034340 D GlobalKernelShellOutputBuffer
ffff800004035340 D GlobalCharacterSetBitmapControler
ffff800004035370 D SingleCharacterRenderedPicture
ffff800004035380 D GlobalBasicGraphicInfo
ffff8000040353a0 D KernelShellController
ffff800004035400 D _ZN3kio8bsp_koutE
ffff800004035498 D _ZN3kio5kendlE
ffff800004035499 D _ZN3kio3nowE
ffff8000040354a0 D tmp_uart_buffer
ffff800004035500 D gBaseMemMgr
ffff80000403b520 D _ZN15phymemspace_mgr10statisitcsE
ffff80000403b570 D _ZN15phymemspace_mgr11physeg_listE
ffff80000403b578 D _ZN15phymemspace_mgr18module_global_lockE
ffff80000403b580 D _ZN15phymemspace_mgr13top_1gb_tableE
ffff80000403b588 D _ZN15phymemspace_mgr10low1mb_mgrE
ffff80000403b590 D _ZN15phymemspace_mgr12low1mb_mgr_t15low1mb_seg_listE
ffff80000403b5c0 D _ZN13kpoolmemmgr_t24is_able_to_alloc_new_hcbE
ffff80000403b5e0 D _ZN13kpoolmemmgr_t17first_linekd_heapE
ffff80000403b630 D gKernelSpace
ffff80000403b638 D _ZN12KspaceMapMgr15kspace_vm_tableE
ffff80000403b640 D _ZN12KspaceMapMgr6GMlockE
ffff80000403b648 D _ZN12KspaceMapMgr21kspace_uppdpt_phyaddrE
ffff80000403b660 D shared_inval_kspace_VMentry_info
ffff80000403b708 D _ZN12KspaceMapMgr29is_default_pat_config_enabledE
ffff80000403b720 D _ZN15PhyAddrAccessor10BASIC_DESCE
ffff80000403b760 D _ZN15PhyAddrAccessor8cache_tbE
ffff80000403c000 D _data_end
ffff80000403c000 R _rodata_start
ffff80000403c000 r _ZL15PAGE_SIZE_IN_LV
ffff80000403c040 r _ZL16PAGE_OFFSET_MASK
ffff80000403c068 r _ZL17Max_huge_pg_index
ffff80000403c070 r _ZN22lineaddr_index_filtersL17PT_INDEX_MASK_lv0E
ffff80000403c078 r _ZN22lineaddr_index_filtersL17PD_INDEX_MASK_lv1E
ffff80000403c080 r _ZN22lineaddr_index_filtersL19PDPT_INDEX_MASK_lv2E
ffff80000403c088 r _ZN22lineaddr_index_filtersL19PML4_INDEX_MASK_lv3E
ffff80000403c090 r _ZN22lineaddr_index_filtersL19PML5_INDEX_MASK_lv4E
ffff80000403c098 r _ZL15PHYS_ADDR_WIDTH
ffff80000403c0a0 r _ZL14PHYS_ADDR_MASK
ffff80000403c0a8 r _ZN14PageTableEntryL5P_BITE
ffff80000403c0b0 r _ZN14PageTableEntryL6RW_BITE
ffff80000403c0b8 r _ZN14PageTableEntryL6US_BITE
ffff80000403c0c0 r _ZN14PageTableEntryL7PWT_BITE
ffff80000403c0c8 r _ZN14PageTableEntryL7PCD_BITE
ffff80000403c0d0 r _ZN14PageTableEntryL5A_BITE
ffff80000403c0d8 r _ZN14PageTableEntryL6XD_BITE
ffff80000403c0e0 r _ZN14PageTableEntryL6P_MASKE
ffff80000403c0e8 r _ZN14PageTableEntryL7RW_MASKE
ffff80000403c0f0 r _ZN14PageTableEntryL7US_MASKE
ffff80000403c0f8 r _ZN14PageTableEntryL8PWT_MASKE
ffff80000403c100 r _ZN14PageTableEntryL8PCD_MASKE
ffff80000403c108 r _ZN14PageTableEntryL6A_MASKE
ffff80000403c110 r _ZN14PageTableEntryL7XD_MASKE
ffff80000403c118 r _ZN5PML5EL5R_BITE
ffff80000403c120 r _ZN5PML5EL6PS_BITE
ffff80000403c128 r _ZN5PML5EL6R_MASKE
ffff80000403c130 r _ZN5PML5EL7PS_MASKE
ffff80000403c138 r _ZN5PML5EL11ADDR_OFFSETE
ffff80000403c140 r _ZN5PML5EL9ADDR_BITSE
ffff80000403c148 r _ZN5PML5EL9ADDR_MASKE
ffff80000403c150 r _ZN5PML4EL5R_BITE
ffff80000403c158 r _ZN5PML4EL6PS_BITE
ffff80000403c160 r _ZN5PML4EL6R_MASKE
ffff80000403c168 r _ZN5PML4EL7PS_MASKE
ffff80000403c170 r _ZN5PML4EL11ADDR_OFFSETE
ffff80000403c178 r _ZN5PML4EL9ADDR_BITSE
ffff80000403c180 r _ZN5PML4EL9ADDR_MASKE
ffff80000403c188 r _ZN5PDPTEL5D_BITE
ffff80000403c190 r _ZN5PDPTEL6PS_BITE
ffff80000403c198 r _ZN5PDPTEL5G_BITE
ffff80000403c1a0 r _ZN5PDPTEL5R_BITE
ffff80000403c1a8 r _ZN5PDPTEL7PAT_BITE
ffff80000403c1b0 r _ZN5PDPTEL7PK_BITSE
ffff80000403c1b8 r _ZN5PDPTEL6D_MASKE
ffff80000403c1c0 r _ZN5PDPTEL7PS_MASKE
ffff80000403c1c8 r _ZN5PDPTEL6G_MASKE
ffff80000403c1d0 r _ZN5PDPTEL6R_MASKE
ffff80000403c1d8 r _ZN5PDPTEL8PAT_MASKE
ffff80000403c1e0 r _ZN5PDPTEL7PK_MASKE
ffff80000403c1e8 r _ZN5PDPTEL14ADDR_PD_OFFSETE
ffff80000403c1f0 r _ZN5PDPTEL12ADDR_PD_BITSE
ffff80000403c1f8 r _ZN5PDPTEL12ADDR_PD_MASKE
ffff80000403c200 r _ZN5PDPTEL15ADDR_1GB_OFFSETE
ffff80000403c208 r _ZN5PDPTEL13ADDR_1GB_BITSE
ffff80000403c210 r _ZN5PDPTEL13ADDR_1GB_MASKE
ffff80000403c218 r _ZN3PDEL5D_BITE
ffff80000403c220 r _ZN3PDEL6PS_BITE
ffff80000403c228 r _ZN3PDEL5G_BITE
ffff80000403c230 r _ZN3PDEL5R_BITE
ffff80000403c238 r _ZN3PDEL7PAT_BITE
ffff80000403c240 r _ZN3PDEL7PK_BITSE
ffff80000403c248 r _ZN3PDEL6D_MASKE
ffff80000403c250 r _ZN3PDEL7PS_MASKE
ffff80000403c258 r _ZN3PDEL6G_MASKE
ffff80000403c260 r _ZN3PDEL6R_MASKE
ffff80000403c268 r _ZN3PDEL8PAT_MASKE
ffff80000403c270 r _ZN3PDEL7PK_MASKE
ffff80000403c278 r _ZN3PDEL14ADDR_PT_OFFSETE
ffff80000403c280 r _ZN3PDEL12ADDR_PT_BITSE
ffff80000403c288 r _ZN3PDEL12ADDR_PT_MASKE
ffff80000403c290 r _ZN3PDEL15ADDR_2MB_OFFSETE
ffff80000403c298 r _ZN3PDEL13ADDR_2MB_BITSE
ffff80000403c2a0 r _ZN3PDEL13ADDR_2MB_MASKE
ffff80000403c2a8 r _ZN3PTEL5D_BITE
ffff80000403c2b0 r _ZN3PTEL7PAT_BITE
ffff80000403c2b8 r _ZN3PTEL5G_BITE
ffff80000403c2c0 r _ZN3PTEL5R_BITE
ffff80000403c2c8 r _ZN3PTEL7PK_BITSE
ffff80000403c2d0 r _ZN3PTEL6D_MASKE
ffff80000403c2d8 r _ZN3PTEL8PAT_MASKE
ffff80000403c2e0 r _ZN3PTEL6G_MASKE
ffff80000403c2e8 r _ZN3PTEL6R_MASKE
ffff80000403c2f0 r _ZN3PTEL7PK_MASKE
ffff80000403c2f8 r _ZN3PTEL11ADDR_OFFSETE
ffff80000403c300 r _ZN3PTEL9ADDR_BITSE
ffff80000403c308 r _ZN3PTEL9ADDR_MASKE
ffff80000403c310 r _ZL13ENTRY_PRESENT
ffff80000403c311 r _ZL17ENTRY_PRESENT_NOT
ffff80000403c312 r _ZL17RWBIT_WRITE_ALLOW
ffff80000403c313 r _ZL21RWBIT_WRITE_ALLOW_NOT
ffff80000403c314 r _ZL16KERNE_BIT_KERNEL
ffff80000403c315 r _ZL20KERNE_BIT_KERNEL_NOT
ffff80000403c316 r _ZL17XD_BIT_EXECUTABLE
ffff80000403c317 r _ZL21XD_BIT_EXECUTABLE_NOT
ffff80000403c318 r _ZN11devices_idsL17DEVICE_ID_UNKNOWNE
ffff80000403c320 r _ZN11devices_idsL17IO_APIC_DEVICE_IDE
ffff80000403c328 r _ZL25MAX_PHYADDR_1GB_PGS_COUNT
ffff80000403c330 r _ZN13PAGE_TBALE_LVL4LV_4E
ffff80000403c331 r _ZN13PAGE_TBALE_LVL4LV_5E
ffff80000403c332 r _ZL17KERNEL_SPACE_PCID
ffff80000403c334 r _ZL16KSPACE_RW_ACCESS
ffff80000403c338 r _ZL18DESC_SMALL_SEG_MAX
ffff80000403c340 r _ZL18DEFAULT_PAT_CONFIG
ffff80000403c348 u _ZN12KspaceMapMgr6PG_RWXE
ffff80000403c360 r _ZL15PAGE_SIZE_IN_LV
ffff80000403c3a0 r _ZL16PAGE_OFFSET_MASK
ffff80000403c3c8 r _ZL17Max_huge_pg_index
ffff80000403c3d0 r _ZN22lineaddr_index_filtersL17PT_INDEX_MASK_lv0E
ffff80000403c3d8 r _ZN22lineaddr_index_filtersL17PD_INDEX_MASK_lv1E
ffff80000403c3e0 r _ZN22lineaddr_index_filtersL19PDPT_INDEX_MASK_lv2E
ffff80000403c3e8 r _ZN22lineaddr_index_filtersL19PML4_INDEX_MASK_lv3E
ffff80000403c3f0 r _ZN22lineaddr_index_filtersL19PML5_INDEX_MASK_lv4E
ffff80000403c3f8 r _ZL15PHYS_ADDR_WIDTH
ffff80000403c400 r _ZL14PHYS_ADDR_MASK
ffff80000403c408 r _ZN14PageTableEntryL5P_BITE
ffff80000403c410 r _ZN14PageTableEntryL6RW_BITE
ffff80000403c418 r _ZN14PageTableEntryL6US_BITE
ffff80000403c420 r _ZN14PageTableEntryL7PWT_BITE
ffff80000403c428 r _ZN14PageTableEntryL7PCD_BITE
ffff80000403c430 r _ZN14PageTableEntryL5A_BITE
ffff80000403c438 r _ZN14PageTableEntryL6XD_BITE
ffff80000403c440 r _ZN14PageTableEntryL6P_MASKE
ffff80000403c448 r _ZN14PageTableEntryL7RW_MASKE
ffff80000403c450 r _ZN14PageTableEntryL7US_MASKE
ffff80000403c458 r _ZN14PageTableEntryL8PWT_MASKE
ffff80000403c460 r _ZN14PageTableEntryL8PCD_MASKE
ffff80000403c468 r _ZN14PageTableEntryL6A_MASKE
ffff80000403c470 r _ZN14PageTableEntryL7XD_MASKE
ffff80000403c478 r _ZN5PML5EL5R_BITE
ffff80000403c480 r _ZN5PML5EL6PS_BITE
ffff80000403c488 r _ZN5PML5EL6R_MASKE
ffff80000403c490 r _ZN5PML5EL7PS_MASKE
ffff80000403c498 r _ZN5PML5EL11ADDR_OFFSETE
ffff80000403c4a0 r _ZN5PML5EL9ADDR_BITSE
ffff80000403c4a8 r _ZN5PML5EL9ADDR_MASKE
ffff80000403c4b0 r _ZN5PML4EL5R_BITE
ffff80000403c4b8 r _ZN5PML4EL6PS_BITE
ffff80000403c4c0 r _ZN5PML4EL6R_MASKE
ffff80000403c4c8 r _ZN5PML4EL7PS_MASKE
ffff80000403c4d0 r _ZN5PML4EL11ADDR_OFFSETE
ffff80000403c4d8 r _ZN5PML4EL9ADDR_BITSE
ffff80000403c4e0 r _ZN5PML4EL9ADDR_MASKE
ffff80000403c4e8 r _ZN5PDPTEL5D_BITE
ffff80000403c4f0 r _ZN5PDPTEL6PS_BITE
ffff80000403c4f8 r _ZN5PDPTEL5G_BITE
ffff80000403c500 r _ZN5PDPTEL5R_BITE
ffff80000403c508 r _ZN5PDPTEL7PAT_BITE
ffff80000403c510 r _ZN5PDPTEL7PK_BITSE
ffff80000403c518 r _ZN5PDPTEL6D_MASKE
ffff80000403c520 r _ZN5PDPTEL7PS_MASKE
ffff80000403c528 r _ZN5PDPTEL6G_MASKE
ffff80000403c530 r _ZN5PDPTEL6R_MASKE
ffff80000403c538 r _ZN5PDPTEL8PAT_MASKE
ffff80000403c540 r _ZN5PDPTEL7PK_MASKE
ffff80000403c548 r _ZN5PDPTEL14ADDR_PD_OFFSETE
ffff80000403c550 r _ZN5PDPTEL12ADDR_PD_BITSE
ffff80000403c558 r _ZN5PDPTEL12ADDR_PD_MASKE
ffff80000403c560 r _ZN5PDPTEL15ADDR_1GB_OFFSETE
ffff80000403c568 r _ZN5PDPTEL13ADDR_1GB_BITSE
ffff80000403c570 r _ZN5PDPTEL13ADDR_1GB_MASKE
ffff80000403c578 r _ZN3PDEL5D_BITE
ffff80000403c580 r _ZN3PDEL6PS_BITE
ffff80000403c588 r _ZN3PDEL5G_BITE
ffff80000403c590 r _ZN3PDEL5R_BITE
ffff80000403c598 r _ZN3PDEL7PAT_BITE
ffff80000403c5a0 r _ZN3PDEL7PK_BITSE
ffff80000403c5a8 r _ZN3PDEL6D_MASKE
ffff80000403c5b0 r _ZN3PDEL7PS_MASKE
ffff80000403c5b8 r _ZN3PDEL6G_MASKE
ffff80000403c5c0 r _ZN3PDEL6R_MASKE
ffff80000403c5c8 r _ZN3PDEL8PAT_MASKE
ffff80000403c5d0 r _ZN3PDEL7PK_MASKE
ffff80000403c5d8 r _ZN3PDEL14ADDR_PT_OFFSETE
ffff80000403c5e0 r _ZN3PDEL12ADDR_PT_BITSE
ffff80000403c5e8 r _ZN3PDEL12ADDR_PT_MASKE
ffff80000403c5f0 r _ZN3PDEL15ADDR_2MB_OFFSETE
ffff80000403c5f8 r _ZN3PDEL13ADDR_2MB_BITSE
ffff80000403c600 r _ZN3PDEL13ADDR_2MB_MASKE
ffff80000403c608 r _ZN3PTEL5D_BITE
ffff80000403c610 r _ZN3PTEL7PAT_BITE
ffff80000403c618 r _ZN3PTEL5G_BITE
ffff80000403c620 r _ZN3PTEL5R_BITE
ffff80000403c628 r _ZN3PTEL7PK_BITSE
ffff80000403c630 r _ZN3PTEL6D_MASKE
ffff80000403c638 r _ZN3PTEL8PAT_MASKE
ffff80000403c640 r _ZN3PTEL6G_MASKE
ffff80000403c648 r _ZN3PTEL6R_MASKE
ffff80000403c650 r _ZN3PTEL7PK_MASKE
ffff80000403c658 r _ZN3PTEL11ADDR_OFFSETE
ffff80000403c660 r _ZN3PTEL9ADDR_BITSE
ffff80000403c668 r _ZN3PTEL9ADDR_MASKE
ffff80000403c670 r _ZL13ENTRY_PRESENT
ffff80000403c671 r _ZL17ENTRY_PRESENT_NOT
ffff80000403c672 r _ZL17RWBIT_WRITE_ALLOW
ffff80000403c673 r _ZL21RWBIT_WRITE_ALLOW_NOT
ffff80000403c674 r _ZL16KERNE_BIT_KERNEL
ffff80000403c675 r _ZL20KERNE_BIT_KERNEL_NOT
ffff80000403c676 r _ZL17XD_BIT_EXECUTABLE
ffff80000403c677 r _ZL21XD_BIT_EXECUTABLE_NOT
ffff80000403c678 r _ZN11devices_idsL17DEVICE_ID_UNKNOWNE
ffff80000403c680 r _ZN11devices_idsL17IO_APIC_DEVICE_IDE
ffff80000403c688 r _ZL25MAX_PHYADDR_1GB_PGS_COUNT
ffff80000403c6a0 r _ZL13ter16x32_data
ffff8000040406a0 r _ZN4HPET4regsL34offset_General_Capabilities_and_IDE
ffff8000040406a4 r _ZN4HPET4regsL21offset_General_ConfigE
ffff8000040406a8 r _ZN4HPET4regsL20genral_status_offsetE
ffff8000040406ac r _ZN4HPET4regsL25offset_main_counter_valueE
ffff8000040406b0 r _ZN4HPET4regsL44offset_Timer0_Configuration_and_CapabilitiesE
ffff8000040406b4 r _ZN4HPET4regsL14size_per_timerE
ffff8000040406b8 r _ZN4HPET4regsL28COMPARATOR_COUNT_LEFT_OFFSETE
ffff8000040406b9 r _ZN4HPET4regsL21COMPARATOR_COUNT_MASKE
ffff8000040406ba r _ZN4HPET4regsL30COUNTER_CLK_PERIOD_LEFT_OFFSETE
ffff8000040406bc r _ZN4HPET4regsL26COUNTER_CLK_PERIOD_FS_MASKE
ffff8000040406c0 r _ZN4HPET4regsL18GCONFIG_ENABLE_BITE
ffff8000040406c8 r _ZN4HPET4regsL18Tn_INT_ENB_CNF_BITE
ffff8000040406d0 r _ZN4HPET10error_codeL8NO_ERRORE
ffff8000040406d4 r _ZN4HPET10error_codeL23ERROR_INVALID_ACPI_ADDRE
ffff8000040406d8 r _ZN4HPET10error_codeL25ERROR_ACPI_ADDR_NOT_ALIGNE
ffff8000040406dc r _ZN4HPET10error_codeL18ERROR_INVALID_SIZEE
ffff8000040406e0 r _ZN4HPET10error_codeL20ERROR_INVALID_HANDLEE
ffff8000040406e4 r _ZN4HPET10error_codeL23ERROR_INVALID_OPERATIONE
ffff8000040406e8 r _ZN4HPET10error_codeL19ERROR_INVALID_STATEE
ffff8000040406ec r _ZN4ivecL12DIVIDE_ERRORE
ffff8000040406ed r _ZN4ivecL5DEBUGE
ffff8000040406ee r _ZN4ivecL3NMIE
ffff8000040406ef r _ZN4ivecL10BREAKPOINTE
ffff8000040406f0 r _ZN4ivecL8OVERFLOWE
ffff8000040406f1 r _ZN4ivecL20BOUND_RANGE_EXCEEDEDE
ffff8000040406f2 r _ZN4ivecL14INVALID_OPCODEE
ffff8000040406f3 r _ZN4ivecL20DEVICE_NOT_AVAILABLEE
ffff8000040406f4 r _ZN4ivecL12DOUBLE_FAULTE
ffff8000040406f5 r _ZN4ivecL27COPROCESSOR_SEGMENT_OVERRUNE
ffff8000040406f6 r _ZN4ivecL11INVALID_TSSE
ffff8000040406f7 r _ZN4ivecL19SEGMENT_NOT_PRESENTE
ffff8000040406f8 r _ZN4ivecL19STACK_SEGMENT_FAULTE
ffff8000040406f9 r _ZN4ivecL24GENERAL_PROTECTION_FAULTE
ffff8000040406fa r _ZN4ivecL10PAGE_FAULTE
ffff8000040406fb r _ZN4ivecL13X87_FPU_ERRORE
ffff8000040406fc r _ZN4ivecL15ALIGNMENT_CHECKE
ffff8000040406fd r _ZN4ivecL13MACHINE_CHECKE
ffff8000040406fe r _ZN4ivecL29SIMD_FLOATING_POINT_EXCEPTIONE
ffff8000040406ff r _ZN4ivecL24VIRTUALIZATION_EXCEPTIONE
ffff800004040700 r _ZN4ivecL28CONTROL_PROTECTION_EXCEPTIONE
ffff800004040701 r _ZN4ivecL11LAPIC_TIMERE
ffff800004040702 r _ZN4ivecL3IPIE
ffff800004040703 r _ZN4ivecL21TOP_FOR_TEMPLATE_VECSE
ffff800004040704 r _ZL34interrupt_context_specify_no_magic
ffff800004040708 r _ZL31interrupt_context_specify_magic
ffff80000404070c r _ZN8gdtentryL17execute_only_typeE
ffff80000404070d r _ZN8gdtentryL15read_write_typeE
ffff800004040710 r _ZL18kspace_DS_SS_entry
ffff800004040718 r _ZL15kspace_CS_entry
ffff800004040720 r _ZL21userspace_DS_SS_entry
ffff800004040728 r _ZL18userspace_CS_entry
ffff800004040730 r _ZL10base0_mask
ffff800004040738 r _ZL10base1_mask
ffff800004040740 r _ZL10base2_mask
ffff800004040748 r _ZL10base3_mask
ffff800004040750 r _ZL13gdt_headcount
ffff800004040754 r _ZL23GS_SLOT_MAX_ENTRY_COUNT
ffff800004040758 r _ZL26STACK_PROTECTOR_CANARY_IDX
ffff80000404075c r _ZN5xapicL26REG_OFF_ICR_COMMAND_OFFSETE
ffff800004040760 r _ZN5xapicL30REG_OFF_ICR_DESTINATION_OFFSETE
ffff800004040768 r _ZN6x2apicL12ddline_timerE
ffff800004040770 r _ZN6x2apicL20broadcast_exself_icrE
ffff800004040778 r _ZL29PER_CPU_HEAP_COMPLEX_GS_INDEX
ffff80000404077c r _ZL13default_flags
ffff800004040784 r _ZL15INDEX_NOT_EXIST
ffff800004040788 r _ZN13PAGE_TBALE_LVL4LV_4E
ffff800004040789 r _ZN13PAGE_TBALE_LVL4LV_5E
ffff80000404078a r _ZL17KERNEL_SPACE_PCID
ffff80000404078c r _ZL16KSPACE_RW_ACCESS
ffff800004040790 r _ZL18DESC_SMALL_SEG_MAX
ffff800004040798 r _ZL18DEFAULT_PAT_CONFIG
ffff8000040407a0 r _ZN3msr4apicL14IA32_APIC_BASEE
ffff8000040407a4 r _ZN3msr4apicL14IA32_X2APIC_IDE
ffff8000040407a8 r _ZN3msr4apicL19IA32_X2APIC_VERSIONE
ffff8000040407ac r _ZN3msr4apicL15IA32_X2APIC_TPRE
ffff8000040407b0 r _ZN3msr4apicL15IA32_X2APIC_PPRE
ffff8000040407b4 r _ZN3msr4apicL15IA32_X2APIC_EOIE
ffff8000040407b8 r _ZN3msr4apicL15IA32_X2APIC_LDRE
ffff8000040407bc r _ZN3msr4apicL15IA32_X2APIC_SVRE
ffff8000040407c0 r _ZN3msr4apicL16IA32_X2APIC_ISR0E
ffff8000040407c4 r _ZN3msr4apicL16IA32_X2APIC_ISR1E
ffff8000040407c8 r _ZN3msr4apicL16IA32_X2APIC_ISR2E
ffff8000040407cc r _ZN3msr4apicL16IA32_X2APIC_ISR3E
ffff8000040407d0 r _ZN3msr4apicL16IA32_X2APIC_ISR4E
ffff8000040407d4 r _ZN3msr4apicL16IA32_X2APIC_ISR5E
ffff8000040407d8 r _ZN3msr4apicL16IA32_X2APIC_ISR6E
ffff8000040407dc r _ZN3msr4apicL16IA32_X2APIC_ISR7E
ffff8000040407e0 r _ZN3msr4apicL16IA32_X2APIC_TMR0E
ffff8000040407e4 r _ZN3msr4apicL16IA32_X2APIC_TMR1E
ffff8000040407e8 r _ZN3msr4apicL16IA32_X2APIC_TMR2E
ffff8000040407ec r _ZN3msr4apicL16IA32_X2APIC_TMR3E
ffff8000040407f0 r _ZN3msr4apicL16IA32_X2APIC_TMR4E
ffff8000040407f4 r _ZN3msr4apicL16IA32_X2APIC_TMR5E
ffff8000040407f8 r _ZN3msr4apicL16IA32_X2APIC_TMR6E
ffff8000040407fc r _ZN3msr4apicL16IA32_X2APIC_TMR7E
ffff800004040800 r _ZN3msr4apicL16IA32_X2APIC_IRR0E
ffff800004040804 r _ZN3msr4apicL16IA32_X2APIC_IRR1E
ffff800004040808 r _ZN3msr4apicL16IA32_X2APIC_IRR2E
ffff80000404080c r _ZN3msr4apicL16IA32_X2APIC_IRR3E
ffff800004040810 r _ZN3msr4apicL16IA32_X2APIC_IRR4E
ffff800004040814 r _ZN3msr4apicL16IA32_X2APIC_IRR5E
ffff800004040818 r _ZN3msr4apicL16IA32_X2APIC_IRR6E
ffff80000404081c r _ZN3msr4apicL16IA32_X2APIC_IRR7E
ffff800004040820 r _ZN3msr4apicL15IA32_X2APIC_ESRE
ffff800004040824 r _ZN3msr4apicL20IA32_X2APIC_LVT_CMCIE
ffff800004040828 r _ZN3msr4apicL15IA32_X2APIC_ICRE
ffff80000404082c r _ZN3msr4apicL21IA32_X2APIC_LVT_TIMERE
ffff800004040830 r _ZN3msr4apicL23IA32_X2APIC_LVT_THERMALE
ffff800004040834 r _ZN3msr4apicL19IA32_X2APIC_LVT_PMIE
ffff800004040838 r _ZN3msr4apicL21IA32_X2APIC_LVT_LINT0E
ffff80000404083c r _ZN3msr4apicL21IA32_X2APIC_LVT_LINT1E
ffff800004040840 r _ZN3msr4apicL21IA32_X2APIC_LVT_ERRORE
ffff800004040844 r _ZN3msr4apicL31IA32_X2APIC_TIMER_INITIAL_COUNTE
ffff800004040848 r _ZN3msr4apicL31IA32_X2APIC_TIMER_CURRENT_COUNTE
ffff80000404084c r _ZN3msr4apicL31IA32_X2APIC_TIMER_DIVIDE_CONFIGE
ffff800004040850 r _ZN3msr4apicL20IA32_X2APIC_SELF_IPIE
ffff800004040854 r _ZN3msr6systemL20IA32_FEATURE_CONTROLE
ffff800004040858 r _ZN3msr6systemL8IA32_TSCE
ffff80000404085c r _ZN3msr6systemL16IA32_PLATFORM_IDE
ffff800004040860 r _ZN3msr6systemL19IA32_EBL_CR_POWERONE
ffff800004040864 r _ZN3msr6systemL21IA32_EBC_FREQUENCY_IDE
ffff800004040868 r _ZN3msr5debugL13IA32_DEBUGCTLE
ffff80000404086c r _ZN3msr5debugL21IA32_LASTBRANCHFROMIPE
ffff800004040870 r _ZN3msr5debugL19IA32_LASTBRANCHTOIPE
ffff800004040874 r _ZN3msr5debugL18IA32_LASTINTFROMIPE
ffff800004040878 r _ZN3msr5debugL16IA32_LASTINTTOIPE
ffff80000404087c r _ZN3msr11performanceL10IA32_MPERFE
ffff800004040880 r _ZN3msr11performanceL10IA32_APERFE
ffff800004040884 r _ZN3msr11performanceL16IA32_PERF_STATUSE
ffff800004040888 r _ZN3msr11performanceL13IA32_PERF_CTLE
ffff80000404088c r _ZN3msr16power_managementL21IA32_CLOCK_MODULATIONE
ffff800004040890 r _ZN3msr16power_managementL20IA32_THERM_INTERRUPTE
ffff800004040894 r _ZN3msr16power_managementL17IA32_THERM_STATUSE
ffff800004040898 r _ZN3msr16power_managementL16IA32_MISC_ENABLEE
ffff80000404089c r _ZN3msr4mtrrL13IA32_MTRR_CAPE
ffff8000040408a0 r _ZN3msr4mtrrL18IA32_MTRR_DEF_TYPEE
ffff8000040408a4 r _ZN3msr4mtrrL19IA32_MTRR_PHYSBASE0E
ffff8000040408a8 r _ZN3msr4mtrrL19IA32_MTRR_PHYSMASK0E
ffff8000040408ac r _ZN3msr4mtrrL19IA32_MTRR_PHYSBASE1E
ffff8000040408b0 r _ZN3msr4mtrrL19IA32_MTRR_PHYSMASK1E
ffff8000040408b4 r _ZN3msr4mtrrL19IA32_MTRR_PHYSBASE2E
ffff8000040408b8 r _ZN3msr4mtrrL19IA32_MTRR_PHYSMASK2E
ffff8000040408bc r _ZN3msr4mtrrL19IA32_MTRR_PHYSBASE3E
ffff8000040408c0 r _ZN3msr4mtrrL19IA32_MTRR_PHYSMASK3E
ffff8000040408c4 r _ZN3msr4mtrrL19IA32_MTRR_PHYSBASE4E
ffff8000040408c8 r _ZN3msr4mtrrL19IA32_MTRR_PHYSMASK4E
ffff8000040408cc r _ZN3msr4mtrrL19IA32_MTRR_PHYSBASE5E
ffff8000040408d0 r _ZN3msr4mtrrL19IA32_MTRR_PHYSMASK5E
ffff8000040408d4 r _ZN3msr4mtrrL19IA32_MTRR_PHYSBASE6E
ffff8000040408d8 r _ZN3msr4mtrrL19IA32_MTRR_PHYSMASK6E
ffff8000040408dc r _ZN3msr4mtrrL19IA32_MTRR_PHYSBASE7E
ffff8000040408e0 r _ZN3msr4mtrrL19IA32_MTRR_PHYSMASK7E
ffff8000040408e4 r _ZN3msr4mtrrL19IA32_MTRR_PHYSBASE8E
ffff8000040408e8 r _ZN3msr4mtrrL19IA32_MTRR_PHYSMASK8E
ffff8000040408ec r _ZN3msr4mtrrL19IA32_MTRR_PHYSBASE9E
ffff8000040408f0 r _ZN3msr4mtrrL19IA32_MTRR_PHYSMASK9E
ffff8000040408f4 r _ZN3msr4mtrrL22IA32_MTRR_FIX64K_00000E
ffff8000040408f8 r _ZN3msr4mtrrL22IA32_MTRR_FIX16K_80000E
ffff8000040408fc r _ZN3msr4mtrrL22IA32_MTRR_FIX16K_A0000E
ffff800004040900 r _ZN3msr4mtrrL21IA32_MTRR_FIX4K_C0000E
ffff800004040904 r _ZN3msr4mtrrL21IA32_MTRR_FIX4K_C8000E
ffff800004040908 r _ZN3msr4mtrrL21IA32_MTRR_FIX4K_D0000E
ffff80000404090c r _ZN3msr4mtrrL21IA32_MTRR_FIX4K_D8000E
ffff800004040910 r _ZN3msr4mtrrL21IA32_MTRR_FIX4K_E0000E
ffff800004040914 r _ZN3msr4mtrrL21IA32_MTRR_FIX4K_E8000E
ffff800004040918 r _ZN3msr4mtrrL21IA32_MTRR_FIX4K_F0000E
ffff80000404091c r _ZN3msr4mtrrL21IA32_MTRR_FIX4K_F8000E
ffff800004040920 r _ZN3msr4mtrrL8IA32_PATE
ffff800004040924 r _ZN3msr3vmxL14IA32_VMX_BASICE
ffff800004040928 r _ZN3msr3vmxL22IA32_VMX_PINBASED_CTLSE
ffff80000404092c r _ZN3msr3vmxL23IA32_VMX_PROCBASED_CTLSE
ffff800004040930 r _ZN3msr3vmxL18IA32_VMX_EXIT_CTLSE
ffff800004040934 r _ZN3msr3vmxL19IA32_VMX_ENTRY_CTLSE
ffff800004040938 r _ZN3msr3vmxL13IA32_VMX_MISCE
ffff80000404093c r _ZN3msr3vmxL19IA32_VMX_CR0_FIXED0E
ffff800004040940 r _ZN3msr3vmxL19IA32_VMX_CR0_FIXED1E
ffff800004040944 r _ZN3msr3vmxL19IA32_VMX_CR4_FIXED0E
ffff800004040948 r _ZN3msr3vmxL19IA32_VMX_CR4_FIXED1E
ffff80000404094c r _ZN3msr3vmxL18IA32_VMX_VMCS_ENUME
ffff800004040950 r _ZN3msr3vmxL24IA32_VMX_PROCBASED_CTLS2E
ffff800004040954 r _ZN3msr3vmxL21IA32_VMX_EPT_VPID_CAPE
ffff800004040958 r _ZN3msr3vmxL27IA32_VMX_TRUE_PINBASED_CTLSE
ffff80000404095c r _ZN3msr3vmxL28IA32_VMX_TRUE_PROCBASED_CTLSE
ffff800004040960 r _ZN3msr3vmxL23IA32_VMX_TRUE_EXIT_CTLSE
ffff800004040964 r _ZN3msr3vmxL24IA32_VMX_TRUE_ENTRY_CTLSE
ffff800004040968 r _ZN3msr3vmxL15IA32_VMX_VMFUNCE
ffff80000404096c r _ZN3msr3sgxL21IA32_SGXLEPUBKEYHASH0E
ffff800004040970 r _ZN3msr3sgxL21IA32_SGXLEPUBKEYHASH1E
ffff800004040974 r _ZN3msr3sgxL21IA32_SGXLEPUBKEYHASH2E
ffff800004040978 r _ZN3msr3sgxL21IA32_SGXLEPUBKEYHASH3E
ffff80000404097c r _ZN3msr5timerL17IA32_TSC_DEADLINEE
ffff800004040980 r _ZN3msr7syscallL16IA32_SYSENTER_CSE
ffff800004040984 r _ZN3msr7syscallL17IA32_SYSENTER_ESPE
ffff800004040988 r _ZN3msr7syscallL17IA32_SYSENTER_EIPE
ffff80000404098c r _ZN3msr7syscallL9IA32_STARE
ffff800004040990 r _ZN3msr7syscallL10IA32_LSTARE
ffff800004040994 r _ZN3msr7syscallL10IA32_FMASKE
ffff800004040998 r _ZN3msr7syscallL12IA32_FS_BASEE
ffff80000404099c r _ZN3msr7syscallL12IA32_GS_BASEE
ffff8000040409a0 r _ZN3msr7syscallL19IA32_KERNEL_GS_BASEE
ffff8000040409a4 r _ZN3msr7syscallL12IA32_TSC_AUXE
ffff8000040409b0 r _ZL19ACPI_XSDT_SIGNATURE
ffff8000040409c0 r _ZL19ACPI_FADT_SIGNATURE
ffff8000040409d0 r _ZL19ACPI_FACS_SIGNATURE
ffff8000040409e0 r _ZL19ACPI_MADT_SIGNATURE
ffff8000040409f0 r _ZL19ACPI_DSDT_SIGNATURE
ffff800004040a00 r _ZL19ACPI_SSDT_SIGNATURE
ffff800004040a10 r _ZL19ACPI_MCFG_SIGNATURE
ffff800004040a20 r _ZL19ACPI_HPET_SIGNATURE
ffff800004040a28 r _ZL21XSDT_SIGNATURE_UINT32
ffff800004040a2c r _ZL21FADT_SIGNATURE_UINT32
ffff800004040a30 r _ZL21FACS_SIGNATURE_UINT32
ffff800004040a34 r _ZL21MADT_SIGNATURE_UINT32
ffff800004040a38 r _ZL21DSDT_SIGNATURE_UINT32
ffff800004040a3c r _ZL21SSDT_SIGNATURE_UINT32
ffff800004040a40 r _ZL21MCFG_SIGNATURE_UINT32
ffff800004040a44 r _ZL21HPET_SIGNATURE_UINT32
ffff800004040ba0 r _ZL15PAGE_SIZE_IN_LV
ffff800004040be0 r _ZL16PAGE_OFFSET_MASK
ffff800004040c08 r _ZL17Max_huge_pg_index
ffff800004040c10 r _ZN22lineaddr_index_filtersL17PT_INDEX_MASK_lv0E
ffff800004040c18 r _ZN22lineaddr_index_filtersL17PD_INDEX_MASK_lv1E
ffff800004040c20 r _ZN22lineaddr_index_filtersL19PDPT_INDEX_MASK_lv2E
ffff800004040c28 r _ZN22lineaddr_index_filtersL19PML4_INDEX_MASK_lv3E
ffff800004040c30 r _ZN22lineaddr_index_filtersL19PML5_INDEX_MASK_lv4E
ffff800004040c38 r _ZL15PHYS_ADDR_WIDTH
ffff800004040c40 r _ZL14PHYS_ADDR_MASK
ffff800004040c48 r _ZN14PageTableEntryL5P_BITE
ffff800004040c50 r _ZN14PageTableEntryL6RW_BITE
ffff800004040c58 r _ZN14PageTableEntryL6US_BITE
ffff800004040c60 r _ZN14PageTableEntryL7PWT_BITE
ffff800004040c68 r _ZN14PageTableEntryL7PCD_BITE
ffff800004040c70 r _ZN14PageTableEntryL5A_BITE
ffff800004040c78 r _ZN14PageTableEntryL6XD_BITE
ffff800004040c80 r _ZN14PageTableEntryL6P_MASKE
ffff800004040c88 r _ZN14PageTableEntryL7RW_MASKE
ffff800004040c90 r _ZN14PageTableEntryL7US_MASKE
ffff800004040c98 r _ZN14PageTableEntryL8PWT_MASKE
ffff800004040ca0 r _ZN14PageTableEntryL8PCD_MASKE
ffff800004040ca8 r _ZN14PageTableEntryL6A_MASKE
ffff800004040cb0 r _ZN14PageTableEntryL7XD_MASKE
ffff800004040cb8 r _ZN5PML5EL5R_BITE
ffff800004040cc0 r _ZN5PML5EL6PS_BITE
ffff800004040cc8 r _ZN5PML5EL6R_MASKE
ffff800004040cd0 r _ZN5PML5EL7PS_MASKE
ffff800004040cd8 r _ZN5PML5EL11ADDR_OFFSETE
ffff800004040ce0 r _ZN5PML5EL9ADDR_BITSE
ffff800004040ce8 r _ZN5PML5EL9ADDR_MASKE
ffff800004040cf0 r _ZN5PML4EL5R_BITE
ffff800004040cf8 r _ZN5PML4EL6PS_BITE
ffff800004040d00 r _ZN5PML4EL6R_MASKE
ffff800004040d08 r _ZN5PML4EL7PS_MASKE
ffff800004040d10 r _ZN5PML4EL11ADDR_OFFSETE
ffff800004040d18 r _ZN5PML4EL9ADDR_BITSE
ffff800004040d20 r _ZN5PML4EL9ADDR_MASKE
ffff800004040d28 r _ZN5PDPTEL5D_BITE
ffff800004040d30 r _ZN5PDPTEL6PS_BITE
ffff800004040d38 r _ZN5PDPTEL5G_BITE
ffff800004040d40 r _ZN5PDPTEL5R_BITE
ffff800004040d48 r _ZN5PDPTEL7PAT_BITE
ffff800004040d50 r _ZN5PDPTEL7PK_BITSE
ffff800004040d58 r _ZN5PDPTEL6D_MASKE
ffff800004040d60 r _ZN5PDPTEL7PS_MASKE
ffff800004040d68 r _ZN5PDPTEL6G_MASKE
ffff800004040d70 r _ZN5PDPTEL6R_MASKE
ffff800004040d78 r _ZN5PDPTEL8PAT_MASKE
ffff800004040d80 r _ZN5PDPTEL7PK_MASKE
ffff800004040d88 r _ZN5PDPTEL14ADDR_PD_OFFSETE
ffff800004040d90 r _ZN5PDPTEL12ADDR_PD_BITSE
ffff800004040d98 r _ZN5PDPTEL12ADDR_PD_MASKE
ffff800004040da0 r _ZN5PDPTEL15ADDR_1GB_OFFSETE
ffff800004040da8 r _ZN5PDPTEL13ADDR_1GB_BITSE
ffff800004040db0 r _ZN5PDPTEL13ADDR_1GB_MASKE
ffff800004040db8 r _ZN3PDEL5D_BITE
ffff800004040dc0 r _ZN3PDEL6PS_BITE
ffff800004040dc8 r _ZN3PDEL5G_BITE
ffff800004040dd0 r _ZN3PDEL5R_BITE
ffff800004040dd8 r _ZN3PDEL7PAT_BITE
ffff800004040de0 r _ZN3PDEL7PK_BITSE
ffff800004040de8 r _ZN3PDEL6D_MASKE
ffff800004040df0 r _ZN3PDEL7PS_MASKE
ffff800004040df8 r _ZN3PDEL6G_MASKE
ffff800004040e00 r _ZN3PDEL6R_MASKE
ffff800004040e08 r _ZN3PDEL8PAT_MASKE
ffff800004040e10 r _ZN3PDEL7PK_MASKE
ffff800004040e18 r _ZN3PDEL14ADDR_PT_OFFSETE
ffff800004040e20 r _ZN3PDEL12ADDR_PT_BITSE
ffff800004040e28 r _ZN3PDEL12ADDR_PT_MASKE
ffff800004040e30 r _ZN3PDEL15ADDR_2MB_OFFSETE
ffff800004040e38 r _ZN3PDEL13ADDR_2MB_BITSE
ffff800004040e40 r _ZN3PDEL13ADDR_2MB_MASKE
ffff800004040e48 r _ZN3PTEL5D_BITE
ffff800004040e50 r _ZN3PTEL7PAT_BITE
ffff800004040e58 r _ZN3PTEL5G_BITE
ffff800004040e60 r _ZN3PTEL5R_BITE
ffff800004040e68 r _ZN3PTEL7PK_BITSE
ffff800004040e70 r _ZN3PTEL6D_MASKE
ffff800004040e78 r _ZN3PTEL8PAT_MASKE
ffff800004040e80 r _ZN3PTEL6G_MASKE
ffff800004040e88 r _ZN3PTEL6R_MASKE
ffff800004040e90 r _ZN3PTEL7PK_MASKE
ffff800004040e98 r _ZN3PTEL11ADDR_OFFSETE
ffff800004040ea0 r _ZN3PTEL9ADDR_BITSE
ffff800004040ea8 r _ZN3PTEL9ADDR_MASKE
ffff800004040eb0 r _ZL13ENTRY_PRESENT
ffff800004040eb1 r _ZL17ENTRY_PRESENT_NOT
ffff800004040eb2 r _ZL17RWBIT_WRITE_ALLOW
ffff800004040eb3 r _ZL21RWBIT_WRITE_ALLOW_NOT
ffff800004040eb4 r _ZL16KERNE_BIT_KERNEL
ffff800004040eb5 r _ZL20KERNE_BIT_KERNEL_NOT
ffff800004040eb6 r _ZL17XD_BIT_EXECUTABLE
ffff800004040eb7 r _ZL21XD_BIT_EXECUTABLE_NOT
ffff800004040eb8 r _ZN11devices_idsL17DEVICE_ID_UNKNOWNE
ffff800004040ec0 r _ZN11devices_idsL17IO_APIC_DEVICE_IDE
ffff800004040ec8 r _ZL25MAX_PHYADDR_1GB_PGS_COUNT
ffff800004040ed0 r _ZN4ivecL12DIVIDE_ERRORE
ffff800004040ed1 r _ZN4ivecL5DEBUGE
ffff800004040ed2 r _ZN4ivecL3NMIE
ffff800004040ed3 r _ZN4ivecL10BREAKPOINTE
ffff800004040ed4 r _ZN4ivecL8OVERFLOWE
ffff800004040ed5 r _ZN4ivecL20BOUND_RANGE_EXCEEDEDE
ffff800004040ed6 r _ZN4ivecL14INVALID_OPCODEE
ffff800004040ed7 r _ZN4ivecL20DEVICE_NOT_AVAILABLEE
ffff800004040ed8 r _ZN4ivecL12DOUBLE_FAULTE
ffff800004040ed9 r _ZN4ivecL27COPROCESSOR_SEGMENT_OVERRUNE
ffff800004040eda r _ZN4ivecL11INVALID_TSSE
ffff800004040edb r _ZN4ivecL19SEGMENT_NOT_PRESENTE
ffff800004040edc r _ZN4ivecL19STACK_SEGMENT_FAULTE
ffff800004040edd r _ZN4ivecL24GENERAL_PROTECTION_FAULTE
ffff800004040ede r _ZN4ivecL10PAGE_FAULTE
ffff800004040edf r _ZN4ivecL13X87_FPU_ERRORE
ffff800004040ee0 r _ZN4ivecL15ALIGNMENT_CHECKE
ffff800004040ee1 r _ZN4ivecL13MACHINE_CHECKE
ffff800004040ee2 r _ZN4ivecL29SIMD_FLOATING_POINT_EXCEPTIONE
ffff800004040ee3 r _ZN4ivecL24VIRTUALIZATION_EXCEPTIONE
ffff800004040ee4 r _ZN4ivecL28CONTROL_PROTECTION_EXCEPTIONE
ffff800004040ee5 r _ZN4ivecL11LAPIC_TIMERE
ffff800004040ee6 r _ZN4ivecL3IPIE
ffff800004040ee7 r _ZN4ivecL21TOP_FOR_TEMPLATE_VECSE
ffff800004040ee8 r _ZN5xapicL26REG_OFF_ICR_COMMAND_OFFSETE
ffff800004040eec r _ZN5xapicL30REG_OFF_ICR_DESTINATION_OFFSETE
ffff800004040ef0 r _ZN6x2apicL12ddline_timerE
ffff800004040ef8 r _ZN6x2apicL20broadcast_exself_icrE
ffff800004040f00 r _ZN3msr4apicL14IA32_APIC_BASEE
ffff800004040f04 r _ZN3msr4apicL14IA32_X2APIC_IDE
ffff800004040f08 r _ZN3msr4apicL19IA32_X2APIC_VERSIONE
ffff800004040f0c r _ZN3msr4apicL15IA32_X2APIC_TPRE
ffff800004040f10 r _ZN3msr4apicL15IA32_X2APIC_PPRE
ffff800004040f14 r _ZN3msr4apicL15IA32_X2APIC_EOIE
ffff800004040f18 r _ZN3msr4apicL15IA32_X2APIC_LDRE
ffff800004040f1c r _ZN3msr4apicL15IA32_X2APIC_SVRE
ffff800004040f20 r _ZN3msr4apicL16IA32_X2APIC_ISR0E
ffff800004040f24 r _ZN3msr4apicL16IA32_X2APIC_ISR1E
ffff800004040f28 r _ZN3msr4apicL16IA32_X2APIC_ISR2E
ffff800004040f2c r _ZN3msr4apicL16IA32_X2APIC_ISR3E
ffff800004040f30 r _ZN3msr4apicL16IA32_X2APIC_ISR4E
ffff800004040f34 r _ZN3msr4apicL16IA32_X2APIC_ISR5E
ffff800004040f38 r _ZN3msr4apicL16IA32_X2APIC_ISR6E
ffff800004040f3c r _ZN3msr4apicL16IA32_X2APIC_ISR7E
ffff800004040f40 r _ZN3msr4apicL16IA32_X2APIC_TMR0E
ffff800004040f44 r _ZN3msr4apicL16IA32_X2APIC_TMR1E
ffff800004040f48 r _ZN3msr4apicL16IA32_X2APIC_TMR2E
ffff800004040f4c r _ZN3msr4apicL16IA32_X2APIC_TMR3E
ffff800004040f50 r _ZN3msr4apicL16IA32_X2APIC_TMR4E
ffff800004040f54 r _ZN3msr4apicL16IA32_X2APIC_TMR5E
ffff800004040f58 r _ZN3msr4apicL16IA32_X2APIC_TMR6E
ffff800004040f5c r _ZN3msr4apicL16IA32_X2APIC_TMR7E
ffff800004040f60 r _ZN3msr4apicL16IA32_X2APIC_IRR0E
ffff800004040f64 r _ZN3msr4apicL16IA32_X2APIC_IRR1E
ffff800004040f68 r _ZN3msr4apicL16IA32_X2APIC_IRR2E
ffff800004040f6c r _ZN3msr4apicL16IA32_X2APIC_IRR3E
ffff800004040f70 r _ZN3msr4apicL16IA32_X2APIC_IRR4E
ffff800004040f74 r _ZN3msr4apicL16IA32_X2APIC_IRR5E
ffff800004040f78 r _ZN3msr4apicL16IA32_X2APIC_IRR6E
ffff800004040f7c r _ZN3msr4apicL16IA32_X2APIC_IRR7E
ffff800004040f80 r _ZN3msr4apicL15IA32_X2APIC_ESRE
ffff800004040f84 r _ZN3msr4apicL20IA32_X2APIC_LVT_CMCIE
ffff800004040f88 r _ZN3msr4apicL15IA32_X2APIC_ICRE
ffff800004040f8c r _ZN3msr4apicL21IA32_X2APIC_LVT_TIMERE
ffff800004040f90 r _ZN3msr4apicL23IA32_X2APIC_LVT_THERMALE
ffff800004040f94 r _ZN3msr4apicL19IA32_X2APIC_LVT_PMIE
ffff800004040f98 r _ZN3msr4apicL21IA32_X2APIC_LVT_LINT0E
ffff800004040f9c r _ZN3msr4apicL21IA32_X2APIC_LVT_LINT1E
ffff800004040fa0 r _ZN3msr4apicL21IA32_X2APIC_LVT_ERRORE
ffff800004040fa4 r _ZN3msr4apicL31IA32_X2APIC_TIMER_INITIAL_COUNTE
ffff800004040fa8 r _ZN3msr4apicL31IA32_X2APIC_TIMER_CURRENT_COUNTE
ffff800004040fac r _ZN3msr4apicL31IA32_X2APIC_TIMER_DIVIDE_CONFIGE
ffff800004040fb0 r _ZN3msr4apicL20IA32_X2APIC_SELF_IPIE
ffff800004040fb4 r _ZN3msr6systemL20IA32_FEATURE_CONTROLE
ffff800004040fb8 r _ZN3msr6systemL8IA32_TSCE
ffff800004040fbc r _ZN3msr6systemL16IA32_PLATFORM_IDE
ffff800004040fc0 r _ZN3msr6systemL19IA32_EBL_CR_POWERONE
ffff800004040fc4 r _ZN3msr6systemL21IA32_EBC_FREQUENCY_IDE
ffff800004040fc8 r _ZN3msr5debugL13IA32_DEBUGCTLE
ffff800004040fcc r _ZN3msr5debugL21IA32_LASTBRANCHFROMIPE
ffff800004040fd0 r _ZN3msr5debugL19IA32_LASTBRANCHTOIPE
ffff800004040fd4 r _ZN3msr5debugL18IA32_LASTINTFROMIPE
ffff800004040fd8 r _ZN3msr5debugL16IA32_LASTINTTOIPE
ffff800004040fdc r _ZN3msr11performanceL10IA32_MPERFE
ffff800004040fe0 r _ZN3msr11performanceL10IA32_APERFE
ffff800004040fe4 r _ZN3msr11performanceL16IA32_PERF_STATUSE
ffff800004040fe8 r _ZN3msr11performanceL13IA32_PERF_CTLE
ffff800004040fec r _ZN3msr16power_managementL21IA32_CLOCK_MODULATIONE
ffff800004040ff0 r _ZN3msr16power_managementL20IA32_THERM_INTERRUPTE
ffff800004040ff4 r _ZN3msr16power_managementL17IA32_THERM_STATUSE
ffff800004040ff8 r _ZN3msr16power_managementL16IA32_MISC_ENABLEE
ffff800004040ffc r _ZN3msr4mtrrL13IA32_MTRR_CAPE
ffff800004041000 r _ZN3msr4mtrrL18IA32_MTRR_DEF_TYPEE
ffff800004041004 r _ZN3msr4mtrrL19IA32_MTRR_PHYSBASE0E
ffff800004041008 r _ZN3msr4mtrrL19IA32_MTRR_PHYSMASK0E
ffff80000404100c r _ZN3msr4mtrrL19IA32_MTRR_PHYSBASE1E
ffff800004041010 r _ZN3msr4mtrrL19IA32_MTRR_PHYSMASK1E
ffff800004041014 r _ZN3msr4mtrrL19IA32_MTRR_PHYSBASE2E
ffff800004041018 r _ZN3msr4mtrrL19IA32_MTRR_PHYSMASK2E
ffff80000404101c r _ZN3msr4mtrrL19IA32_MTRR_PHYSBASE3E
ffff800004041020 r _ZN3msr4mtrrL19IA32_MTRR_PHYSMASK3E
ffff800004041024 r _ZN3msr4mtrrL19IA32_MTRR_PHYSBASE4E
ffff800004041028 r _ZN3msr4mtrrL19IA32_MTRR_PHYSMASK4E
ffff80000404102c r _ZN3msr4mtrrL19IA32_MTRR_PHYSBASE5E
ffff800004041030 r _ZN3msr4mtrrL19IA32_MTRR_PHYSMASK5E
ffff800004041034 r _ZN3msr4mtrrL19IA32_MTRR_PHYSBASE6E
ffff800004041038 r _ZN3msr4mtrrL19IA32_MTRR_PHYSMASK6E
ffff80000404103c r _ZN3msr4mtrrL19IA32_MTRR_PHYSBASE7E
ffff800004041040 r _ZN3msr4mtrrL19IA32_MTRR_PHYSMASK7E
ffff800004041044 r _ZN3msr4mtrrL19IA32_MTRR_PHYSBASE8E
ffff800004041048 r _ZN3msr4mtrrL19IA32_MTRR_PHYSMASK8E
ffff80000404104c r _ZN3msr4mtrrL19IA32_MTRR_PHYSBASE9E
ffff800004041050 r _ZN3msr4mtrrL19IA32_MTRR_PHYSMASK9E
ffff800004041054 r _ZN3msr4mtrrL22IA32_MTRR_FIX64K_00000E
ffff800004041058 r _ZN3msr4mtrrL22IA32_MTRR_FIX16K_80000E
ffff80000404105c r _ZN3msr4mtrrL22IA32_MTRR_FIX16K_A0000E
ffff800004041060 r _ZN3msr4mtrrL21IA32_MTRR_FIX4K_C0000E
ffff800004041064 r _ZN3msr4mtrrL21IA32_MTRR_FIX4K_C8000E
ffff800004041068 r _ZN3msr4mtrrL21IA32_MTRR_FIX4K_D0000E
ffff80000404106c r _ZN3msr4mtrrL21IA32_MTRR_FIX4K_D8000E
ffff800004041070 r _ZN3msr4mtrrL21IA32_MTRR_FIX4K_E0000E
ffff800004041074 r _ZN3msr4mtrrL21IA32_MTRR_FIX4K_E8000E
ffff800004041078 r _ZN3msr4mtrrL21IA32_MTRR_FIX4K_F0000E
ffff80000404107c r _ZN3msr4mtrrL21IA32_MTRR_FIX4K_F8000E
ffff800004041080 r _ZN3msr4mtrrL8IA32_PATE
ffff800004041084 r _ZN3msr3vmxL14IA32_VMX_BASICE
ffff800004041088 r _ZN3msr3vmxL22IA32_VMX_PINBASED_CTLSE
ffff80000404108c r _ZN3msr3vmxL23IA32_VMX_PROCBASED_CTLSE
ffff800004041090 r _ZN3msr3vmxL18IA32_VMX_EXIT_CTLSE
ffff800004041094 r _ZN3msr3vmxL19IA32_VMX_ENTRY_CTLSE
ffff800004041098 r _ZN3msr3vmxL13IA32_VMX_MISCE
ffff80000404109c r _ZN3msr3vmxL19IA32_VMX_CR0_FIXED0E
ffff8000040410a0 r _ZN3msr3vmxL19IA32_VMX_CR0_FIXED1E
ffff8000040410a4 r _ZN3msr3vmxL19IA32_VMX_CR4_FIXED0E
ffff8000040410a8 r _ZN3msr3vmxL19IA32_VMX_CR4_FIXED1E
ffff8000040410ac r _ZN3msr3vmxL18IA32_VMX_VMCS_ENUME
ffff8000040410b0 r _ZN3msr3vmxL24IA32_VMX_PROCBASED_CTLS2E
ffff8000040410b4 r _ZN3msr3vmxL21IA32_VMX_EPT_VPID_CAPE
ffff8000040410b8 r _ZN3msr3vmxL27IA32_VMX_TRUE_PINBASED_CTLSE
ffff8000040410bc r _ZN3msr3vmxL28IA32_VMX_TRUE_PROCBASED_CTLSE
ffff8000040410c0 r _ZN3msr3vmxL23IA32_VMX_TRUE_EXIT_CTLSE
ffff8000040410c4 r _ZN3msr3vmxL24IA32_VMX_TRUE_ENTRY_CTLSE
ffff8000040410c8 r _ZN3msr3vmxL15IA32_VMX_VMFUNCE
ffff8000040410cc r _ZN3msr3sgxL21IA32_SGXLEPUBKEYHASH0E
ffff8000040410d0 r _ZN3msr3sgxL21IA32_SGXLEPUBKEYHASH1E
ffff8000040410d4 r _ZN3msr3sgxL21IA32_SGXLEPUBKEYHASH2E
ffff8000040410d8 r _ZN3msr3sgxL21IA32_SGXLEPUBKEYHASH3E
ffff8000040410dc r _ZN3msr5timerL17IA32_TSC_DEADLINEE
ffff8000040410e0 r _ZN3msr7syscallL16IA32_SYSENTER_CSE
ffff8000040410e4 r _ZN3msr7syscallL17IA32_SYSENTER_ESPE
ffff8000040410e8 r _ZN3msr7syscallL17IA32_SYSENTER_EIPE
ffff8000040410ec r _ZN3msr7syscallL9IA32_STARE
ffff8000040410f0 r _ZN3msr7syscallL10IA32_LSTARE
ffff8000040410f4 r _ZN3msr7syscallL10IA32_FMASKE
ffff8000040410f8 r _ZN3msr7syscallL12IA32_FS_BASEE
ffff8000040410fc r _ZN3msr7syscallL12IA32_GS_BASEE
ffff800004041100 r _ZN3msr7syscallL19IA32_KERNEL_GS_BASEE
ffff800004041104 r _ZN3msr7syscallL12IA32_TSC_AUXE
ffff800004041108 r _ZL34interrupt_context_specify_no_magic
ffff80000404110c r _ZL31interrupt_context_specify_magic
ffff800004041118 r _ZL19ACPI_XSDT_SIGNATURE
ffff800004041128 r _ZL19ACPI_FADT_SIGNATURE
ffff800004041138 r _ZL19ACPI_FACS_SIGNATURE
ffff800004041148 r _ZL19ACPI_MADT_SIGNATURE
ffff800004041158 r _ZL19ACPI_DSDT_SIGNATURE
ffff800004041168 r _ZL19ACPI_SSDT_SIGNATURE
ffff800004041178 r _ZL19ACPI_MCFG_SIGNATURE
ffff800004041188 r _ZL19ACPI_HPET_SIGNATURE
ffff800004041190 r _ZL21XSDT_SIGNATURE_UINT32
ffff800004041194 r _ZL21FADT_SIGNATURE_UINT32
ffff800004041198 r _ZL21FACS_SIGNATURE_UINT32
ffff80000404119c r _ZL21MADT_SIGNATURE_UINT32
ffff8000040411a0 r _ZL21DSDT_SIGNATURE_UINT32
ffff8000040411a4 r _ZL21SSDT_SIGNATURE_UINT32
ffff8000040411a8 r _ZL21MCFG_SIGNATURE_UINT32
ffff8000040411ac r _ZL21HPET_SIGNATURE_UINT32
ffff8000040411b0 r _ZL29PER_CPU_HEAP_COMPLEX_GS_INDEX
ffff8000040411b4 r _ZL13default_flags
ffff8000040411bc r _ZL15INDEX_NOT_EXIST
ffff8000040411c0 r _ZN13PAGE_TBALE_LVL4LV_4E
ffff8000040411c1 r _ZN13PAGE_TBALE_LVL4LV_5E
ffff8000040411c2 r _ZL17KERNEL_SPACE_PCID
ffff8000040411c4 r _ZL16KSPACE_RW_ACCESS
ffff8000040411c8 r _ZL18DESC_SMALL_SEG_MAX
ffff8000040411d0 r _ZL18DEFAULT_PAT_CONFIG
ffff800004041260 r _ZN4ivecL12DIVIDE_ERRORE
ffff800004041261 r _ZN4ivecL5DEBUGE
ffff800004041262 r _ZN4ivecL3NMIE
ffff800004041263 r _ZN4ivecL10BREAKPOINTE
ffff800004041264 r _ZN4ivecL8OVERFLOWE
ffff800004041265 r _ZN4ivecL20BOUND_RANGE_EXCEEDEDE
ffff800004041266 r _ZN4ivecL14INVALID_OPCODEE
ffff800004041267 r _ZN4ivecL20DEVICE_NOT_AVAILABLEE
ffff800004041268 r _ZN4ivecL12DOUBLE_FAULTE
ffff800004041269 r _ZN4ivecL27COPROCESSOR_SEGMENT_OVERRUNE
ffff80000404126a r _ZN4ivecL11INVALID_TSSE
ffff80000404126b r _ZN4ivecL19SEGMENT_NOT_PRESENTE
ffff80000404126c r _ZN4ivecL19STACK_SEGMENT_FAULTE
ffff80000404126d r _ZN4ivecL24GENERAL_PROTECTION_FAULTE
ffff80000404126e r _ZN4ivecL10PAGE_FAULTE
ffff80000404126f r _ZN4ivecL13X87_FPU_ERRORE
ffff800004041270 r _ZN4ivecL15ALIGNMENT_CHECKE
ffff800004041271 r _ZN4ivecL13MACHINE_CHECKE
ffff800004041272 r _ZN4ivecL29SIMD_FLOATING_POINT_EXCEPTIONE
ffff800004041273 r _ZN4ivecL24VIRTUALIZATION_EXCEPTIONE
ffff800004041274 r _ZN4ivecL28CONTROL_PROTECTION_EXCEPTIONE
ffff800004041275 r _ZN4ivecL11LAPIC_TIMERE
ffff800004041276 r _ZN4ivecL3IPIE
ffff800004041277 r _ZN4ivecL21TOP_FOR_TEMPLATE_VECSE
ffff800004041278 r _ZL34interrupt_context_specify_no_magic
ffff80000404127c r _ZL31interrupt_context_specify_magic
ffff800004041280 r _ZL15PAGE_SIZE_IN_LV
ffff8000040412c0 r _ZL16PAGE_OFFSET_MASK
ffff8000040412e8 r _ZL17Max_huge_pg_index
ffff8000040412f0 r _ZN22lineaddr_index_filtersL17PT_INDEX_MASK_lv0E
ffff8000040412f8 r _ZN22lineaddr_index_filtersL17PD_INDEX_MASK_lv1E
ffff800004041300 r _ZN22lineaddr_index_filtersL19PDPT_INDEX_MASK_lv2E
ffff800004041308 r _ZN22lineaddr_index_filtersL19PML4_INDEX_MASK_lv3E
ffff800004041310 r _ZN22lineaddr_index_filtersL19PML5_INDEX_MASK_lv4E
ffff800004041318 r _ZL15PHYS_ADDR_WIDTH
ffff800004041320 r _ZL14PHYS_ADDR_MASK
ffff800004041328 r _ZN14PageTableEntryL5P_BITE
ffff800004041330 r _ZN14PageTableEntryL6RW_BITE
ffff800004041338 r _ZN14PageTableEntryL6US_BITE
ffff800004041340 r _ZN14PageTableEntryL7PWT_BITE
ffff800004041348 r _ZN14PageTableEntryL7PCD_BITE
ffff800004041350 r _ZN14PageTableEntryL5A_BITE
ffff800004041358 r _ZN14PageTableEntryL6XD_BITE
ffff800004041360 r _ZN14PageTableEntryL6P_MASKE
ffff800004041368 r _ZN14PageTableEntryL7RW_MASKE
ffff800004041370 r _ZN14PageTableEntryL7US_MASKE
ffff800004041378 r _ZN14PageTableEntryL8PWT_MASKE
ffff800004041380 r _ZN14PageTableEntryL8PCD_MASKE
ffff800004041388 r _ZN14PageTableEntryL6A_MASKE
ffff800004041390 r _ZN14PageTableEntryL7XD_MASKE
ffff800004041398 r _ZN5PML5EL5R_BITE
ffff8000040413a0 r _ZN5PML5EL6PS_BITE
ffff8000040413a8 r _ZN5PML5EL6R_MASKE
ffff8000040413b0 r _ZN5PML5EL7PS_MASKE
ffff8000040413b8 r _ZN5PML5EL11ADDR_OFFSETE
ffff8000040413c0 r _ZN5PML5EL9ADDR_BITSE
ffff8000040413c8 r _ZN5PML5EL9ADDR_MASKE
ffff8000040413d0 r _ZN5PML4EL5R_BITE
ffff8000040413d8 r _ZN5PML4EL6PS_BITE
ffff8000040413e0 r _ZN5PML4EL6R_MASKE
ffff8000040413e8 r _ZN5PML4EL7PS_MASKE
ffff8000040413f0 r _ZN5PML4EL11ADDR_OFFSETE
ffff8000040413f8 r _ZN5PML4EL9ADDR_BITSE
ffff800004041400 r _ZN5PML4EL9ADDR_MASKE
ffff800004041408 r _ZN5PDPTEL5D_BITE
ffff800004041410 r _ZN5PDPTEL6PS_BITE
ffff800004041418 r _ZN5PDPTEL5G_BITE
ffff800004041420 r _ZN5PDPTEL5R_BITE
ffff800004041428 r _ZN5PDPTEL7PAT_BITE
ffff800004041430 r _ZN5PDPTEL7PK_BITSE
ffff800004041438 r _ZN5PDPTEL6D_MASKE
ffff800004041440 r _ZN5PDPTEL7PS_MASKE
ffff800004041448 r _ZN5PDPTEL6G_MASKE
ffff800004041450 r _ZN5PDPTEL6R_MASKE
ffff800004041458 r _ZN5PDPTEL8PAT_MASKE
ffff800004041460 r _ZN5PDPTEL7PK_MASKE
ffff800004041468 r _ZN5PDPTEL14ADDR_PD_OFFSETE
ffff800004041470 r _ZN5PDPTEL12ADDR_PD_BITSE
ffff800004041478 r _ZN5PDPTEL12ADDR_PD_MASKE
ffff800004041480 r _ZN5PDPTEL15ADDR_1GB_OFFSETE
ffff800004041488 r _ZN5PDPTEL13ADDR_1GB_BITSE
ffff800004041490 r _ZN5PDPTEL13ADDR_1GB_MASKE
ffff800004041498 r _ZN3PDEL5D_BITE
ffff8000040414a0 r _ZN3PDEL6PS_BITE
ffff8000040414a8 r _ZN3PDEL5G_BITE
ffff8000040414b0 r _ZN3PDEL5R_BITE
ffff8000040414b8 r _ZN3PDEL7PAT_BITE
ffff8000040414c0 r _ZN3PDEL7PK_BITSE
ffff8000040414c8 r _ZN3PDEL6D_MASKE
ffff8000040414d0 r _ZN3PDEL7PS_MASKE
ffff8000040414d8 r _ZN3PDEL6G_MASKE
ffff8000040414e0 r _ZN3PDEL6R_MASKE
ffff8000040414e8 r _ZN3PDEL8PAT_MASKE
ffff8000040414f0 r _ZN3PDEL7PK_MASKE
ffff8000040414f8 r _ZN3PDEL14ADDR_PT_OFFSETE
ffff800004041500 r _ZN3PDEL12ADDR_PT_BITSE
ffff800004041508 r _ZN3PDEL12ADDR_PT_MASKE
ffff800004041510 r _ZN3PDEL15ADDR_2MB_OFFSETE
ffff800004041518 r _ZN3PDEL13ADDR_2MB_BITSE
ffff800004041520 r _ZN3PDEL13ADDR_2MB_MASKE
ffff800004041528 r _ZN3PTEL5D_BITE
ffff800004041530 r _ZN3PTEL7PAT_BITE
ffff800004041538 r _ZN3PTEL5G_BITE
ffff800004041540 r _ZN3PTEL5R_BITE
ffff800004041548 r _ZN3PTEL7PK_BITSE
ffff800004041550 r _ZN3PTEL6D_MASKE
ffff800004041558 r _ZN3PTEL8PAT_MASKE
ffff800004041560 r _ZN3PTEL6G_MASKE
ffff800004041568 r _ZN3PTEL6R_MASKE
ffff800004041570 r _ZN3PTEL7PK_MASKE
ffff800004041578 r _ZN3PTEL11ADDR_OFFSETE
ffff800004041580 r _ZN3PTEL9ADDR_BITSE
ffff800004041588 r _ZN3PTEL9ADDR_MASKE
ffff800004041590 r _ZL13ENTRY_PRESENT
ffff800004041591 r _ZL17ENTRY_PRESENT_NOT
ffff800004041592 r _ZL17RWBIT_WRITE_ALLOW
ffff800004041593 r _ZL21RWBIT_WRITE_ALLOW_NOT
ffff800004041594 r _ZL16KERNE_BIT_KERNEL
ffff800004041595 r _ZL20KERNE_BIT_KERNEL_NOT
ffff800004041596 r _ZL17XD_BIT_EXECUTABLE
ffff800004041597 r _ZL21XD_BIT_EXECUTABLE_NOT
ffff800004041598 r _ZN11devices_idsL17DEVICE_ID_UNKNOWNE
ffff8000040415a0 r _ZN11devices_idsL17IO_APIC_DEVICE_IDE
ffff8000040415a8 r _ZL25MAX_PHYADDR_1GB_PGS_COUNT
ffff8000040415c0 r _ZL15PAGE_SIZE_IN_LV
ffff800004041600 r _ZL16PAGE_OFFSET_MASK
ffff800004041628 r _ZL17Max_huge_pg_index
ffff800004041630 r _ZN22lineaddr_index_filtersL17PT_INDEX_MASK_lv0E
ffff800004041638 r _ZN22lineaddr_index_filtersL17PD_INDEX_MASK_lv1E
ffff800004041640 r _ZN22lineaddr_index_filtersL19PDPT_INDEX_MASK_lv2E
ffff800004041648 r _ZN22lineaddr_index_filtersL19PML4_INDEX_MASK_lv3E
ffff800004041650 r _ZN22lineaddr_index_filtersL19PML5_INDEX_MASK_lv4E
ffff800004041658 r _ZL15PHYS_ADDR_WIDTH
ffff800004041660 r _ZL14PHYS_ADDR_MASK
ffff800004041668 r _ZN14PageTableEntryL5P_BITE
ffff800004041670 r _ZN14PageTableEntryL6RW_BITE
ffff800004041678 r _ZN14PageTableEntryL6US_BITE
ffff800004041680 r _ZN14PageTableEntryL7PWT_BITE
ffff800004041688 r _ZN14PageTableEntryL7PCD_BITE
ffff800004041690 r _ZN14PageTableEntryL5A_BITE
ffff800004041698 r _ZN14PageTableEntryL6XD_BITE
ffff8000040416a0 r _ZN14PageTableEntryL6P_MASKE
ffff8000040416a8 r _ZN14PageTableEntryL7RW_MASKE
ffff8000040416b0 r _ZN14PageTableEntryL7US_MASKE
ffff8000040416b8 r _ZN14PageTableEntryL8PWT_MASKE
ffff8000040416c0 r _ZN14PageTableEntryL8PCD_MASKE
ffff8000040416c8 r _ZN14PageTableEntryL6A_MASKE
ffff8000040416d0 r _ZN14PageTableEntryL7XD_MASKE
ffff8000040416d8 r _ZN5PML5EL5R_BITE
ffff8000040416e0 r _ZN5PML5EL6PS_BITE
ffff8000040416e8 r _ZN5PML5EL6R_MASKE
ffff8000040416f0 r _ZN5PML5EL7PS_MASKE
ffff8000040416f8 r _ZN5PML5EL11ADDR_OFFSETE
ffff800004041700 r _ZN5PML5EL9ADDR_BITSE
ffff800004041708 r _ZN5PML5EL9ADDR_MASKE
ffff800004041710 r _ZN5PML4EL5R_BITE
ffff800004041718 r _ZN5PML4EL6PS_BITE
ffff800004041720 r _ZN5PML4EL6R_MASKE
ffff800004041728 r _ZN5PML4EL7PS_MASKE
ffff800004041730 r _ZN5PML4EL11ADDR_OFFSETE
ffff800004041738 r _ZN5PML4EL9ADDR_BITSE
ffff800004041740 r _ZN5PML4EL9ADDR_MASKE
ffff800004041748 r _ZN5PDPTEL5D_BITE
ffff800004041750 r _ZN5PDPTEL6PS_BITE
ffff800004041758 r _ZN5PDPTEL5G_BITE
ffff800004041760 r _ZN5PDPTEL5R_BITE
ffff800004041768 r _ZN5PDPTEL7PAT_BITE
ffff800004041770 r _ZN5PDPTEL7PK_BITSE
ffff800004041778 r _ZN5PDPTEL6D_MASKE
ffff800004041780 r _ZN5PDPTEL7PS_MASKE
ffff800004041788 r _ZN5PDPTEL6G_MASKE
ffff800004041790 r _ZN5PDPTEL6R_MASKE
ffff800004041798 r _ZN5PDPTEL8PAT_MASKE
ffff8000040417a0 r _ZN5PDPTEL7PK_MASKE
ffff8000040417a8 r _ZN5PDPTEL14ADDR_PD_OFFSETE
ffff8000040417b0 r _ZN5PDPTEL12ADDR_PD_BITSE
ffff8000040417b8 r _ZN5PDPTEL12ADDR_PD_MASKE
ffff8000040417c0 r _ZN5PDPTEL15ADDR_1GB_OFFSETE
ffff8000040417c8 r _ZN5PDPTEL13ADDR_1GB_BITSE
ffff8000040417d0 r _ZN5PDPTEL13ADDR_1GB_MASKE
ffff8000040417d8 r _ZN3PDEL5D_BITE
ffff8000040417e0 r _ZN3PDEL6PS_BITE
ffff8000040417e8 r _ZN3PDEL5G_BITE
ffff8000040417f0 r _ZN3PDEL5R_BITE
ffff8000040417f8 r _ZN3PDEL7PAT_BITE
ffff800004041800 r _ZN3PDEL7PK_BITSE
ffff800004041808 r _ZN3PDEL6D_MASKE
ffff800004041810 r _ZN3PDEL7PS_MASKE
ffff800004041818 r _ZN3PDEL6G_MASKE
ffff800004041820 r _ZN3PDEL6R_MASKE
ffff800004041828 r _ZN3PDEL8PAT_MASKE
ffff800004041830 r _ZN3PDEL7PK_MASKE
ffff800004041838 r _ZN3PDEL14ADDR_PT_OFFSETE
ffff800004041840 r _ZN3PDEL12ADDR_PT_BITSE
ffff800004041848 r _ZN3PDEL12ADDR_PT_MASKE
ffff800004041850 r _ZN3PDEL15ADDR_2MB_OFFSETE
ffff800004041858 r _ZN3PDEL13ADDR_2MB_BITSE
ffff800004041860 r _ZN3PDEL13ADDR_2MB_MASKE
ffff800004041868 r _ZN3PTEL5D_BITE
ffff800004041870 r _ZN3PTEL7PAT_BITE
ffff800004041878 r _ZN3PTEL5G_BITE
ffff800004041880 r _ZN3PTEL5R_BITE
ffff800004041888 r _ZN3PTEL7PK_BITSE
ffff800004041890 r _ZN3PTEL6D_MASKE
ffff800004041898 r _ZN3PTEL8PAT_MASKE
ffff8000040418a0 r _ZN3PTEL6G_MASKE
ffff8000040418a8 r _ZN3PTEL6R_MASKE
ffff8000040418b0 r _ZN3PTEL7PK_MASKE
ffff8000040418b8 r _ZN3PTEL11ADDR_OFFSETE
ffff8000040418c0 r _ZN3PTEL9ADDR_BITSE
ffff8000040418c8 r _ZN3PTEL9ADDR_MASKE
ffff8000040418d0 r _ZL13ENTRY_PRESENT
ffff8000040418d1 r _ZL17ENTRY_PRESENT_NOT
ffff8000040418d2 r _ZL17RWBIT_WRITE_ALLOW
ffff8000040418d3 r _ZL21RWBIT_WRITE_ALLOW_NOT
ffff8000040418d4 r _ZL16KERNE_BIT_KERNEL
ffff8000040418d5 r _ZL20KERNE_BIT_KERNEL_NOT
ffff8000040418d6 r _ZL17XD_BIT_EXECUTABLE
ffff8000040418d7 r _ZL21XD_BIT_EXECUTABLE_NOT
ffff8000040418d8 r _ZN11devices_idsL17DEVICE_ID_UNKNOWNE
ffff8000040418e0 r _ZN11devices_idsL17IO_APIC_DEVICE_IDE
ffff8000040418e8 r _ZL25MAX_PHYADDR_1GB_PGS_COUNT
ffff8000040418f0 r _ZN4ivecL12DIVIDE_ERRORE
ffff8000040418f1 r _ZN4ivecL5DEBUGE
ffff8000040418f2 r _ZN4ivecL3NMIE
ffff8000040418f3 r _ZN4ivecL10BREAKPOINTE
ffff8000040418f4 r _ZN4ivecL8OVERFLOWE
ffff8000040418f5 r _ZN4ivecL20BOUND_RANGE_EXCEEDEDE
ffff8000040418f6 r _ZN4ivecL14INVALID_OPCODEE
ffff8000040418f7 r _ZN4ivecL20DEVICE_NOT_AVAILABLEE
ffff8000040418f8 r _ZN4ivecL12DOUBLE_FAULTE
ffff8000040418f9 r _ZN4ivecL27COPROCESSOR_SEGMENT_OVERRUNE
ffff8000040418fa r _ZN4ivecL11INVALID_TSSE
ffff8000040418fb r _ZN4ivecL19SEGMENT_NOT_PRESENTE
ffff8000040418fc r _ZN4ivecL19STACK_SEGMENT_FAULTE
ffff8000040418fd r _ZN4ivecL24GENERAL_PROTECTION_FAULTE
ffff8000040418fe r _ZN4ivecL10PAGE_FAULTE
ffff8000040418ff r _ZN4ivecL13X87_FPU_ERRORE
ffff800004041900 r _ZN4ivecL15ALIGNMENT_CHECKE
ffff800004041901 r _ZN4ivecL13MACHINE_CHECKE
ffff800004041902 r _ZN4ivecL29SIMD_FLOATING_POINT_EXCEPTIONE
ffff800004041903 r _ZN4ivecL24VIRTUALIZATION_EXCEPTIONE
ffff800004041904 r _ZN4ivecL28CONTROL_PROTECTION_EXCEPTIONE
ffff800004041905 r _ZN4ivecL11LAPIC_TIMERE
ffff800004041906 r _ZN4ivecL3IPIE
ffff800004041907 r _ZN4ivecL21TOP_FOR_TEMPLATE_VECSE
ffff800004041908 r _ZL34interrupt_context_specify_no_magic
ffff80000404190c r _ZL31interrupt_context_specify_magic
ffff800004041910 r _ZN8gdtentryL17execute_only_typeE
ffff800004041911 r _ZN8gdtentryL15read_write_typeE
ffff800004041918 r _ZL18kspace_DS_SS_entry
ffff800004041920 r _ZL15kspace_CS_entry
ffff800004041928 r _ZL21userspace_DS_SS_entry
ffff800004041930 r _ZL18userspace_CS_entry
ffff800004041938 r _ZL10base0_mask
ffff800004041940 r _ZL10base1_mask
ffff800004041948 r _ZL10base2_mask
ffff800004041950 r _ZL10base3_mask
ffff800004041958 r _ZL13gdt_headcount
ffff80000404195c r _ZL23GS_SLOT_MAX_ENTRY_COUNT
ffff800004041960 r _ZL26STACK_PROTECTOR_CANARY_IDX
ffff800004041964 r _ZN5xapicL26REG_OFF_ICR_COMMAND_OFFSETE
ffff800004041968 r _ZN5xapicL30REG_OFF_ICR_DESTINATION_OFFSETE
ffff800004041970 r _ZN6x2apicL12ddline_timerE
ffff800004041978 r _ZN6x2apicL20broadcast_exself_icrE
ffff800004041988 r _ZL19ACPI_XSDT_SIGNATURE
ffff800004041998 r _ZL19ACPI_FADT_SIGNATURE
ffff8000040419a8 r _ZL19ACPI_FACS_SIGNATURE
ffff8000040419b8 r _ZL19ACPI_MADT_SIGNATURE
ffff8000040419c8 r _ZL19ACPI_DSDT_SIGNATURE
ffff8000040419d8 r _ZL19ACPI_SSDT_SIGNATURE
ffff8000040419e8 r _ZL19ACPI_MCFG_SIGNATURE
ffff8000040419f8 r _ZL19ACPI_HPET_SIGNATURE
ffff800004041a00 r _ZL21XSDT_SIGNATURE_UINT32
ffff800004041a04 r _ZL21FADT_SIGNATURE_UINT32
ffff800004041a08 r _ZL21FACS_SIGNATURE_UINT32
ffff800004041a0c r _ZL21MADT_SIGNATURE_UINT32
ffff800004041a10 r _ZL21DSDT_SIGNATURE_UINT32
ffff800004041a14 r _ZL21SSDT_SIGNATURE_UINT32
ffff800004041a18 r _ZL21MCFG_SIGNATURE_UINT32
ffff800004041a1c r _ZL21HPET_SIGNATURE_UINT32
ffff800004041a20 r _ZL29PER_CPU_HEAP_COMPLEX_GS_INDEX
ffff800004041a24 r _ZL13default_flags
ffff800004041a2c r _ZL15INDEX_NOT_EXIST
ffff800004041a30 r _ZN13PAGE_TBALE_LVL4LV_4E
ffff800004041a31 r _ZN13PAGE_TBALE_LVL4LV_5E
ffff800004041a32 r _ZL17KERNEL_SPACE_PCID
ffff800004041a34 r _ZL16KSPACE_RW_ACCESS
ffff800004041a38 r _ZL18DESC_SMALL_SEG_MAX
ffff800004041a40 r _ZL18DEFAULT_PAT_CONFIG
ffff800004041a48 r _ZL16CACHE_VMDESC_MAX
ffff800004041a4c r _ZN3msr4apicL14IA32_APIC_BASEE
ffff800004041a50 r _ZN3msr4apicL14IA32_X2APIC_IDE
ffff800004041a54 r _ZN3msr4apicL19IA32_X2APIC_VERSIONE
ffff800004041a58 r _ZN3msr4apicL15IA32_X2APIC_TPRE
ffff800004041a5c r _ZN3msr4apicL15IA32_X2APIC_PPRE
ffff800004041a60 r _ZN3msr4apicL15IA32_X2APIC_EOIE
ffff800004041a64 r _ZN3msr4apicL15IA32_X2APIC_LDRE
ffff800004041a68 r _ZN3msr4apicL15IA32_X2APIC_SVRE
ffff800004041a6c r _ZN3msr4apicL16IA32_X2APIC_ISR0E
ffff800004041a70 r _ZN3msr4apicL16IA32_X2APIC_ISR1E
ffff800004041a74 r _ZN3msr4apicL16IA32_X2APIC_ISR2E
ffff800004041a78 r _ZN3msr4apicL16IA32_X2APIC_ISR3E
ffff800004041a7c r _ZN3msr4apicL16IA32_X2APIC_ISR4E
ffff800004041a80 r _ZN3msr4apicL16IA32_X2APIC_ISR5E
ffff800004041a84 r _ZN3msr4apicL16IA32_X2APIC_ISR6E
ffff800004041a88 r _ZN3msr4apicL16IA32_X2APIC_ISR7E
ffff800004041a8c r _ZN3msr4apicL16IA32_X2APIC_TMR0E
ffff800004041a90 r _ZN3msr4apicL16IA32_X2APIC_TMR1E
ffff800004041a94 r _ZN3msr4apicL16IA32_X2APIC_TMR2E
ffff800004041a98 r _ZN3msr4apicL16IA32_X2APIC_TMR3E
ffff800004041a9c r _ZN3msr4apicL16IA32_X2APIC_TMR4E
ffff800004041aa0 r _ZN3msr4apicL16IA32_X2APIC_TMR5E
ffff800004041aa4 r _ZN3msr4apicL16IA32_X2APIC_TMR6E
ffff800004041aa8 r _ZN3msr4apicL16IA32_X2APIC_TMR7E
ffff800004041aac r _ZN3msr4apicL16IA32_X2APIC_IRR0E
ffff800004041ab0 r _ZN3msr4apicL16IA32_X2APIC_IRR1E
ffff800004041ab4 r _ZN3msr4apicL16IA32_X2APIC_IRR2E
ffff800004041ab8 r _ZN3msr4apicL16IA32_X2APIC_IRR3E
ffff800004041abc r _ZN3msr4apicL16IA32_X2APIC_IRR4E
ffff800004041ac0 r _ZN3msr4apicL16IA32_X2APIC_IRR5E
ffff800004041ac4 r _ZN3msr4apicL16IA32_X2APIC_IRR6E
ffff800004041ac8 r _ZN3msr4apicL16IA32_X2APIC_IRR7E
ffff800004041acc r _ZN3msr4apicL15IA32_X2APIC_ESRE
ffff800004041ad0 r _ZN3msr4apicL20IA32_X2APIC_LVT_CMCIE
ffff800004041ad4 r _ZN3msr4apicL15IA32_X2APIC_ICRE
ffff800004041ad8 r _ZN3msr4apicL21IA32_X2APIC_LVT_TIMERE
ffff800004041adc r _ZN3msr4apicL23IA32_X2APIC_LVT_THERMALE
ffff800004041ae0 r _ZN3msr4apicL19IA32_X2APIC_LVT_PMIE
ffff800004041ae4 r _ZN3msr4apicL21IA32_X2APIC_LVT_LINT0E
ffff800004041ae8 r _ZN3msr4apicL21IA32_X2APIC_LVT_LINT1E
ffff800004041aec r _ZN3msr4apicL21IA32_X2APIC_LVT_ERRORE
ffff800004041af0 r _ZN3msr4apicL31IA32_X2APIC_TIMER_INITIAL_COUNTE
ffff800004041af4 r _ZN3msr4apicL31IA32_X2APIC_TIMER_CURRENT_COUNTE
ffff800004041af8 r _ZN3msr4apicL31IA32_X2APIC_TIMER_DIVIDE_CONFIGE
ffff800004041afc r _ZN3msr4apicL20IA32_X2APIC_SELF_IPIE
ffff800004041b00 r _ZN3msr6systemL20IA32_FEATURE_CONTROLE
ffff800004041b04 r _ZN3msr6systemL8IA32_TSCE
ffff800004041b08 r _ZN3msr6systemL16IA32_PLATFORM_IDE
ffff800004041b0c r _ZN3msr6systemL19IA32_EBL_CR_POWERONE
ffff800004041b10 r _ZN3msr6systemL21IA32_EBC_FREQUENCY_IDE
ffff800004041b14 r _ZN3msr5debugL13IA32_DEBUGCTLE
ffff800004041b18 r _ZN3msr5debugL21IA32_LASTBRANCHFROMIPE
ffff800004041b1c r _ZN3msr5debugL19IA32_LASTBRANCHTOIPE
ffff800004041b20 r _ZN3msr5debugL18IA32_LASTINTFROMIPE
ffff800004041b24 r _ZN3msr5debugL16IA32_LASTINTTOIPE
ffff800004041b28 r _ZN3msr11performanceL10IA32_MPERFE
ffff800004041b2c r _ZN3msr11performanceL10IA32_APERFE
ffff800004041b30 r _ZN3msr11performanceL16IA32_PERF_STATUSE
ffff800004041b34 r _ZN3msr11performanceL13IA32_PERF_CTLE
ffff800004041b38 r _ZN3msr16power_managementL21IA32_CLOCK_MODULATIONE
ffff800004041b3c r _ZN3msr16power_managementL20IA32_THERM_INTERRUPTE
ffff800004041b40 r _ZN3msr16power_managementL17IA32_THERM_STATUSE
ffff800004041b44 r _ZN3msr16power_managementL16IA32_MISC_ENABLEE
ffff800004041b48 r _ZN3msr4mtrrL13IA32_MTRR_CAPE
ffff800004041b4c r _ZN3msr4mtrrL18IA32_MTRR_DEF_TYPEE
ffff800004041b50 r _ZN3msr4mtrrL19IA32_MTRR_PHYSBASE0E
ffff800004041b54 r _ZN3msr4mtrrL19IA32_MTRR_PHYSMASK0E
ffff800004041b58 r _ZN3msr4mtrrL19IA32_MTRR_PHYSBASE1E
ffff800004041b5c r _ZN3msr4mtrrL19IA32_MTRR_PHYSMASK1E
ffff800004041b60 r _ZN3msr4mtrrL19IA32_MTRR_PHYSBASE2E
ffff800004041b64 r _ZN3msr4mtrrL19IA32_MTRR_PHYSMASK2E
ffff800004041b68 r _ZN3msr4mtrrL19IA32_MTRR_PHYSBASE3E
ffff800004041b6c r _ZN3msr4mtrrL19IA32_MTRR_PHYSMASK3E
ffff800004041b70 r _ZN3msr4mtrrL19IA32_MTRR_PHYSBASE4E
ffff800004041b74 r _ZN3msr4mtrrL19IA32_MTRR_PHYSMASK4E
ffff800004041b78 r _ZN3msr4mtrrL19IA32_MTRR_PHYSBASE5E
ffff800004041b7c r _ZN3msr4mtrrL19IA32_MTRR_PHYSMASK5E
ffff800004041b80 r _ZN3msr4mtrrL19IA32_MTRR_PHYSBASE6E
ffff800004041b84 r _ZN3msr4mtrrL19IA32_MTRR_PHYSMASK6E
ffff800004041b88 r _ZN3msr4mtrrL19IA32_MTRR_PHYSBASE7E
ffff800004041b8c r _ZN3msr4mtrrL19IA32_MTRR_PHYSMASK7E
ffff800004041b90 r _ZN3msr4mtrrL19IA32_MTRR_PHYSBASE8E
ffff800004041b94 r _ZN3msr4mtrrL19IA32_MTRR_PHYSMASK8E
ffff800004041b98 r _ZN3msr4mtrrL19IA32_MTRR_PHYSBASE9E
ffff800004041b9c r _ZN3msr4mtrrL19IA32_MTRR_PHYSMASK9E
ffff800004041ba0 r _ZN3msr4mtrrL22IA32_MTRR_FIX64K_00000E
ffff800004041ba4 r _ZN3msr4mtrrL22IA32_MTRR_FIX16K_80000E
ffff800004041ba8 r _ZN3msr4mtrrL22IA32_MTRR_FIX16K_A0000E
ffff800004041bac r _ZN3msr4mtrrL21IA32_MTRR_FIX4K_C0000E
ffff800004041bb0 r _ZN3msr4mtrrL21IA32_MTRR_FIX4K_C8000E
ffff800004041bb4 r _ZN3msr4mtrrL21IA32_MTRR_FIX4K_D0000E
ffff800004041bb8 r _ZN3msr4mtrrL21IA32_MTRR_FIX4K_D8000E
ffff800004041bbc r _ZN3msr4mtrrL21IA32_MTRR_FIX4K_E0000E
ffff800004041bc0 r _ZN3msr4mtrrL21IA32_MTRR_FIX4K_E8000E
ffff800004041bc4 r _ZN3msr4mtrrL21IA32_MTRR_FIX4K_F0000E
ffff800004041bc8 r _ZN3msr4mtrrL21IA32_MTRR_FIX4K_F8000E
ffff800004041bcc r _ZN3msr4mtrrL8IA32_PATE
ffff800004041bd0 r _ZN3msr3vmxL14IA32_VMX_BASICE
ffff800004041bd4 r _ZN3msr3vmxL22IA32_VMX_PINBASED_CTLSE
ffff800004041bd8 r _ZN3msr3vmxL23IA32_VMX_PROCBASED_CTLSE
ffff800004041bdc r _ZN3msr3vmxL18IA32_VMX_EXIT_CTLSE
ffff800004041be0 r _ZN3msr3vmxL19IA32_VMX_ENTRY_CTLSE
ffff800004041be4 r _ZN3msr3vmxL13IA32_VMX_MISCE
ffff800004041be8 r _ZN3msr3vmxL19IA32_VMX_CR0_FIXED0E
ffff800004041bec r _ZN3msr3vmxL19IA32_VMX_CR0_FIXED1E
ffff800004041bf0 r _ZN3msr3vmxL19IA32_VMX_CR4_FIXED0E
ffff800004041bf4 r _ZN3msr3vmxL19IA32_VMX_CR4_FIXED1E
ffff800004041bf8 r _ZN3msr3vmxL18IA32_VMX_VMCS_ENUME
ffff800004041bfc r _ZN3msr3vmxL24IA32_VMX_PROCBASED_CTLS2E
ffff800004041c00 r _ZN3msr3vmxL21IA32_VMX_EPT_VPID_CAPE
ffff800004041c04 r _ZN3msr3vmxL27IA32_VMX_TRUE_PINBASED_CTLSE
ffff800004041c08 r _ZN3msr3vmxL28IA32_VMX_TRUE_PROCBASED_CTLSE
ffff800004041c0c r _ZN3msr3vmxL23IA32_VMX_TRUE_EXIT_CTLSE
ffff800004041c10 r _ZN3msr3vmxL24IA32_VMX_TRUE_ENTRY_CTLSE
ffff800004041c14 r _ZN3msr3vmxL15IA32_VMX_VMFUNCE
ffff800004041c18 r _ZN3msr3sgxL21IA32_SGXLEPUBKEYHASH0E
ffff800004041c1c r _ZN3msr3sgxL21IA32_SGXLEPUBKEYHASH1E
ffff800004041c20 r _ZN3msr3sgxL21IA32_SGXLEPUBKEYHASH2E
ffff800004041c24 r _ZN3msr3sgxL21IA32_SGXLEPUBKEYHASH3E
ffff800004041c28 r _ZN3msr5timerL17IA32_TSC_DEADLINEE
ffff800004041c2c r _ZN3msr7syscallL16IA32_SYSENTER_CSE
ffff800004041c30 r _ZN3msr7syscallL17IA32_SYSENTER_ESPE
ffff800004041c34 r _ZN3msr7syscallL17IA32_SYSENTER_EIPE
ffff800004041c38 r _ZN3msr7syscallL9IA32_STARE
ffff800004041c3c r _ZN3msr7syscallL10IA32_LSTARE
ffff800004041c40 r _ZN3msr7syscallL10IA32_FMASKE
ffff800004041c44 r _ZN3msr7syscallL12IA32_FS_BASEE
ffff800004041c48 r _ZN3msr7syscallL12IA32_GS_BASEE
ffff800004041c4c r _ZN3msr7syscallL19IA32_KERNEL_GS_BASEE
ffff800004041c50 r _ZN3msr7syscallL12IA32_TSC_AUXE
ffff800004041c60 r _ZL16kspace_TSS_entry
ffff800004041f40 r _ZL15PAGE_SIZE_IN_LV
ffff800004041f80 r _ZL16PAGE_OFFSET_MASK
ffff800004041fa8 r _ZL17Max_huge_pg_index
ffff800004041fb0 r _ZN22lineaddr_index_filtersL17PT_INDEX_MASK_lv0E
ffff800004041fb8 r _ZN22lineaddr_index_filtersL17PD_INDEX_MASK_lv1E
ffff800004041fc0 r _ZN22lineaddr_index_filtersL19PDPT_INDEX_MASK_lv2E
ffff800004041fc8 r _ZN22lineaddr_index_filtersL19PML4_INDEX_MASK_lv3E
ffff800004041fd0 r _ZN22lineaddr_index_filtersL19PML5_INDEX_MASK_lv4E
ffff800004041fd8 r _ZL15PHYS_ADDR_WIDTH
ffff800004041fe0 r _ZL14PHYS_ADDR_MASK
ffff800004041fe8 r _ZN14PageTableEntryL5P_BITE
ffff800004041ff0 r _ZN14PageTableEntryL6RW_BITE
ffff800004041ff8 r _ZN14PageTableEntryL6US_BITE
ffff800004042000 r _ZN14PageTableEntryL7PWT_BITE
ffff800004042008 r _ZN14PageTableEntryL7PCD_BITE
ffff800004042010 r _ZN14PageTableEntryL5A_BITE
ffff800004042018 r _ZN14PageTableEntryL6XD_BITE
ffff800004042020 r _ZN14PageTableEntryL6P_MASKE
ffff800004042028 r _ZN14PageTableEntryL7RW_MASKE
ffff800004042030 r _ZN14PageTableEntryL7US_MASKE
ffff800004042038 r _ZN14PageTableEntryL8PWT_MASKE
ffff800004042040 r _ZN14PageTableEntryL8PCD_MASKE
ffff800004042048 r _ZN14PageTableEntryL6A_MASKE
ffff800004042050 r _ZN14PageTableEntryL7XD_MASKE
ffff800004042058 r _ZN5PML5EL5R_BITE
ffff800004042060 r _ZN5PML5EL6PS_BITE
ffff800004042068 r _ZN5PML5EL6R_MASKE
ffff800004042070 r _ZN5PML5EL7PS_MASKE
ffff800004042078 r _ZN5PML5EL11ADDR_OFFSETE
ffff800004042080 r _ZN5PML5EL9ADDR_BITSE
ffff800004042088 r _ZN5PML5EL9ADDR_MASKE
ffff800004042090 r _ZN5PML4EL5R_BITE
ffff800004042098 r _ZN5PML4EL6PS_BITE
ffff8000040420a0 r _ZN5PML4EL6R_MASKE
ffff8000040420a8 r _ZN5PML4EL7PS_MASKE
ffff8000040420b0 r _ZN5PML4EL11ADDR_OFFSETE
ffff8000040420b8 r _ZN5PML4EL9ADDR_BITSE
ffff8000040420c0 r _ZN5PML4EL9ADDR_MASKE
ffff8000040420c8 r _ZN5PDPTEL5D_BITE
ffff8000040420d0 r _ZN5PDPTEL6PS_BITE
ffff8000040420d8 r _ZN5PDPTEL5G_BITE
ffff8000040420e0 r _ZN5PDPTEL5R_BITE
ffff8000040420e8 r _ZN5PDPTEL7PAT_BITE
ffff8000040420f0 r _ZN5PDPTEL7PK_BITSE
ffff8000040420f8 r _ZN5PDPTEL6D_MASKE
ffff800004042100 r _ZN5PDPTEL7PS_MASKE
ffff800004042108 r _ZN5PDPTEL6G_MASKE
ffff800004042110 r _ZN5PDPTEL6R_MASKE
ffff800004042118 r _ZN5PDPTEL8PAT_MASKE
ffff800004042120 r _ZN5PDPTEL7PK_MASKE
ffff800004042128 r _ZN5PDPTEL14ADDR_PD_OFFSETE
ffff800004042130 r _ZN5PDPTEL12ADDR_PD_BITSE
ffff800004042138 r _ZN5PDPTEL12ADDR_PD_MASKE
ffff800004042140 r _ZN5PDPTEL15ADDR_1GB_OFFSETE
ffff800004042148 r _ZN5PDPTEL13ADDR_1GB_BITSE
ffff800004042150 r _ZN5PDPTEL13ADDR_1GB_MASKE
ffff800004042158 r _ZN3PDEL5D_BITE
ffff800004042160 r _ZN3PDEL6PS_BITE
ffff800004042168 r _ZN3PDEL5G_BITE
ffff800004042170 r _ZN3PDEL5R_BITE
ffff800004042178 r _ZN3PDEL7PAT_BITE
ffff800004042180 r _ZN3PDEL7PK_BITSE
ffff800004042188 r _ZN3PDEL6D_MASKE
ffff800004042190 r _ZN3PDEL7PS_MASKE
ffff800004042198 r _ZN3PDEL6G_MASKE
ffff8000040421a0 r _ZN3PDEL6R_MASKE
ffff8000040421a8 r _ZN3PDEL8PAT_MASKE
ffff8000040421b0 r _ZN3PDEL7PK_MASKE
ffff8000040421b8 r _ZN3PDEL14ADDR_PT_OFFSETE
ffff8000040421c0 r _ZN3PDEL12ADDR_PT_BITSE
ffff8000040421c8 r _ZN3PDEL12ADDR_PT_MASKE
ffff8000040421d0 r _ZN3PDEL15ADDR_2MB_OFFSETE
ffff8000040421d8 r _ZN3PDEL13ADDR_2MB_BITSE
ffff8000040421e0 r _ZN3PDEL13ADDR_2MB_MASKE
ffff8000040421e8 r _ZN3PTEL5D_BITE
ffff8000040421f0 r _ZN3PTEL7PAT_BITE
ffff8000040421f8 r _ZN3PTEL5G_BITE
ffff800004042200 r _ZN3PTEL5R_BITE
ffff800004042208 r _ZN3PTEL7PK_BITSE
ffff800004042210 r _ZN3PTEL6D_MASKE
ffff800004042218 r _ZN3PTEL8PAT_MASKE
ffff800004042220 r _ZN3PTEL6G_MASKE
ffff800004042228 r _ZN3PTEL6R_MASKE
ffff800004042230 r _ZN3PTEL7PK_MASKE
ffff800004042238 r _ZN3PTEL11ADDR_OFFSETE
ffff800004042240 r _ZN3PTEL9ADDR_BITSE
ffff800004042248 r _ZN3PTEL9ADDR_MASKE
ffff800004042250 r _ZL13ENTRY_PRESENT
ffff800004042251 r _ZL17ENTRY_PRESENT_NOT
ffff800004042252 r _ZL17RWBIT_WRITE_ALLOW
ffff800004042253 r _ZL21RWBIT_WRITE_ALLOW_NOT
ffff800004042254 r _ZL16KERNE_BIT_KERNEL
ffff800004042255 r _ZL20KERNE_BIT_KERNEL_NOT
ffff800004042256 r _ZL17XD_BIT_EXECUTABLE
ffff800004042257 r _ZL21XD_BIT_EXECUTABLE_NOT
ffff800004042258 r _ZN11devices_idsL17DEVICE_ID_UNKNOWNE
ffff800004042260 r _ZN11devices_idsL17IO_APIC_DEVICE_IDE
ffff800004042268 r _ZL25MAX_PHYADDR_1GB_PGS_COUNT
ffff800004042278 r _ZL19ACPI_XSDT_SIGNATURE
ffff800004042288 r _ZL19ACPI_FADT_SIGNATURE
ffff800004042298 r _ZL19ACPI_FACS_SIGNATURE
ffff8000040422a8 r _ZL19ACPI_MADT_SIGNATURE
ffff8000040422b8 r _ZL19ACPI_DSDT_SIGNATURE
ffff8000040422c8 r _ZL19ACPI_SSDT_SIGNATURE
ffff8000040422d8 r _ZL19ACPI_MCFG_SIGNATURE
ffff8000040422e8 r _ZL19ACPI_HPET_SIGNATURE
ffff8000040422f0 r _ZL21XSDT_SIGNATURE_UINT32
ffff8000040422f4 r _ZL21FADT_SIGNATURE_UINT32
ffff8000040422f8 r _ZL21FACS_SIGNATURE_UINT32
ffff8000040422fc r _ZL21MADT_SIGNATURE_UINT32
ffff800004042300 r _ZL21DSDT_SIGNATURE_UINT32
ffff800004042304 r _ZL21SSDT_SIGNATURE_UINT32
ffff800004042308 r _ZL21MCFG_SIGNATURE_UINT32
ffff80000404230c r _ZL21HPET_SIGNATURE_UINT32
ffff800004042310 r _ZL29PER_CPU_HEAP_COMPLEX_GS_INDEX
ffff800004042314 r _ZL13default_flags
ffff80000404231c r _ZL15INDEX_NOT_EXIST
ffff800004042320 r _ZN3msr4apicL14IA32_APIC_BASEE
ffff800004042324 r _ZN3msr4apicL14IA32_X2APIC_IDE
ffff800004042328 r _ZN3msr4apicL19IA32_X2APIC_VERSIONE
ffff80000404232c r _ZN3msr4apicL15IA32_X2APIC_TPRE
ffff800004042330 r _ZN3msr4apicL15IA32_X2APIC_PPRE
ffff800004042334 r _ZN3msr4apicL15IA32_X2APIC_EOIE
ffff800004042338 r _ZN3msr4apicL15IA32_X2APIC_LDRE
ffff80000404233c r _ZN3msr4apicL15IA32_X2APIC_SVRE
ffff800004042340 r _ZN3msr4apicL16IA32_X2APIC_ISR0E
ffff800004042344 r _ZN3msr4apicL16IA32_X2APIC_ISR1E
ffff800004042348 r _ZN3msr4apicL16IA32_X2APIC_ISR2E
ffff80000404234c r _ZN3msr4apicL16IA32_X2APIC_ISR3E
ffff800004042350 r _ZN3msr4apicL16IA32_X2APIC_ISR4E
ffff800004042354 r _ZN3msr4apicL16IA32_X2APIC_ISR5E
ffff800004042358 r _ZN3msr4apicL16IA32_X2APIC_ISR6E
ffff80000404235c r _ZN3msr4apicL16IA32_X2APIC_ISR7E
ffff800004042360 r _ZN3msr4apicL16IA32_X2APIC_TMR0E
ffff800004042364 r _ZN3msr4apicL16IA32_X2APIC_TMR1E
ffff800004042368 r _ZN3msr4apicL16IA32_X2APIC_TMR2E
ffff80000404236c r _ZN3msr4apicL16IA32_X2APIC_TMR3E
ffff800004042370 r _ZN3msr4apicL16IA32_X2APIC_TMR4E
ffff800004042374 r _ZN3msr4apicL16IA32_X2APIC_TMR5E
ffff800004042378 r _ZN3msr4apicL16IA32_X2APIC_TMR6E
ffff80000404237c r _ZN3msr4apicL16IA32_X2APIC_TMR7E
ffff800004042380 r _ZN3msr4apicL16IA32_X2APIC_IRR0E
ffff800004042384 r _ZN3msr4apicL16IA32_X2APIC_IRR1E
ffff800004042388 r _ZN3msr4apicL16IA32_X2APIC_IRR2E
ffff80000404238c r _ZN3msr4apicL16IA32_X2APIC_IRR3E
ffff800004042390 r _ZN3msr4apicL16IA32_X2APIC_IRR4E
ffff800004042394 r _ZN3msr4apicL16IA32_X2APIC_IRR5E
ffff800004042398 r _ZN3msr4apicL16IA32_X2APIC_IRR6E
ffff80000404239c r _ZN3msr4apicL16IA32_X2APIC_IRR7E
ffff8000040423a0 r _ZN3msr4apicL15IA32_X2APIC_ESRE
ffff8000040423a4 r _ZN3msr4apicL20IA32_X2APIC_LVT_CMCIE
ffff8000040423a8 r _ZN3msr4apicL15IA32_X2APIC_ICRE
ffff8000040423ac r _ZN3msr4apicL21IA32_X2APIC_LVT_TIMERE
ffff8000040423b0 r _ZN3msr4apicL23IA32_X2APIC_LVT_THERMALE
ffff8000040423b4 r _ZN3msr4apicL19IA32_X2APIC_LVT_PMIE
ffff8000040423b8 r _ZN3msr4apicL21IA32_X2APIC_LVT_LINT0E
ffff8000040423bc r _ZN3msr4apicL21IA32_X2APIC_LVT_LINT1E
ffff8000040423c0 r _ZN3msr4apicL21IA32_X2APIC_LVT_ERRORE
ffff8000040423c4 r _ZN3msr4apicL31IA32_X2APIC_TIMER_INITIAL_COUNTE
ffff8000040423c8 r _ZN3msr4apicL31IA32_X2APIC_TIMER_CURRENT_COUNTE
ffff8000040423cc r _ZN3msr4apicL31IA32_X2APIC_TIMER_DIVIDE_CONFIGE
ffff8000040423d0 r _ZN3msr4apicL20IA32_X2APIC_SELF_IPIE
ffff8000040423d4 r _ZN3msr6systemL20IA32_FEATURE_CONTROLE
ffff8000040423d8 r _ZN3msr6systemL8IA32_TSCE
ffff8000040423dc r _ZN3msr6systemL16IA32_PLATFORM_IDE
ffff8000040423e0 r _ZN3msr6systemL19IA32_EBL_CR_POWERONE
ffff8000040423e4 r _ZN3msr6systemL21IA32_EBC_FREQUENCY_IDE
ffff8000040423e8 r _ZN3msr5debugL13IA32_DEBUGCTLE
ffff8000040423ec r _ZN3msr5debugL21IA32_LASTBRANCHFROMIPE
ffff8000040423f0 r _ZN3msr5debugL19IA32_LASTBRANCHTOIPE
ffff8000040423f4 r _ZN3msr5debugL18IA32_LASTINTFROMIPE
ffff8000040423f8 r _ZN3msr5debugL16IA32_LASTINTTOIPE
ffff8000040423fc r _ZN3msr11performanceL10IA32_MPERFE
ffff800004042400 r _ZN3msr11performanceL10IA32_APERFE
ffff800004042404 r _ZN3msr11performanceL16IA32_PERF_STATUSE
ffff800004042408 r _ZN3msr11performanceL13IA32_PERF_CTLE
ffff80000404240c r _ZN3msr16power_managementL21IA32_CLOCK_MODULATIONE
ffff800004042410 r _ZN3msr16power_managementL20IA32_THERM_INTERRUPTE
ffff800004042414 r _ZN3msr16power_managementL17IA32_THERM_STATUSE
ffff800004042418 r _ZN3msr16power_managementL16IA32_MISC_ENABLEE
ffff80000404241c r _ZN3msr4mtrrL13IA32_MTRR_CAPE
ffff800004042420 r _ZN3msr4mtrrL18IA32_MTRR_DEF_TYPEE
ffff800004042424 r _ZN3msr4mtrrL19IA32_MTRR_PHYSBASE0E
ffff800004042428 r _ZN3msr4mtrrL19IA32_MTRR_PHYSMASK0E
ffff80000404242c r _ZN3msr4mtrrL19IA32_MTRR_PHYSBASE1E
ffff800004042430 r _ZN3msr4mtrrL19IA32_MTRR_PHYSMASK1E
ffff800004042434 r _ZN3msr4mtrrL19IA32_MTRR_PHYSBASE2E
ffff800004042438 r _ZN3msr4mtrrL19IA32_MTRR_PHYSMASK2E
ffff80000404243c r _ZN3msr4mtrrL19IA32_MTRR_PHYSBASE3E
ffff800004042440 r _ZN3msr4mtrrL19IA32_MTRR_PHYSMASK3E
ffff800004042444 r _ZN3msr4mtrrL19IA32_MTRR_PHYSBASE4E
ffff800004042448 r _ZN3msr4mtrrL19IA32_MTRR_PHYSMASK4E
ffff80000404244c r _ZN3msr4mtrrL19IA32_MTRR_PHYSBASE5E
ffff800004042450 r _ZN3msr4mtrrL19IA32_MTRR_PHYSMASK5E
ffff800004042454 r _ZN3msr4mtrrL19IA32_MTRR_PHYSBASE6E
ffff800004042458 r _ZN3msr4mtrrL19IA32_MTRR_PHYSMASK6E
ffff80000404245c r _ZN3msr4mtrrL19IA32_MTRR_PHYSBASE7E
ffff800004042460 r _ZN3msr4mtrrL19IA32_MTRR_PHYSMASK7E
ffff800004042464 r _ZN3msr4mtrrL19IA32_MTRR_PHYSBASE8E
ffff800004042468 r _ZN3msr4mtrrL19IA32_MTRR_PHYSMASK8E
ffff80000404246c r _ZN3msr4mtrrL19IA32_MTRR_PHYSBASE9E
ffff800004042470 r _ZN3msr4mtrrL19IA32_MTRR_PHYSMASK9E
ffff800004042474 r _ZN3msr4mtrrL22IA32_MTRR_FIX64K_00000E
ffff800004042478 r _ZN3msr4mtrrL22IA32_MTRR_FIX16K_80000E
ffff80000404247c r _ZN3msr4mtrrL22IA32_MTRR_FIX16K_A0000E
ffff800004042480 r _ZN3msr4mtrrL21IA32_MTRR_FIX4K_C0000E
ffff800004042484 r _ZN3msr4mtrrL21IA32_MTRR_FIX4K_C8000E
ffff800004042488 r _ZN3msr4mtrrL21IA32_MTRR_FIX4K_D0000E
ffff80000404248c r _ZN3msr4mtrrL21IA32_MTRR_FIX4K_D8000E
ffff800004042490 r _ZN3msr4mtrrL21IA32_MTRR_FIX4K_E0000E
ffff800004042494 r _ZN3msr4mtrrL21IA32_MTRR_FIX4K_E8000E
ffff800004042498 r _ZN3msr4mtrrL21IA32_MTRR_FIX4K_F0000E
ffff80000404249c r _ZN3msr4mtrrL21IA32_MTRR_FIX4K_F8000E
ffff8000040424a0 r _ZN3msr4mtrrL8IA32_PATE
ffff8000040424a4 r _ZN3msr3vmxL14IA32_VMX_BASICE
ffff8000040424a8 r _ZN3msr3vmxL22IA32_VMX_PINBASED_CTLSE
ffff8000040424ac r _ZN3msr3vmxL23IA32_VMX_PROCBASED_CTLSE
ffff8000040424b0 r _ZN3msr3vmxL18IA32_VMX_EXIT_CTLSE
ffff8000040424b4 r _ZN3msr3vmxL19IA32_VMX_ENTRY_CTLSE
ffff8000040424b8 r _ZN3msr3vmxL13IA32_VMX_MISCE
ffff8000040424bc r _ZN3msr3vmxL19IA32_VMX_CR0_FIXED0E
ffff8000040424c0 r _ZN3msr3vmxL19IA32_VMX_CR0_FIXED1E
ffff8000040424c4 r _ZN3msr3vmxL19IA32_VMX_CR4_FIXED0E
ffff8000040424c8 r _ZN3msr3vmxL19IA32_VMX_CR4_FIXED1E
ffff8000040424cc r _ZN3msr3vmxL18IA32_VMX_VMCS_ENUME
ffff8000040424d0 r _ZN3msr3vmxL24IA32_VMX_PROCBASED_CTLS2E
ffff8000040424d4 r _ZN3msr3vmxL21IA32_VMX_EPT_VPID_CAPE
ffff8000040424d8 r _ZN3msr3vmxL27IA32_VMX_TRUE_PINBASED_CTLSE
ffff8000040424dc r _ZN3msr3vmxL28IA32_VMX_TRUE_PROCBASED_CTLSE
ffff8000040424e0 r _ZN3msr3vmxL23IA32_VMX_TRUE_EXIT_CTLSE
ffff8000040424e4 r _ZN3msr3vmxL24IA32_VMX_TRUE_ENTRY_CTLSE
ffff8000040424e8 r _ZN3msr3vmxL15IA32_VMX_VMFUNCE
ffff8000040424ec r _ZN3msr3sgxL21IA32_SGXLEPUBKEYHASH0E
ffff8000040424f0 r _ZN3msr3sgxL21IA32_SGXLEPUBKEYHASH1E
ffff8000040424f4 r _ZN3msr3sgxL21IA32_SGXLEPUBKEYHASH2E
ffff8000040424f8 r _ZN3msr3sgxL21IA32_SGXLEPUBKEYHASH3E
ffff8000040424fc r _ZN3msr5timerL17IA32_TSC_DEADLINEE
ffff800004042500 r _ZN3msr7syscallL16IA32_SYSENTER_CSE
ffff800004042504 r _ZN3msr7syscallL17IA32_SYSENTER_ESPE
ffff800004042508 r _ZN3msr7syscallL17IA32_SYSENTER_EIPE
ffff80000404250c r _ZN3msr7syscallL9IA32_STARE
ffff800004042510 r _ZN3msr7syscallL10IA32_LSTARE
ffff800004042514 r _ZN3msr7syscallL10IA32_FMASKE
ffff800004042518 r _ZN3msr7syscallL12IA32_FS_BASEE
ffff80000404251c r _ZN3msr7syscallL12IA32_GS_BASEE
ffff800004042520 r _ZN3msr7syscallL19IA32_KERNEL_GS_BASEE
ffff800004042524 r _ZN3msr7syscallL12IA32_TSC_AUXE
ffff800004042540 r _ZL15PAGE_SIZE_IN_LV
ffff800004042580 r _ZL16PAGE_OFFSET_MASK
ffff8000040425a8 r _ZL17Max_huge_pg_index
ffff8000040425b0 r _ZN22lineaddr_index_filtersL17PT_INDEX_MASK_lv0E
ffff8000040425b8 r _ZN22lineaddr_index_filtersL17PD_INDEX_MASK_lv1E
ffff8000040425c0 r _ZN22lineaddr_index_filtersL19PDPT_INDEX_MASK_lv2E
ffff8000040425c8 r _ZN22lineaddr_index_filtersL19PML4_INDEX_MASK_lv3E
ffff8000040425d0 r _ZN22lineaddr_index_filtersL19PML5_INDEX_MASK_lv4E
ffff8000040425d8 r _ZL15PHYS_ADDR_WIDTH
ffff8000040425e0 r _ZL14PHYS_ADDR_MASK
ffff8000040425e8 r _ZN14PageTableEntryL5P_BITE
ffff8000040425f0 r _ZN14PageTableEntryL6RW_BITE
ffff8000040425f8 r _ZN14PageTableEntryL6US_BITE
ffff800004042600 r _ZN14PageTableEntryL7PWT_BITE
ffff800004042608 r _ZN14PageTableEntryL7PCD_BITE
ffff800004042610 r _ZN14PageTableEntryL5A_BITE
ffff800004042618 r _ZN14PageTableEntryL6XD_BITE
ffff800004042620 r _ZN14PageTableEntryL6P_MASKE
ffff800004042628 r _ZN14PageTableEntryL7RW_MASKE
ffff800004042630 r _ZN14PageTableEntryL7US_MASKE
ffff800004042638 r _ZN14PageTableEntryL8PWT_MASKE
ffff800004042640 r _ZN14PageTableEntryL8PCD_MASKE
ffff800004042648 r _ZN14PageTableEntryL6A_MASKE
ffff800004042650 r _ZN14PageTableEntryL7XD_MASKE
ffff800004042658 r _ZN5PML5EL5R_BITE
ffff800004042660 r _ZN5PML5EL6PS_BITE
ffff800004042668 r _ZN5PML5EL6R_MASKE
ffff800004042670 r _ZN5PML5EL7PS_MASKE
ffff800004042678 r _ZN5PML5EL11ADDR_OFFSETE
ffff800004042680 r _ZN5PML5EL9ADDR_BITSE
ffff800004042688 r _ZN5PML5EL9ADDR_MASKE
ffff800004042690 r _ZN5PML4EL5R_BITE
ffff800004042698 r _ZN5PML4EL6PS_BITE
ffff8000040426a0 r _ZN5PML4EL6R_MASKE
ffff8000040426a8 r _ZN5PML4EL7PS_MASKE
ffff8000040426b0 r _ZN5PML4EL11ADDR_OFFSETE
ffff8000040426b8 r _ZN5PML4EL9ADDR_BITSE
ffff8000040426c0 r _ZN5PML4EL9ADDR_MASKE
ffff8000040426c8 r _ZN5PDPTEL5D_BITE
ffff8000040426d0 r _ZN5PDPTEL6PS_BITE
ffff8000040426d8 r _ZN5PDPTEL5G_BITE
ffff8000040426e0 r _ZN5PDPTEL5R_BITE
ffff8000040426e8 r _ZN5PDPTEL7PAT_BITE
ffff8000040426f0 r _ZN5PDPTEL7PK_BITSE
ffff8000040426f8 r _ZN5PDPTEL6D_MASKE
ffff800004042700 r _ZN5PDPTEL7PS_MASKE
ffff800004042708 r _ZN5PDPTEL6G_MASKE
ffff800004042710 r _ZN5PDPTEL6R_MASKE
ffff800004042718 r _ZN5PDPTEL8PAT_MASKE
ffff800004042720 r _ZN5PDPTEL7PK_MASKE
ffff800004042728 r _ZN5PDPTEL14ADDR_PD_OFFSETE
ffff800004042730 r _ZN5PDPTEL12ADDR_PD_BITSE
ffff800004042738 r _ZN5PDPTEL12ADDR_PD_MASKE
ffff800004042740 r _ZN5PDPTEL15ADDR_1GB_OFFSETE
ffff800004042748 r _ZN5PDPTEL13ADDR_1GB_BITSE
ffff800004042750 r _ZN5PDPTEL13ADDR_1GB_MASKE
ffff800004042758 r _ZN3PDEL5D_BITE
ffff800004042760 r _ZN3PDEL6PS_BITE
ffff800004042768 r _ZN3PDEL5G_BITE
ffff800004042770 r _ZN3PDEL5R_BITE
ffff800004042778 r _ZN3PDEL7PAT_BITE
ffff800004042780 r _ZN3PDEL7PK_BITSE
ffff800004042788 r _ZN3PDEL6D_MASKE
ffff800004042790 r _ZN3PDEL7PS_MASKE
ffff800004042798 r _ZN3PDEL6G_MASKE
ffff8000040427a0 r _ZN3PDEL6R_MASKE
ffff8000040427a8 r _ZN3PDEL8PAT_MASKE
ffff8000040427b0 r _ZN3PDEL7PK_MASKE
ffff8000040427b8 r _ZN3PDEL14ADDR_PT_OFFSETE
ffff8000040427c0 r _ZN3PDEL12ADDR_PT_BITSE
ffff8000040427c8 r _ZN3PDEL12ADDR_PT_MASKE
ffff8000040427d0 r _ZN3PDEL15ADDR_2MB_OFFSETE
ffff8000040427d8 r _ZN3PDEL13ADDR_2MB_BITSE
ffff8000040427e0 r _ZN3PDEL13ADDR_2MB_MASKE
ffff8000040427e8 r _ZN3PTEL5D_BITE
ffff8000040427f0 r _ZN3PTEL7PAT_BITE
ffff8000040427f8 r _ZN3PTEL5G_BITE
ffff800004042800 r _ZN3PTEL5R_BITE
ffff800004042808 r _ZN3PTEL7PK_BITSE
ffff800004042810 r _ZN3PTEL6D_MASKE
ffff800004042818 r _ZN3PTEL8PAT_MASKE
ffff800004042820 r _ZN3PTEL6G_MASKE
ffff800004042828 r _ZN3PTEL6R_MASKE
ffff800004042830 r _ZN3PTEL7PK_MASKE
ffff800004042838 r _ZN3PTEL11ADDR_OFFSETE
ffff800004042840 r _ZN3PTEL9ADDR_BITSE
ffff800004042848 r _ZN3PTEL9ADDR_MASKE
ffff800004042850 r _ZL13ENTRY_PRESENT
ffff800004042851 r _ZL17ENTRY_PRESENT_NOT
ffff800004042852 r _ZL17RWBIT_WRITE_ALLOW
ffff800004042853 r _ZL21RWBIT_WRITE_ALLOW_NOT
ffff800004042854 r _ZL16KERNE_BIT_KERNEL
ffff800004042855 r _ZL20KERNE_BIT_KERNEL_NOT
ffff800004042856 r _ZL17XD_BIT_EXECUTABLE
ffff800004042857 r _ZL21XD_BIT_EXECUTABLE_NOT
ffff800004042858 r _ZN11devices_idsL17DEVICE_ID_UNKNOWNE
ffff800004042860 r _ZN11devices_idsL17IO_APIC_DEVICE_IDE
ffff800004042868 r _ZL25MAX_PHYADDR_1GB_PGS_COUNT
ffff800004042878 r _ZL19ACPI_XSDT_SIGNATURE
ffff800004042888 r _ZL19ACPI_FADT_SIGNATURE
ffff800004042898 r _ZL19ACPI_FACS_SIGNATURE
ffff8000040428a8 r _ZL19ACPI_MADT_SIGNATURE
ffff8000040428b8 r _ZL19ACPI_DSDT_SIGNATURE
ffff8000040428c8 r _ZL19ACPI_SSDT_SIGNATURE
ffff8000040428d8 r _ZL19ACPI_MCFG_SIGNATURE
ffff8000040428e8 r _ZL19ACPI_HPET_SIGNATURE
ffff8000040428f0 r _ZL21XSDT_SIGNATURE_UINT32
ffff8000040428f4 r _ZL21FADT_SIGNATURE_UINT32
ffff8000040428f8 r _ZL21FACS_SIGNATURE_UINT32
ffff8000040428fc r _ZL21MADT_SIGNATURE_UINT32
ffff800004042900 r _ZL21DSDT_SIGNATURE_UINT32
ffff800004042904 r _ZL21SSDT_SIGNATURE_UINT32
ffff800004042908 r _ZL21MCFG_SIGNATURE_UINT32
ffff80000404290c r _ZL21HPET_SIGNATURE_UINT32
ffff800004042910 r _ZL29PER_CPU_HEAP_COMPLEX_GS_INDEX
ffff800004042914 r _ZL13default_flags
ffff80000404291c r _ZL15INDEX_NOT_EXIST
ffff800004042920 r _ZL15PAGE_SIZE_IN_LV
ffff800004042960 r _ZL16PAGE_OFFSET_MASK
ffff800004042988 r _ZL17Max_huge_pg_index
ffff800004042990 r _ZN22lineaddr_index_filtersL17PT_INDEX_MASK_lv0E
ffff800004042998 r _ZN22lineaddr_index_filtersL17PD_INDEX_MASK_lv1E
ffff8000040429a0 r _ZN22lineaddr_index_filtersL19PDPT_INDEX_MASK_lv2E
ffff8000040429a8 r _ZN22lineaddr_index_filtersL19PML4_INDEX_MASK_lv3E
ffff8000040429b0 r _ZN22lineaddr_index_filtersL19PML5_INDEX_MASK_lv4E
ffff8000040429b8 r _ZL15PHYS_ADDR_WIDTH
ffff8000040429c0 r _ZL14PHYS_ADDR_MASK
ffff8000040429c8 r _ZN14PageTableEntryL5P_BITE
ffff8000040429d0 r _ZN14PageTableEntryL6RW_BITE
ffff8000040429d8 r _ZN14PageTableEntryL6US_BITE
ffff8000040429e0 r _ZN14PageTableEntryL7PWT_BITE
ffff8000040429e8 r _ZN14PageTableEntryL7PCD_BITE
ffff8000040429f0 r _ZN14PageTableEntryL5A_BITE
ffff8000040429f8 r _ZN14PageTableEntryL6XD_BITE
ffff800004042a00 r _ZN14PageTableEntryL6P_MASKE
ffff800004042a08 r _ZN14PageTableEntryL7RW_MASKE
ffff800004042a10 r _ZN14PageTableEntryL7US_MASKE
ffff800004042a18 r _ZN14PageTableEntryL8PWT_MASKE
ffff800004042a20 r _ZN14PageTableEntryL8PCD_MASKE
ffff800004042a28 r _ZN14PageTableEntryL6A_MASKE
ffff800004042a30 r _ZN14PageTableEntryL7XD_MASKE
ffff800004042a38 r _ZN5PML5EL5R_BITE
ffff800004042a40 r _ZN5PML5EL6PS_BITE
ffff800004042a48 r _ZN5PML5EL6R_MASKE
ffff800004042a50 r _ZN5PML5EL7PS_MASKE
ffff800004042a58 r _ZN5PML5EL11ADDR_OFFSETE
ffff800004042a60 r _ZN5PML5EL9ADDR_BITSE
ffff800004042a68 r _ZN5PML5EL9ADDR_MASKE
ffff800004042a70 r _ZN5PML4EL5R_BITE
ffff800004042a78 r _ZN5PML4EL6PS_BITE
ffff800004042a80 r _ZN5PML4EL6R_MASKE
ffff800004042a88 r _ZN5PML4EL7PS_MASKE
ffff800004042a90 r _ZN5PML4EL11ADDR_OFFSETE
ffff800004042a98 r _ZN5PML4EL9ADDR_BITSE
ffff800004042aa0 r _ZN5PML4EL9ADDR_MASKE
ffff800004042aa8 r _ZN5PDPTEL5D_BITE
ffff800004042ab0 r _ZN5PDPTEL6PS_BITE
ffff800004042ab8 r _ZN5PDPTEL5G_BITE
ffff800004042ac0 r _ZN5PDPTEL5R_BITE
ffff800004042ac8 r _ZN5PDPTEL7PAT_BITE
ffff800004042ad0 r _ZN5PDPTEL7PK_BITSE
ffff800004042ad8 r _ZN5PDPTEL6D_MASKE
ffff800004042ae0 r _ZN5PDPTEL7PS_MASKE
ffff800004042ae8 r _ZN5PDPTEL6G_MASKE
ffff800004042af0 r _ZN5PDPTEL6R_MASKE
ffff800004042af8 r _ZN5PDPTEL8PAT_MASKE
ffff800004042b00 r _ZN5PDPTEL7PK_MASKE
ffff800004042b08 r _ZN5PDPTEL14ADDR_PD_OFFSETE
ffff800004042b10 r _ZN5PDPTEL12ADDR_PD_BITSE
ffff800004042b18 r _ZN5PDPTEL12ADDR_PD_MASKE
ffff800004042b20 r _ZN5PDPTEL15ADDR_1GB_OFFSETE
ffff800004042b28 r _ZN5PDPTEL13ADDR_1GB_BITSE
ffff800004042b30 r _ZN5PDPTEL13ADDR_1GB_MASKE
ffff800004042b38 r _ZN3PDEL5D_BITE
ffff800004042b40 r _ZN3PDEL6PS_BITE
ffff800004042b48 r _ZN3PDEL5G_BITE
ffff800004042b50 r _ZN3PDEL5R_BITE
ffff800004042b58 r _ZN3PDEL7PAT_BITE
ffff800004042b60 r _ZN3PDEL7PK_BITSE
ffff800004042b68 r _ZN3PDEL6D_MASKE
ffff800004042b70 r _ZN3PDEL7PS_MASKE
ffff800004042b78 r _ZN3PDEL6G_MASKE
ffff800004042b80 r _ZN3PDEL6R_MASKE
ffff800004042b88 r _ZN3PDEL8PAT_MASKE
ffff800004042b90 r _ZN3PDEL7PK_MASKE
ffff800004042b98 r _ZN3PDEL14ADDR_PT_OFFSETE
ffff800004042ba0 r _ZN3PDEL12ADDR_PT_BITSE
ffff800004042ba8 r _ZN3PDEL12ADDR_PT_MASKE
ffff800004042bb0 r _ZN3PDEL15ADDR_2MB_OFFSETE
ffff800004042bb8 r _ZN3PDEL13ADDR_2MB_BITSE
ffff800004042bc0 r _ZN3PDEL13ADDR_2MB_MASKE
ffff800004042bc8 r _ZN3PTEL5D_BITE
ffff800004042bd0 r _ZN3PTEL7PAT_BITE
ffff800004042bd8 r _ZN3PTEL5G_BITE
ffff800004042be0 r _ZN3PTEL5R_BITE
ffff800004042be8 r _ZN3PTEL7PK_BITSE
ffff800004042bf0 r _ZN3PTEL6D_MASKE
ffff800004042bf8 r _ZN3PTEL8PAT_MASKE
ffff800004042c00 r _ZN3PTEL6G_MASKE
ffff800004042c08 r _ZN3PTEL6R_MASKE
ffff800004042c10 r _ZN3PTEL7PK_MASKE
ffff800004042c18 r _ZN3PTEL11ADDR_OFFSETE
ffff800004042c20 r _ZN3PTEL9ADDR_BITSE
ffff800004042c28 r _ZN3PTEL9ADDR_MASKE
ffff800004042c30 r _ZL13ENTRY_PRESENT
ffff800004042c31 r _ZL17ENTRY_PRESENT_NOT
ffff800004042c32 r _ZL17RWBIT_WRITE_ALLOW
ffff800004042c33 r _ZL21RWBIT_WRITE_ALLOW_NOT
ffff800004042c34 r _ZL16KERNE_BIT_KERNEL
ffff800004042c35 r _ZL20KERNE_BIT_KERNEL_NOT
ffff800004042c36 r _ZL17XD_BIT_EXECUTABLE
ffff800004042c37 r _ZL21XD_BIT_EXECUTABLE_NOT
ffff800004042c38 r _ZN11devices_idsL17DEVICE_ID_UNKNOWNE
ffff800004042c40 r _ZN11devices_idsL17IO_APIC_DEVICE_IDE
ffff800004042c48 r _ZL25MAX_PHYADDR_1GB_PGS_COUNT
ffff800004042c50 r _ZN4HPET4regsL34offset_General_Capabilities_and_IDE
ffff800004042c54 r _ZN4HPET4regsL21offset_General_ConfigE
ffff800004042c58 r _ZN4HPET4regsL20genral_status_offsetE
ffff800004042c5c r _ZN4HPET4regsL25offset_main_counter_valueE
ffff800004042c60 r _ZN4HPET4regsL44offset_Timer0_Configuration_and_CapabilitiesE
ffff800004042c64 r _ZN4HPET4regsL14size_per_timerE
ffff800004042c68 r _ZN4HPET4regsL28COMPARATOR_COUNT_LEFT_OFFSETE
ffff800004042c69 r _ZN4HPET4regsL21COMPARATOR_COUNT_MASKE
ffff800004042c6a r _ZN4HPET4regsL30COUNTER_CLK_PERIOD_LEFT_OFFSETE
ffff800004042c6c r _ZN4HPET4regsL26COUNTER_CLK_PERIOD_FS_MASKE
ffff800004042c70 r _ZN4HPET4regsL18GCONFIG_ENABLE_BITE
ffff800004042c78 r _ZN4HPET4regsL18Tn_INT_ENB_CNF_BITE
ffff800004042c80 r _ZN4HPET10error_codeL8NO_ERRORE
ffff800004042c84 r _ZN4HPET10error_codeL23ERROR_INVALID_ACPI_ADDRE
ffff800004042c88 r _ZN4HPET10error_codeL25ERROR_ACPI_ADDR_NOT_ALIGNE
ffff800004042c8c r _ZN4HPET10error_codeL18ERROR_INVALID_SIZEE
ffff800004042c90 r _ZN4HPET10error_codeL20ERROR_INVALID_HANDLEE
ffff800004042c94 r _ZN4HPET10error_codeL23ERROR_INVALID_OPERATIONE
ffff800004042c98 r _ZN4HPET10error_codeL19ERROR_INVALID_STATEE
ffff800004042c9c r _ZL29PER_CPU_HEAP_COMPLEX_GS_INDEX
ffff800004042ca0 r _ZL13default_flags
ffff800004042ca8 r _ZL15INDEX_NOT_EXIST
ffff800004042cac r _ZN13PAGE_TBALE_LVL4LV_4E
ffff800004042cad r _ZN13PAGE_TBALE_LVL4LV_5E
ffff800004042cae r _ZL17KERNEL_SPACE_PCID
ffff800004042cb0 r _ZL16KSPACE_RW_ACCESS
ffff800004042cb8 r _ZL18DESC_SMALL_SEG_MAX
ffff800004042cc0 r _ZL18DEFAULT_PAT_CONFIG
ffff800004042ce0 r _ZL15PAGE_SIZE_IN_LV
ffff800004042d20 r _ZL16PAGE_OFFSET_MASK
ffff800004042d48 r _ZL17Max_huge_pg_index
ffff800004042d50 r _ZN22lineaddr_index_filtersL17PT_INDEX_MASK_lv0E
ffff800004042d58 r _ZN22lineaddr_index_filtersL17PD_INDEX_MASK_lv1E
ffff800004042d60 r _ZN22lineaddr_index_filtersL19PDPT_INDEX_MASK_lv2E
ffff800004042d68 r _ZN22lineaddr_index_filtersL19PML4_INDEX_MASK_lv3E
ffff800004042d70 r _ZN22lineaddr_index_filtersL19PML5_INDEX_MASK_lv4E
ffff800004042d78 r _ZL15PHYS_ADDR_WIDTH
ffff800004042d80 r _ZL14PHYS_ADDR_MASK
ffff800004042d88 r _ZN14PageTableEntryL5P_BITE
ffff800004042d90 r _ZN14PageTableEntryL6RW_BITE
ffff800004042d98 r _ZN14PageTableEntryL6US_BITE
ffff800004042da0 r _ZN14PageTableEntryL7PWT_BITE
ffff800004042da8 r _ZN14PageTableEntryL7PCD_BITE
ffff800004042db0 r _ZN14PageTableEntryL5A_BITE
ffff800004042db8 r _ZN14PageTableEntryL6XD_BITE
ffff800004042dc0 r _ZN14PageTableEntryL6P_MASKE
ffff800004042dc8 r _ZN14PageTableEntryL7RW_MASKE
ffff800004042dd0 r _ZN14PageTableEntryL7US_MASKE
ffff800004042dd8 r _ZN14PageTableEntryL8PWT_MASKE
ffff800004042de0 r _ZN14PageTableEntryL8PCD_MASKE
ffff800004042de8 r _ZN14PageTableEntryL6A_MASKE
ffff800004042df0 r _ZN14PageTableEntryL7XD_MASKE
ffff800004042df8 r _ZN5PML5EL5R_BITE
ffff800004042e00 r _ZN5PML5EL6PS_BITE
ffff800004042e08 r _ZN5PML5EL6R_MASKE
ffff800004042e10 r _ZN5PML5EL7PS_MASKE
ffff800004042e18 r _ZN5PML5EL11ADDR_OFFSETE
ffff800004042e20 r _ZN5PML5EL9ADDR_BITSE
ffff800004042e28 r _ZN5PML5EL9ADDR_MASKE
ffff800004042e30 r _ZN5PML4EL5R_BITE
ffff800004042e38 r _ZN5PML4EL6PS_BITE
ffff800004042e40 r _ZN5PML4EL6R_MASKE
ffff800004042e48 r _ZN5PML4EL7PS_MASKE
ffff800004042e50 r _ZN5PML4EL11ADDR_OFFSETE
ffff800004042e58 r _ZN5PML4EL9ADDR_BITSE
ffff800004042e60 r _ZN5PML4EL9ADDR_MASKE
ffff800004042e68 r _ZN5PDPTEL5D_BITE
ffff800004042e70 r _ZN5PDPTEL6PS_BITE
ffff800004042e78 r _ZN5PDPTEL5G_BITE
ffff800004042e80 r _ZN5PDPTEL5R_BITE
ffff800004042e88 r _ZN5PDPTEL7PAT_BITE
ffff800004042e90 r _ZN5PDPTEL7PK_BITSE
ffff800004042e98 r _ZN5PDPTEL6D_MASKE
ffff800004042ea0 r _ZN5PDPTEL7PS_MASKE
ffff800004042ea8 r _ZN5PDPTEL6G_MASKE
ffff800004042eb0 r _ZN5PDPTEL6R_MASKE
ffff800004042eb8 r _ZN5PDPTEL8PAT_MASKE
ffff800004042ec0 r _ZN5PDPTEL7PK_MASKE
ffff800004042ec8 r _ZN5PDPTEL14ADDR_PD_OFFSETE
ffff800004042ed0 r _ZN5PDPTEL12ADDR_PD_BITSE
ffff800004042ed8 r _ZN5PDPTEL12ADDR_PD_MASKE
ffff800004042ee0 r _ZN5PDPTEL15ADDR_1GB_OFFSETE
ffff800004042ee8 r _ZN5PDPTEL13ADDR_1GB_BITSE
ffff800004042ef0 r _ZN5PDPTEL13ADDR_1GB_MASKE
ffff800004042ef8 r _ZN3PDEL5D_BITE
ffff800004042f00 r _ZN3PDEL6PS_BITE
ffff800004042f08 r _ZN3PDEL5G_BITE
ffff800004042f10 r _ZN3PDEL5R_BITE
ffff800004042f18 r _ZN3PDEL7PAT_BITE
ffff800004042f20 r _ZN3PDEL7PK_BITSE
ffff800004042f28 r _ZN3PDEL6D_MASKE
ffff800004042f30 r _ZN3PDEL7PS_MASKE
ffff800004042f38 r _ZN3PDEL6G_MASKE
ffff800004042f40 r _ZN3PDEL6R_MASKE
ffff800004042f48 r _ZN3PDEL8PAT_MASKE
ffff800004042f50 r _ZN3PDEL7PK_MASKE
ffff800004042f58 r _ZN3PDEL14ADDR_PT_OFFSETE
ffff800004042f60 r _ZN3PDEL12ADDR_PT_BITSE
ffff800004042f68 r _ZN3PDEL12ADDR_PT_MASKE
ffff800004042f70 r _ZN3PDEL15ADDR_2MB_OFFSETE
ffff800004042f78 r _ZN3PDEL13ADDR_2MB_BITSE
ffff800004042f80 r _ZN3PDEL13ADDR_2MB_MASKE
ffff800004042f88 r _ZN3PTEL5D_BITE
ffff800004042f90 r _ZN3PTEL7PAT_BITE
ffff800004042f98 r _ZN3PTEL5G_BITE
ffff800004042fa0 r _ZN3PTEL5R_BITE
ffff800004042fa8 r _ZN3PTEL7PK_BITSE
ffff800004042fb0 r _ZN3PTEL6D_MASKE
ffff800004042fb8 r _ZN3PTEL8PAT_MASKE
ffff800004042fc0 r _ZN3PTEL6G_MASKE
ffff800004042fc8 r _ZN3PTEL6R_MASKE
ffff800004042fd0 r _ZN3PTEL7PK_MASKE
ffff800004042fd8 r _ZN3PTEL11ADDR_OFFSETE
ffff800004042fe0 r _ZN3PTEL9ADDR_BITSE
ffff800004042fe8 r _ZN3PTEL9ADDR_MASKE
ffff800004042ff0 r _ZL13ENTRY_PRESENT
ffff800004042ff1 r _ZL17ENTRY_PRESENT_NOT
ffff800004042ff2 r _ZL17RWBIT_WRITE_ALLOW
ffff800004042ff3 r _ZL21RWBIT_WRITE_ALLOW_NOT
ffff800004042ff4 r _ZL16KERNE_BIT_KERNEL
ffff800004042ff5 r _ZL20KERNE_BIT_KERNEL_NOT
ffff800004042ff6 r _ZL17XD_BIT_EXECUTABLE
ffff800004042ff7 r _ZL21XD_BIT_EXECUTABLE_NOT
ffff800004042ff8 r _ZN11devices_idsL17DEVICE_ID_UNKNOWNE
ffff800004043000 r _ZN11devices_idsL17IO_APIC_DEVICE_IDE
ffff800004043008 r _ZL25MAX_PHYADDR_1GB_PGS_COUNT
ffff800004043010 r _ZN4HPET4regsL34offset_General_Capabilities_and_IDE
ffff800004043014 r _ZN4HPET4regsL21offset_General_ConfigE
ffff800004043018 r _ZN4HPET4regsL20genral_status_offsetE
ffff80000404301c r _ZN4HPET4regsL25offset_main_counter_valueE
ffff800004043020 r _ZN4HPET4regsL44offset_Timer0_Configuration_and_CapabilitiesE
ffff800004043024 r _ZN4HPET4regsL14size_per_timerE
ffff800004043028 r _ZN4HPET4regsL28COMPARATOR_COUNT_LEFT_OFFSETE
ffff800004043029 r _ZN4HPET4regsL21COMPARATOR_COUNT_MASKE
ffff80000404302a r _ZN4HPET4regsL30COUNTER_CLK_PERIOD_LEFT_OFFSETE
ffff80000404302c r _ZN4HPET4regsL26COUNTER_CLK_PERIOD_FS_MASKE
ffff800004043030 r _ZN4HPET4regsL18GCONFIG_ENABLE_BITE
ffff800004043038 r _ZN4HPET4regsL18Tn_INT_ENB_CNF_BITE
ffff800004043040 r _ZN4HPET10error_codeL8NO_ERRORE
ffff800004043044 r _ZN4HPET10error_codeL23ERROR_INVALID_ACPI_ADDRE
ffff800004043048 r _ZN4HPET10error_codeL25ERROR_ACPI_ADDR_NOT_ALIGNE
ffff80000404304c r _ZN4HPET10error_codeL18ERROR_INVALID_SIZEE
ffff800004043050 r _ZN4HPET10error_codeL20ERROR_INVALID_HANDLEE
ffff800004043054 r _ZN4HPET10error_codeL23ERROR_INVALID_OPERATIONE
ffff800004043058 r _ZN4HPET10error_codeL19ERROR_INVALID_STATEE
ffff800004043060 r _ZL15PAGE_SIZE_IN_LV
ffff8000040430a0 r _ZL16PAGE_OFFSET_MASK
ffff8000040430c8 r _ZL17Max_huge_pg_index
ffff8000040430d0 r _ZN22lineaddr_index_filtersL17PT_INDEX_MASK_lv0E
ffff8000040430d8 r _ZN22lineaddr_index_filtersL17PD_INDEX_MASK_lv1E
ffff8000040430e0 r _ZN22lineaddr_index_filtersL19PDPT_INDEX_MASK_lv2E
ffff8000040430e8 r _ZN22lineaddr_index_filtersL19PML4_INDEX_MASK_lv3E
ffff8000040430f0 r _ZN22lineaddr_index_filtersL19PML5_INDEX_MASK_lv4E
ffff8000040430f8 r _ZL15PHYS_ADDR_WIDTH
ffff800004043100 r _ZL14PHYS_ADDR_MASK
ffff800004043108 r _ZN14PageTableEntryL5P_BITE
ffff800004043110 r _ZN14PageTableEntryL6RW_BITE
ffff800004043118 r _ZN14PageTableEntryL6US_BITE
ffff800004043120 r _ZN14PageTableEntryL7PWT_BITE
ffff800004043128 r _ZN14PageTableEntryL7PCD_BITE
ffff800004043130 r _ZN14PageTableEntryL5A_BITE
ffff800004043138 r _ZN14PageTableEntryL6XD_BITE
ffff800004043140 r _ZN14PageTableEntryL6P_MASKE
ffff800004043148 r _ZN14PageTableEntryL7RW_MASKE
ffff800004043150 r _ZN14PageTableEntryL7US_MASKE
ffff800004043158 r _ZN14PageTableEntryL8PWT_MASKE
ffff800004043160 r _ZN14PageTableEntryL8PCD_MASKE
ffff800004043168 r _ZN14PageTableEntryL6A_MASKE
ffff800004043170 r _ZN14PageTableEntryL7XD_MASKE
ffff800004043178 r _ZN5PML5EL5R_BITE
ffff800004043180 r _ZN5PML5EL6PS_BITE
ffff800004043188 r _ZN5PML5EL6R_MASKE
ffff800004043190 r _ZN5PML5EL7PS_MASKE
ffff800004043198 r _ZN5PML5EL11ADDR_OFFSETE
ffff8000040431a0 r _ZN5PML5EL9ADDR_BITSE
ffff8000040431a8 r _ZN5PML5EL9ADDR_MASKE
ffff8000040431b0 r _ZN5PML4EL5R_BITE
ffff8000040431b8 r _ZN5PML4EL6PS_BITE
ffff8000040431c0 r _ZN5PML4EL6R_MASKE
ffff8000040431c8 r _ZN5PML4EL7PS_MASKE
ffff8000040431d0 r _ZN5PML4EL11ADDR_OFFSETE
ffff8000040431d8 r _ZN5PML4EL9ADDR_BITSE
ffff8000040431e0 r _ZN5PML4EL9ADDR_MASKE
ffff8000040431e8 r _ZN5PDPTEL5D_BITE
ffff8000040431f0 r _ZN5PDPTEL6PS_BITE
ffff8000040431f8 r _ZN5PDPTEL5G_BITE
ffff800004043200 r _ZN5PDPTEL5R_BITE
ffff800004043208 r _ZN5PDPTEL7PAT_BITE
ffff800004043210 r _ZN5PDPTEL7PK_BITSE
ffff800004043218 r _ZN5PDPTEL6D_MASKE
ffff800004043220 r _ZN5PDPTEL7PS_MASKE
ffff800004043228 r _ZN5PDPTEL6G_MASKE
ffff800004043230 r _ZN5PDPTEL6R_MASKE
ffff800004043238 r _ZN5PDPTEL8PAT_MASKE
ffff800004043240 r _ZN5PDPTEL7PK_MASKE
ffff800004043248 r _ZN5PDPTEL14ADDR_PD_OFFSETE
ffff800004043250 r _ZN5PDPTEL12ADDR_PD_BITSE
ffff800004043258 r _ZN5PDPTEL12ADDR_PD_MASKE
ffff800004043260 r _ZN5PDPTEL15ADDR_1GB_OFFSETE
ffff800004043268 r _ZN5PDPTEL13ADDR_1GB_BITSE
ffff800004043270 r _ZN5PDPTEL13ADDR_1GB_MASKE
ffff800004043278 r _ZN3PDEL5D_BITE
ffff800004043280 r _ZN3PDEL6PS_BITE
ffff800004043288 r _ZN3PDEL5G_BITE
ffff800004043290 r _ZN3PDEL5R_BITE
ffff800004043298 r _ZN3PDEL7PAT_BITE
ffff8000040432a0 r _ZN3PDEL7PK_BITSE
ffff8000040432a8 r _ZN3PDEL6D_MASKE
ffff8000040432b0 r _ZN3PDEL7PS_MASKE
ffff8000040432b8 r _ZN3PDEL6G_MASKE
ffff8000040432c0 r _ZN3PDEL6R_MASKE
ffff8000040432c8 r _ZN3PDEL8PAT_MASKE
ffff8000040432d0 r _ZN3PDEL7PK_MASKE
ffff8000040432d8 r _ZN3PDEL14ADDR_PT_OFFSETE
ffff8000040432e0 r _ZN3PDEL12ADDR_PT_BITSE
ffff8000040432e8 r _ZN3PDEL12ADDR_PT_MASKE
ffff8000040432f0 r _ZN3PDEL15ADDR_2MB_OFFSETE
ffff8000040432f8 r _ZN3PDEL13ADDR_2MB_BITSE
ffff800004043300 r _ZN3PDEL13ADDR_2MB_MASKE
ffff800004043308 r _ZN3PTEL5D_BITE
ffff800004043310 r _ZN3PTEL7PAT_BITE
ffff800004043318 r _ZN3PTEL5G_BITE
ffff800004043320 r _ZN3PTEL5R_BITE
ffff800004043328 r _ZN3PTEL7PK_BITSE
ffff800004043330 r _ZN3PTEL6D_MASKE
ffff800004043338 r _ZN3PTEL8PAT_MASKE
ffff800004043340 r _ZN3PTEL6G_MASKE
ffff800004043348 r _ZN3PTEL6R_MASKE
ffff800004043350 r _ZN3PTEL7PK_MASKE
ffff800004043358 r _ZN3PTEL11ADDR_OFFSETE
ffff800004043360 r _ZN3PTEL9ADDR_BITSE
ffff800004043368 r _ZN3PTEL9ADDR_MASKE
ffff800004043370 r _ZL13ENTRY_PRESENT
ffff800004043371 r _ZL17ENTRY_PRESENT_NOT
ffff800004043372 r _ZL17RWBIT_WRITE_ALLOW
ffff800004043373 r _ZL21RWBIT_WRITE_ALLOW_NOT
ffff800004043374 r _ZL16KERNE_BIT_KERNEL
ffff800004043375 r _ZL20KERNE_BIT_KERNEL_NOT
ffff800004043376 r _ZL17XD_BIT_EXECUTABLE
ffff800004043377 r _ZL21XD_BIT_EXECUTABLE_NOT
ffff800004043378 r _ZN11devices_idsL17DEVICE_ID_UNKNOWNE
ffff800004043380 r _ZN11devices_idsL17IO_APIC_DEVICE_IDE
ffff800004043388 r _ZL25MAX_PHYADDR_1GB_PGS_COUNT
ffff800004043400 r _ZL15PAGE_SIZE_IN_LV
ffff800004043440 r _ZL16PAGE_OFFSET_MASK
ffff800004043468 r _ZL17Max_huge_pg_index
ffff800004043470 r _ZN22lineaddr_index_filtersL17PT_INDEX_MASK_lv0E
ffff800004043478 r _ZN22lineaddr_index_filtersL17PD_INDEX_MASK_lv1E
ffff800004043480 r _ZN22lineaddr_index_filtersL19PDPT_INDEX_MASK_lv2E
ffff800004043488 r _ZN22lineaddr_index_filtersL19PML4_INDEX_MASK_lv3E
ffff800004043490 r _ZN22lineaddr_index_filtersL19PML5_INDEX_MASK_lv4E
ffff800004043498 r _ZL15PHYS_ADDR_WIDTH
ffff8000040434a0 r _ZL14PHYS_ADDR_MASK
ffff8000040434a8 r _ZN14PageTableEntryL5P_BITE
ffff8000040434b0 r _ZN14PageTableEntryL6RW_BITE
ffff8000040434b8 r _ZN14PageTableEntryL6US_BITE
ffff8000040434c0 r _ZN14PageTableEntryL7PWT_BITE
ffff8000040434c8 r _ZN14PageTableEntryL7PCD_BITE
ffff8000040434d0 r _ZN14PageTableEntryL5A_BITE
ffff8000040434d8 r _ZN14PageTableEntryL6XD_BITE
ffff8000040434e0 r _ZN14PageTableEntryL6P_MASKE
ffff8000040434e8 r _ZN14PageTableEntryL7RW_MASKE
ffff8000040434f0 r _ZN14PageTableEntryL7US_MASKE
ffff8000040434f8 r _ZN14PageTableEntryL8PWT_MASKE
ffff800004043500 r _ZN14PageTableEntryL8PCD_MASKE
ffff800004043508 r _ZN14PageTableEntryL6A_MASKE
ffff800004043510 r _ZN14PageTableEntryL7XD_MASKE
ffff800004043518 r _ZN5PML5EL5R_BITE
ffff800004043520 r _ZN5PML5EL6PS_BITE
ffff800004043528 r _ZN5PML5EL6R_MASKE
ffff800004043530 r _ZN5PML5EL7PS_MASKE
ffff800004043538 r _ZN5PML5EL11ADDR_OFFSETE
ffff800004043540 r _ZN5PML5EL9ADDR_BITSE
ffff800004043548 r _ZN5PML5EL9ADDR_MASKE
ffff800004043550 r _ZN5PML4EL5R_BITE
ffff800004043558 r _ZN5PML4EL6PS_BITE
ffff800004043560 r _ZN5PML4EL6R_MASKE
ffff800004043568 r _ZN5PML4EL7PS_MASKE
ffff800004043570 r _ZN5PML4EL11ADDR_OFFSETE
ffff800004043578 r _ZN5PML4EL9ADDR_BITSE
ffff800004043580 r _ZN5PML4EL9ADDR_MASKE
ffff800004043588 r _ZN5PDPTEL5D_BITE
ffff800004043590 r _ZN5PDPTEL6PS_BITE
ffff800004043598 r _ZN5PDPTEL5G_BITE
ffff8000040435a0 r _ZN5PDPTEL5R_BITE
ffff8000040435a8 r _ZN5PDPTEL7PAT_BITE
ffff8000040435b0 r _ZN5PDPTEL7PK_BITSE
ffff8000040435b8 r _ZN5PDPTEL6D_MASKE
ffff8000040435c0 r _ZN5PDPTEL7PS_MASKE
ffff8000040435c8 r _ZN5PDPTEL6G_MASKE
ffff8000040435d0 r _ZN5PDPTEL6R_MASKE
ffff8000040435d8 r _ZN5PDPTEL8PAT_MASKE
ffff8000040435e0 r _ZN5PDPTEL7PK_MASKE
ffff8000040435e8 r _ZN5PDPTEL14ADDR_PD_OFFSETE
ffff8000040435f0 r _ZN5PDPTEL12ADDR_PD_BITSE
ffff8000040435f8 r _ZN5PDPTEL12ADDR_PD_MASKE
ffff800004043600 r _ZN5PDPTEL15ADDR_1GB_OFFSETE
ffff800004043608 r _ZN5PDPTEL13ADDR_1GB_BITSE
ffff800004043610 r _ZN5PDPTEL13ADDR_1GB_MASKE
ffff800004043618 r _ZN3PDEL5D_BITE
ffff800004043620 r _ZN3PDEL6PS_BITE
ffff800004043628 r _ZN3PDEL5G_BITE
ffff800004043630 r _ZN3PDEL5R_BITE
ffff800004043638 r _ZN3PDEL7PAT_BITE
ffff800004043640 r _ZN3PDEL7PK_BITSE
ffff800004043648 r _ZN3PDEL6D_MASKE
ffff800004043650 r _ZN3PDEL7PS_MASKE
ffff800004043658 r _ZN3PDEL6G_MASKE
ffff800004043660 r _ZN3PDEL6R_MASKE
ffff800004043668 r _ZN3PDEL8PAT_MASKE
ffff800004043670 r _ZN3PDEL7PK_MASKE
ffff800004043678 r _ZN3PDEL14ADDR_PT_OFFSETE
ffff800004043680 r _ZN3PDEL12ADDR_PT_BITSE
ffff800004043688 r _ZN3PDEL12ADDR_PT_MASKE
ffff800004043690 r _ZN3PDEL15ADDR_2MB_OFFSETE
ffff800004043698 r _ZN3PDEL13ADDR_2MB_BITSE
ffff8000040436a0 r _ZN3PDEL13ADDR_2MB_MASKE
ffff8000040436a8 r _ZN3PTEL5D_BITE
ffff8000040436b0 r _ZN3PTEL7PAT_BITE
ffff8000040436b8 r _ZN3PTEL5G_BITE
ffff8000040436c0 r _ZN3PTEL5R_BITE
ffff8000040436c8 r _ZN3PTEL7PK_BITSE
ffff8000040436d0 r _ZN3PTEL6D_MASKE
ffff8000040436d8 r _ZN3PTEL8PAT_MASKE
ffff8000040436e0 r _ZN3PTEL6G_MASKE
ffff8000040436e8 r _ZN3PTEL6R_MASKE
ffff8000040436f0 r _ZN3PTEL7PK_MASKE
ffff8000040436f8 r _ZN3PTEL11ADDR_OFFSETE
ffff800004043700 r _ZN3PTEL9ADDR_BITSE
ffff800004043708 r _ZN3PTEL9ADDR_MASKE
ffff800004043710 r _ZL13ENTRY_PRESENT
ffff800004043711 r _ZL17ENTRY_PRESENT_NOT
ffff800004043712 r _ZL17RWBIT_WRITE_ALLOW
ffff800004043713 r _ZL21RWBIT_WRITE_ALLOW_NOT
ffff800004043714 r _ZL16KERNE_BIT_KERNEL
ffff800004043715 r _ZL20KERNE_BIT_KERNEL_NOT
ffff800004043716 r _ZL17XD_BIT_EXECUTABLE
ffff800004043717 r _ZL21XD_BIT_EXECUTABLE_NOT
ffff800004043718 r _ZN11devices_idsL17DEVICE_ID_UNKNOWNE
ffff800004043720 r _ZN11devices_idsL17IO_APIC_DEVICE_IDE
ffff800004043728 r _ZL25MAX_PHYADDR_1GB_PGS_COUNT
ffff800004043738 r _ZL19ACPI_XSDT_SIGNATURE
ffff800004043748 r _ZL19ACPI_FADT_SIGNATURE
ffff800004043758 r _ZL19ACPI_FACS_SIGNATURE
ffff800004043768 r _ZL19ACPI_MADT_SIGNATURE
ffff800004043778 r _ZL19ACPI_DSDT_SIGNATURE
ffff800004043788 r _ZL19ACPI_SSDT_SIGNATURE
ffff800004043798 r _ZL19ACPI_MCFG_SIGNATURE
ffff8000040437a8 r _ZL19ACPI_HPET_SIGNATURE
ffff8000040437b0 r _ZL21XSDT_SIGNATURE_UINT32
ffff8000040437b4 r _ZL21FADT_SIGNATURE_UINT32
ffff8000040437b8 r _ZL21FACS_SIGNATURE_UINT32
ffff8000040437bc r _ZL21MADT_SIGNATURE_UINT32
ffff8000040437c0 r _ZL21DSDT_SIGNATURE_UINT32
ffff8000040437c4 r _ZL21SSDT_SIGNATURE_UINT32
ffff8000040437c8 r _ZL21MCFG_SIGNATURE_UINT32
ffff8000040437cc r _ZL21HPET_SIGNATURE_UINT32
ffff8000040437d0 r _ZN13PAGE_TBALE_LVL4LV_4E
ffff8000040437d1 r _ZN13PAGE_TBALE_LVL4LV_5E
ffff8000040437d2 r _ZL17KERNEL_SPACE_PCID
ffff8000040437d4 r _ZL16KSPACE_RW_ACCESS
ffff8000040437d8 r _ZL18DESC_SMALL_SEG_MAX
ffff8000040437e0 r _ZL18DEFAULT_PAT_CONFIG
ffff8000040437e8 u _ZN12KspaceMapMgr5PG_RWE
ffff800004043800 r _ZL21masks_entry1bit_width
ffff800004043808 r _ZL22masks_entry2bits_width
ffff800004043820 R bit_reverse_table
ffff800004043920 r _ZZL28drawCharacterWithoutRenderediitE14Filterbitmasks
ffff800004044520 r _ZL15PAGE_SIZE_IN_LV
ffff800004044560 r _ZL16PAGE_OFFSET_MASK
ffff800004044588 r _ZL17Max_huge_pg_index
ffff800004044590 r _ZN22lineaddr_index_filtersL17PT_INDEX_MASK_lv0E
ffff800004044598 r _ZN22lineaddr_index_filtersL17PD_INDEX_MASK_lv1E
ffff8000040445a0 r _ZN22lineaddr_index_filtersL19PDPT_INDEX_MASK_lv2E
ffff8000040445a8 r _ZN22lineaddr_index_filtersL19PML4_INDEX_MASK_lv3E
ffff8000040445b0 r _ZN22lineaddr_index_filtersL19PML5_INDEX_MASK_lv4E
ffff8000040445b8 r _ZL15PHYS_ADDR_WIDTH
ffff8000040445c0 r _ZL14PHYS_ADDR_MASK
ffff8000040445c8 r _ZN14PageTableEntryL5P_BITE
ffff8000040445d0 r _ZN14PageTableEntryL6RW_BITE
ffff8000040445d8 r _ZN14PageTableEntryL6US_BITE
ffff8000040445e0 r _ZN14PageTableEntryL7PWT_BITE
ffff8000040445e8 r _ZN14PageTableEntryL7PCD_BITE
ffff8000040445f0 r _ZN14PageTableEntryL5A_BITE
ffff8000040445f8 r _ZN14PageTableEntryL6XD_BITE
ffff800004044600 r _ZN14PageTableEntryL6P_MASKE
ffff800004044608 r _ZN14PageTableEntryL7RW_MASKE
ffff800004044610 r _ZN14PageTableEntryL7US_MASKE
ffff800004044618 r _ZN14PageTableEntryL8PWT_MASKE
ffff800004044620 r _ZN14PageTableEntryL8PCD_MASKE
ffff800004044628 r _ZN14PageTableEntryL6A_MASKE
ffff800004044630 r _ZN14PageTableEntryL7XD_MASKE
ffff800004044638 r _ZN5PML5EL5R_BITE
ffff800004044640 r _ZN5PML5EL6PS_BITE
ffff800004044648 r _ZN5PML5EL6R_MASKE
ffff800004044650 r _ZN5PML5EL7PS_MASKE
ffff800004044658 r _ZN5PML5EL11ADDR_OFFSETE
ffff800004044660 r _ZN5PML5EL9ADDR_BITSE
ffff800004044668 r _ZN5PML5EL9ADDR_MASKE
ffff800004044670 r _ZN5PML4EL5R_BITE
ffff800004044678 r _ZN5PML4EL6PS_BITE
ffff800004044680 r _ZN5PML4EL6R_MASKE
ffff800004044688 r _ZN5PML4EL7PS_MASKE
ffff800004044690 r _ZN5PML4EL11ADDR_OFFSETE
ffff800004044698 r _ZN5PML4EL9ADDR_BITSE
ffff8000040446a0 r _ZN5PML4EL9ADDR_MASKE
ffff8000040446a8 r _ZN5PDPTEL5D_BITE
ffff8000040446b0 r _ZN5PDPTEL6PS_BITE
ffff8000040446b8 r _ZN5PDPTEL5G_BITE
ffff8000040446c0 r _ZN5PDPTEL5R_BITE
ffff8000040446c8 r _ZN5PDPTEL7PAT_BITE
ffff8000040446d0 r _ZN5PDPTEL7PK_BITSE
ffff8000040446d8 r _ZN5PDPTEL6D_MASKE
ffff8000040446e0 r _ZN5PDPTEL7PS_MASKE
ffff8000040446e8 r _ZN5PDPTEL6G_MASKE
ffff8000040446f0 r _ZN5PDPTEL6R_MASKE
ffff8000040446f8 r _ZN5PDPTEL8PAT_MASKE
ffff800004044700 r _ZN5PDPTEL7PK_MASKE
ffff800004044708 r _ZN5PDPTEL14ADDR_PD_OFFSETE
ffff800004044710 r _ZN5PDPTEL12ADDR_PD_BITSE
ffff800004044718 r _ZN5PDPTEL12ADDR_PD_MASKE
ffff800004044720 r _ZN5PDPTEL15ADDR_1GB_OFFSETE
ffff800004044728 r _ZN5PDPTEL13ADDR_1GB_BITSE
ffff800004044730 r _ZN5PDPTEL13ADDR_1GB_MASKE
ffff800004044738 r _ZN3PDEL5D_BITE
ffff800004044740 r _ZN3PDEL6PS_BITE
ffff800004044748 r _ZN3PDEL5G_BITE
ffff800004044750 r _ZN3PDEL5R_BITE
ffff800004044758 r _ZN3PDEL7PAT_BITE
ffff800004044760 r _ZN3PDEL7PK_BITSE
ffff800004044768 r _ZN3PDEL6D_MASKE
ffff800004044770 r _ZN3PDEL7PS_MASKE
ffff800004044778 r _ZN3PDEL6G_MASKE
ffff800004044780 r _ZN3PDEL6R_MASKE
ffff800004044788 r _ZN3PDEL8PAT_MASKE
ffff800004044790 r _ZN3PDEL7PK_MASKE
ffff800004044798 r _ZN3PDEL14ADDR_PT_OFFSETE
ffff8000040447a0 r _ZN3PDEL12ADDR_PT_BITSE
ffff8000040447a8 r _ZN3PDEL12ADDR_PT_MASKE
ffff8000040447b0 r _ZN3PDEL15ADDR_2MB_OFFSETE
ffff8000040447b8 r _ZN3PDEL13ADDR_2MB_BITSE
ffff8000040447c0 r _ZN3PDEL13ADDR_2MB_MASKE
ffff8000040447c8 r _ZN3PTEL5D_BITE
ffff8000040447d0 r _ZN3PTEL7PAT_BITE
ffff8000040447d8 r _ZN3PTEL5G_BITE
ffff8000040447e0 r _ZN3PTEL5R_BITE
ffff8000040447e8 r _ZN3PTEL7PK_BITSE
ffff8000040447f0 r _ZN3PTEL6D_MASKE
ffff8000040447f8 r _ZN3PTEL8PAT_MASKE
ffff800004044800 r _ZN3PTEL6G_MASKE
ffff800004044808 r _ZN3PTEL6R_MASKE
ffff800004044810 r _ZN3PTEL7PK_MASKE
ffff800004044818 r _ZN3PTEL11ADDR_OFFSETE
ffff800004044820 r _ZN3PTEL9ADDR_BITSE
ffff800004044828 r _ZN3PTEL9ADDR_MASKE
ffff800004044830 r _ZL13ENTRY_PRESENT
ffff800004044831 r _ZL17ENTRY_PRESENT_NOT
ffff800004044832 r _ZL17RWBIT_WRITE_ALLOW
ffff800004044833 r _ZL21RWBIT_WRITE_ALLOW_NOT
ffff800004044834 r _ZL16KERNE_BIT_KERNEL
ffff800004044835 r _ZL20KERNE_BIT_KERNEL_NOT
ffff800004044836 r _ZL17XD_BIT_EXECUTABLE
ffff800004044837 r _ZL21XD_BIT_EXECUTABLE_NOT
ffff800004044838 r _ZN11devices_idsL17DEVICE_ID_UNKNOWNE
ffff800004044840 r _ZN11devices_idsL17IO_APIC_DEVICE_IDE
ffff800004044848 r _ZL25MAX_PHYADDR_1GB_PGS_COUNT
ffff800004044964 r _ZL29PER_CPU_HEAP_COMPLEX_GS_INDEX
ffff800004044968 r _ZL13default_flags
ffff800004044970 r _ZL15INDEX_NOT_EXIST
ffff800004044980 u _ZN3kio4kout9hex_charsE
ffff8000040449a0 r _ZL15PAGE_SIZE_IN_LV
ffff8000040449e0 r _ZL16PAGE_OFFSET_MASK
ffff800004044a08 r _ZL17Max_huge_pg_index
ffff800004044a10 r _ZN22lineaddr_index_filtersL17PT_INDEX_MASK_lv0E
ffff800004044a18 r _ZN22lineaddr_index_filtersL17PD_INDEX_MASK_lv1E
ffff800004044a20 r _ZN22lineaddr_index_filtersL19PDPT_INDEX_MASK_lv2E
ffff800004044a28 r _ZN22lineaddr_index_filtersL19PML4_INDEX_MASK_lv3E
ffff800004044a30 r _ZN22lineaddr_index_filtersL19PML5_INDEX_MASK_lv4E
ffff800004044a38 r _ZL15PHYS_ADDR_WIDTH
ffff800004044a40 r _ZL14PHYS_ADDR_MASK
ffff800004044a48 r _ZN14PageTableEntryL5P_BITE
ffff800004044a50 r _ZN14PageTableEntryL6RW_BITE
ffff800004044a58 r _ZN14PageTableEntryL6US_BITE
ffff800004044a60 r _ZN14PageTableEntryL7PWT_BITE
ffff800004044a68 r _ZN14PageTableEntryL7PCD_BITE
ffff800004044a70 r _ZN14PageTableEntryL5A_BITE
ffff800004044a78 r _ZN14PageTableEntryL6XD_BITE
ffff800004044a80 r _ZN14PageTableEntryL6P_MASKE
ffff800004044a88 r _ZN14PageTableEntryL7RW_MASKE
ffff800004044a90 r _ZN14PageTableEntryL7US_MASKE
ffff800004044a98 r _ZN14PageTableEntryL8PWT_MASKE
ffff800004044aa0 r _ZN14PageTableEntryL8PCD_MASKE
ffff800004044aa8 r _ZN14PageTableEntryL6A_MASKE
ffff800004044ab0 r _ZN14PageTableEntryL7XD_MASKE
ffff800004044ab8 r _ZN5PML5EL5R_BITE
ffff800004044ac0 r _ZN5PML5EL6PS_BITE
ffff800004044ac8 r _ZN5PML5EL6R_MASKE
ffff800004044ad0 r _ZN5PML5EL7PS_MASKE
ffff800004044ad8 r _ZN5PML5EL11ADDR_OFFSETE
ffff800004044ae0 r _ZN5PML5EL9ADDR_BITSE
ffff800004044ae8 r _ZN5PML5EL9ADDR_MASKE
ffff800004044af0 r _ZN5PML4EL5R_BITE
ffff800004044af8 r _ZN5PML4EL6PS_BITE
ffff800004044b00 r _ZN5PML4EL6R_MASKE
ffff800004044b08 r _ZN5PML4EL7PS_MASKE
ffff800004044b10 r _ZN5PML4EL11ADDR_OFFSETE
ffff800004044b18 r _ZN5PML4EL9ADDR_BITSE
ffff800004044b20 r _ZN5PML4EL9ADDR_MASKE
ffff800004044b28 r _ZN5PDPTEL5D_BITE
ffff800004044b30 r _ZN5PDPTEL6PS_BITE
ffff800004044b38 r _ZN5PDPTEL5G_BITE
ffff800004044b40 r _ZN5PDPTEL5R_BITE
ffff800004044b48 r _ZN5PDPTEL7PAT_BITE
ffff800004044b50 r _ZN5PDPTEL7PK_BITSE
ffff800004044b58 r _ZN5PDPTEL6D_MASKE
ffff800004044b60 r _ZN5PDPTEL7PS_MASKE
ffff800004044b68 r _ZN5PDPTEL6G_MASKE
ffff800004044b70 r _ZN5PDPTEL6R_MASKE
ffff800004044b78 r _ZN5PDPTEL8PAT_MASKE
ffff800004044b80 r _ZN5PDPTEL7PK_MASKE
ffff800004044b88 r _ZN5PDPTEL14ADDR_PD_OFFSETE
ffff800004044b90 r _ZN5PDPTEL12ADDR_PD_BITSE
ffff800004044b98 r _ZN5PDPTEL12ADDR_PD_MASKE
ffff800004044ba0 r _ZN5PDPTEL15ADDR_1GB_OFFSETE
ffff800004044ba8 r _ZN5PDPTEL13ADDR_1GB_BITSE
ffff800004044bb0 r _ZN5PDPTEL13ADDR_1GB_MASKE
ffff800004044bb8 r _ZN3PDEL5D_BITE
ffff800004044bc0 r _ZN3PDEL6PS_BITE
ffff800004044bc8 r _ZN3PDEL5G_BITE
ffff800004044bd0 r _ZN3PDEL5R_BITE
ffff800004044bd8 r _ZN3PDEL7PAT_BITE
ffff800004044be0 r _ZN3PDEL7PK_BITSE
ffff800004044be8 r _ZN3PDEL6D_MASKE
ffff800004044bf0 r _ZN3PDEL7PS_MASKE
ffff800004044bf8 r _ZN3PDEL6G_MASKE
ffff800004044c00 r _ZN3PDEL6R_MASKE
ffff800004044c08 r _ZN3PDEL8PAT_MASKE
ffff800004044c10 r _ZN3PDEL7PK_MASKE
ffff800004044c18 r _ZN3PDEL14ADDR_PT_OFFSETE
ffff800004044c20 r _ZN3PDEL12ADDR_PT_BITSE
ffff800004044c28 r _ZN3PDEL12ADDR_PT_MASKE
ffff800004044c30 r _ZN3PDEL15ADDR_2MB_OFFSETE
ffff800004044c38 r _ZN3PDEL13ADDR_2MB_BITSE
ffff800004044c40 r _ZN3PDEL13ADDR_2MB_MASKE
ffff800004044c48 r _ZN3PTEL5D_BITE
ffff800004044c50 r _ZN3PTEL7PAT_BITE
ffff800004044c58 r _ZN3PTEL5G_BITE
ffff800004044c60 r _ZN3PTEL5R_BITE
ffff800004044c68 r _ZN3PTEL7PK_BITSE
ffff800004044c70 r _ZN3PTEL6D_MASKE
ffff800004044c78 r _ZN3PTEL8PAT_MASKE
ffff800004044c80 r _ZN3PTEL6G_MASKE
ffff800004044c88 r _ZN3PTEL6R_MASKE
ffff800004044c90 r _ZN3PTEL7PK_MASKE
ffff800004044c98 r _ZN3PTEL11ADDR_OFFSETE
ffff800004044ca0 r _ZN3PTEL9ADDR_BITSE
ffff800004044ca8 r _ZN3PTEL9ADDR_MASKE
ffff800004044cb0 r _ZL13ENTRY_PRESENT
ffff800004044cb1 r _ZL17ENTRY_PRESENT_NOT
ffff800004044cb2 r _ZL17RWBIT_WRITE_ALLOW
ffff800004044cb3 r _ZL21RWBIT_WRITE_ALLOW_NOT
ffff800004044cb4 r _ZL16KERNE_BIT_KERNEL
ffff800004044cb5 r _ZL20KERNE_BIT_KERNEL_NOT
ffff800004044cb6 r _ZL17XD_BIT_EXECUTABLE
ffff800004044cb7 r _ZL21XD_BIT_EXECUTABLE_NOT
ffff800004044cb8 r _ZN11devices_idsL17DEVICE_ID_UNKNOWNE
ffff800004044cc0 r _ZN11devices_idsL17IO_APIC_DEVICE_IDE
ffff800004044cc8 r _ZL25MAX_PHYADDR_1GB_PGS_COUNT
ffff800004044cd0 r _ZL29PER_CPU_HEAP_COMPLEX_GS_INDEX
ffff800004044cd4 r _ZL13default_flags
ffff800004044cdc r _ZL15INDEX_NOT_EXIST
ffff800004044fc0 r _ZL15PAGE_SIZE_IN_LV
ffff800004045000 r _ZL16PAGE_OFFSET_MASK
ffff800004045028 r _ZL17Max_huge_pg_index
ffff800004045030 r _ZN22lineaddr_index_filtersL17PT_INDEX_MASK_lv0E
ffff800004045038 r _ZN22lineaddr_index_filtersL17PD_INDEX_MASK_lv1E
ffff800004045040 r _ZN22lineaddr_index_filtersL19PDPT_INDEX_MASK_lv2E
ffff800004045048 r _ZN22lineaddr_index_filtersL19PML4_INDEX_MASK_lv3E
ffff800004045050 r _ZN22lineaddr_index_filtersL19PML5_INDEX_MASK_lv4E
ffff800004045058 r _ZL15PHYS_ADDR_WIDTH
ffff800004045060 r _ZL14PHYS_ADDR_MASK
ffff800004045068 r _ZN14PageTableEntryL5P_BITE
ffff800004045070 r _ZN14PageTableEntryL6RW_BITE
ffff800004045078 r _ZN14PageTableEntryL6US_BITE
ffff800004045080 r _ZN14PageTableEntryL7PWT_BITE
ffff800004045088 r _ZN14PageTableEntryL7PCD_BITE
ffff800004045090 r _ZN14PageTableEntryL5A_BITE
ffff800004045098 r _ZN14PageTableEntryL6XD_BITE
ffff8000040450a0 r _ZN14PageTableEntryL6P_MASKE
ffff8000040450a8 r _ZN14PageTableEntryL7RW_MASKE
ffff8000040450b0 r _ZN14PageTableEntryL7US_MASKE
ffff8000040450b8 r _ZN14PageTableEntryL8PWT_MASKE
ffff8000040450c0 r _ZN14PageTableEntryL8PCD_MASKE
ffff8000040450c8 r _ZN14PageTableEntryL6A_MASKE
ffff8000040450d0 r _ZN14PageTableEntryL7XD_MASKE
ffff8000040450d8 r _ZN5PML5EL5R_BITE
ffff8000040450e0 r _ZN5PML5EL6PS_BITE
ffff8000040450e8 r _ZN5PML5EL6R_MASKE
ffff8000040450f0 r _ZN5PML5EL7PS_MASKE
ffff8000040450f8 r _ZN5PML5EL11ADDR_OFFSETE
ffff800004045100 r _ZN5PML5EL9ADDR_BITSE
ffff800004045108 r _ZN5PML5EL9ADDR_MASKE
ffff800004045110 r _ZN5PML4EL5R_BITE
ffff800004045118 r _ZN5PML4EL6PS_BITE
ffff800004045120 r _ZN5PML4EL6R_MASKE
ffff800004045128 r _ZN5PML4EL7PS_MASKE
ffff800004045130 r _ZN5PML4EL11ADDR_OFFSETE
ffff800004045138 r _ZN5PML4EL9ADDR_BITSE
ffff800004045140 r _ZN5PML4EL9ADDR_MASKE
ffff800004045148 r _ZN5PDPTEL5D_BITE
ffff800004045150 r _ZN5PDPTEL6PS_BITE
ffff800004045158 r _ZN5PDPTEL5G_BITE
ffff800004045160 r _ZN5PDPTEL5R_BITE
ffff800004045168 r _ZN5PDPTEL7PAT_BITE
ffff800004045170 r _ZN5PDPTEL7PK_BITSE
ffff800004045178 r _ZN5PDPTEL6D_MASKE
ffff800004045180 r _ZN5PDPTEL7PS_MASKE
ffff800004045188 r _ZN5PDPTEL6G_MASKE
ffff800004045190 r _ZN5PDPTEL6R_MASKE
ffff800004045198 r _ZN5PDPTEL8PAT_MASKE
ffff8000040451a0 r _ZN5PDPTEL7PK_MASKE
ffff8000040451a8 r _ZN5PDPTEL14ADDR_PD_OFFSETE
ffff8000040451b0 r _ZN5PDPTEL12ADDR_PD_BITSE
ffff8000040451b8 r _ZN5PDPTEL12ADDR_PD_MASKE
ffff8000040451c0 r _ZN5PDPTEL15ADDR_1GB_OFFSETE
ffff8000040451c8 r _ZN5PDPTEL13ADDR_1GB_BITSE
ffff8000040451d0 r _ZN5PDPTEL13ADDR_1GB_MASKE
ffff8000040451d8 r _ZN3PDEL5D_BITE
ffff8000040451e0 r _ZN3PDEL6PS_BITE
ffff8000040451e8 r _ZN3PDEL5G_BITE
ffff8000040451f0 r _ZN3PDEL5R_BITE
ffff8000040451f8 r _ZN3PDEL7PAT_BITE
ffff800004045200 r _ZN3PDEL7PK_BITSE
ffff800004045208 r _ZN3PDEL6D_MASKE
ffff800004045210 r _ZN3PDEL7PS_MASKE
ffff800004045218 r _ZN3PDEL6G_MASKE
ffff800004045220 r _ZN3PDEL6R_MASKE
ffff800004045228 r _ZN3PDEL8PAT_MASKE
ffff800004045230 r _ZN3PDEL7PK_MASKE
ffff800004045238 r _ZN3PDEL14ADDR_PT_OFFSETE
ffff800004045240 r _ZN3PDEL12ADDR_PT_BITSE
ffff800004045248 r _ZN3PDEL12ADDR_PT_MASKE
ffff800004045250 r _ZN3PDEL15ADDR_2MB_OFFSETE
ffff800004045258 r _ZN3PDEL13ADDR_2MB_BITSE
ffff800004045260 r _ZN3PDEL13ADDR_2MB_MASKE
ffff800004045268 r _ZN3PTEL5D_BITE
ffff800004045270 r _ZN3PTEL7PAT_BITE
ffff800004045278 r _ZN3PTEL5G_BITE
ffff800004045280 r _ZN3PTEL5R_BITE
ffff800004045288 r _ZN3PTEL7PK_BITSE
ffff800004045290 r _ZN3PTEL6D_MASKE
ffff800004045298 r _ZN3PTEL8PAT_MASKE
ffff8000040452a0 r _ZN3PTEL6G_MASKE
ffff8000040452a8 r _ZN3PTEL6R_MASKE
ffff8000040452b0 r _ZN3PTEL7PK_MASKE
ffff8000040452b8 r _ZN3PTEL11ADDR_OFFSETE
ffff8000040452c0 r _ZN3PTEL9ADDR_BITSE
ffff8000040452c8 r _ZN3PTEL9ADDR_MASKE
ffff8000040452d0 r _ZL13ENTRY_PRESENT
ffff8000040452d1 r _ZL17ENTRY_PRESENT_NOT
ffff8000040452d2 r _ZL17RWBIT_WRITE_ALLOW
ffff8000040452d3 r _ZL21RWBIT_WRITE_ALLOW_NOT
ffff8000040452d4 r _ZL16KERNE_BIT_KERNEL
ffff8000040452d5 r _ZL20KERNE_BIT_KERNEL_NOT
ffff8000040452d6 r _ZL17XD_BIT_EXECUTABLE
ffff8000040452d7 r _ZL21XD_BIT_EXECUTABLE_NOT
ffff8000040452d8 r _ZN11devices_idsL17DEVICE_ID_UNKNOWNE
ffff8000040452e0 r _ZN11devices_idsL17IO_APIC_DEVICE_IDE
ffff8000040452e8 r _ZL25MAX_PHYADDR_1GB_PGS_COUNT
ffff8000040452f0 r _ZL29PER_CPU_HEAP_COMPLEX_GS_INDEX
ffff8000040452f4 r _ZL13default_flags
ffff8000040452fc r _ZL15INDEX_NOT_EXIST
ffff800004045300 r _ZN13PAGE_TBALE_LVL4LV_4E
ffff800004045301 r _ZN13PAGE_TBALE_LVL4LV_5E
ffff800004045302 r _ZL17KERNEL_SPACE_PCID
ffff800004045304 r _ZL16KSPACE_RW_ACCESS
ffff800004045308 r _ZL18DESC_SMALL_SEG_MAX
ffff800004045310 r _ZL18DEFAULT_PAT_CONFIG
ffff800004045318 r _ZL16CACHE_VMDESC_MAX
ffff800004045320 r _ZL17PAGES_4KB_PER_2MB
ffff800004045328 r _ZL17PAGES_2MB_PER_1GB
ffff800004045330 r _ZL17PAGES_4KB_PER_1GB
ffff800004045360 r _ZL15PAGE_SIZE_IN_LV
ffff8000040453a0 r _ZL16PAGE_OFFSET_MASK
ffff8000040453c8 r _ZL17Max_huge_pg_index
ffff8000040453d0 r _ZN22lineaddr_index_filtersL17PT_INDEX_MASK_lv0E
ffff8000040453d8 r _ZN22lineaddr_index_filtersL17PD_INDEX_MASK_lv1E
ffff8000040453e0 r _ZN22lineaddr_index_filtersL19PDPT_INDEX_MASK_lv2E
ffff8000040453e8 r _ZN22lineaddr_index_filtersL19PML4_INDEX_MASK_lv3E
ffff8000040453f0 r _ZN22lineaddr_index_filtersL19PML5_INDEX_MASK_lv4E
ffff8000040453f8 r _ZL15PHYS_ADDR_WIDTH
ffff800004045400 r _ZL14PHYS_ADDR_MASK
ffff800004045408 r _ZN14PageTableEntryL5P_BITE
ffff800004045410 r _ZN14PageTableEntryL6RW_BITE
ffff800004045418 r _ZN14PageTableEntryL6US_BITE
ffff800004045420 r _ZN14PageTableEntryL7PWT_BITE
ffff800004045428 r _ZN14PageTableEntryL7PCD_BITE
ffff800004045430 r _ZN14PageTableEntryL5A_BITE
ffff800004045438 r _ZN14PageTableEntryL6XD_BITE
ffff800004045440 r _ZN14PageTableEntryL6P_MASKE
ffff800004045448 r _ZN14PageTableEntryL7RW_MASKE
ffff800004045450 r _ZN14PageTableEntryL7US_MASKE
ffff800004045458 r _ZN14PageTableEntryL8PWT_MASKE
ffff800004045460 r _ZN14PageTableEntryL8PCD_MASKE
ffff800004045468 r _ZN14PageTableEntryL6A_MASKE
ffff800004045470 r _ZN14PageTableEntryL7XD_MASKE
ffff800004045478 r _ZN5PML5EL5R_BITE
ffff800004045480 r _ZN5PML5EL6PS_BITE
ffff800004045488 r _ZN5PML5EL6R_MASKE
ffff800004045490 r _ZN5PML5EL7PS_MASKE
ffff800004045498 r _ZN5PML5EL11ADDR_OFFSETE
ffff8000040454a0 r _ZN5PML5EL9ADDR_BITSE
ffff8000040454a8 r _ZN5PML5EL9ADDR_MASKE
ffff8000040454b0 r _ZN5PML4EL5R_BITE
ffff8000040454b8 r _ZN5PML4EL6PS_BITE
ffff8000040454c0 r _ZN5PML4EL6R_MASKE
ffff8000040454c8 r _ZN5PML4EL7PS_MASKE
ffff8000040454d0 r _ZN5PML4EL11ADDR_OFFSETE
ffff8000040454d8 r _ZN5PML4EL9ADDR_BITSE
ffff8000040454e0 r _ZN5PML4EL9ADDR_MASKE
ffff8000040454e8 r _ZN5PDPTEL5D_BITE
ffff8000040454f0 r _ZN5PDPTEL6PS_BITE
ffff8000040454f8 r _ZN5PDPTEL5G_BITE
ffff800004045500 r _ZN5PDPTEL5R_BITE
ffff800004045508 r _ZN5PDPTEL7PAT_BITE
ffff800004045510 r _ZN5PDPTEL7PK_BITSE
ffff800004045518 r _ZN5PDPTEL6D_MASKE
ffff800004045520 r _ZN5PDPTEL7PS_MASKE
ffff800004045528 r _ZN5PDPTEL6G_MASKE
ffff800004045530 r _ZN5PDPTEL6R_MASKE
ffff800004045538 r _ZN5PDPTEL8PAT_MASKE
ffff800004045540 r _ZN5PDPTEL7PK_MASKE
ffff800004045548 r _ZN5PDPTEL14ADDR_PD_OFFSETE
ffff800004045550 r _ZN5PDPTEL12ADDR_PD_BITSE
ffff800004045558 r _ZN5PDPTEL12ADDR_PD_MASKE
ffff800004045560 r _ZN5PDPTEL15ADDR_1GB_OFFSETE
ffff800004045568 r _ZN5PDPTEL13ADDR_1GB_BITSE
ffff800004045570 r _ZN5PDPTEL13ADDR_1GB_MASKE
ffff800004045578 r _ZN3PDEL5D_BITE
ffff800004045580 r _ZN3PDEL6PS_BITE
ffff800004045588 r _ZN3PDEL5G_BITE
ffff800004045590 r _ZN3PDEL5R_BITE
ffff800004045598 r _ZN3PDEL7PAT_BITE
ffff8000040455a0 r _ZN3PDEL7PK_BITSE
ffff8000040455a8 r _ZN3PDEL6D_MASKE
ffff8000040455b0 r _ZN3PDEL7PS_MASKE
ffff8000040455b8 r _ZN3PDEL6G_MASKE
ffff8000040455c0 r _ZN3PDEL6R_MASKE
ffff8000040455c8 r _ZN3PDEL8PAT_MASKE
ffff8000040455d0 r _ZN3PDEL7PK_MASKE
ffff8000040455d8 r _ZN3PDEL14ADDR_PT_OFFSETE
ffff8000040455e0 r _ZN3PDEL12ADDR_PT_BITSE
ffff8000040455e8 r _ZN3PDEL12ADDR_PT_MASKE
ffff8000040455f0 r _ZN3PDEL15ADDR_2MB_OFFSETE
ffff8000040455f8 r _ZN3PDEL13ADDR_2MB_BITSE
ffff800004045600 r _ZN3PDEL13ADDR_2MB_MASKE
ffff800004045608 r _ZN3PTEL5D_BITE
ffff800004045610 r _ZN3PTEL7PAT_BITE
ffff800004045618 r _ZN3PTEL5G_BITE
ffff800004045620 r _ZN3PTEL5R_BITE
ffff800004045628 r _ZN3PTEL7PK_BITSE
ffff800004045630 r _ZN3PTEL6D_MASKE
ffff800004045638 r _ZN3PTEL8PAT_MASKE
ffff800004045640 r _ZN3PTEL6G_MASKE
ffff800004045648 r _ZN3PTEL6R_MASKE
ffff800004045650 r _ZN3PTEL7PK_MASKE
ffff800004045658 r _ZN3PTEL11ADDR_OFFSETE
ffff800004045660 r _ZN3PTEL9ADDR_BITSE
ffff800004045668 r _ZN3PTEL9ADDR_MASKE
ffff800004045670 r _ZL13ENTRY_PRESENT
ffff800004045671 r _ZL17ENTRY_PRESENT_NOT
ffff800004045672 r _ZL17RWBIT_WRITE_ALLOW
ffff800004045673 r _ZL21RWBIT_WRITE_ALLOW_NOT
ffff800004045674 r _ZL16KERNE_BIT_KERNEL
ffff800004045675 r _ZL20KERNE_BIT_KERNEL_NOT
ffff800004045676 r _ZL17XD_BIT_EXECUTABLE
ffff800004045677 r _ZL21XD_BIT_EXECUTABLE_NOT
ffff800004045678 r _ZN11devices_idsL17DEVICE_ID_UNKNOWNE
ffff800004045680 r _ZN11devices_idsL17IO_APIC_DEVICE_IDE
ffff800004045688 r _ZL25MAX_PHYADDR_1GB_PGS_COUNT
ffff800004045690 r _ZL29PER_CPU_HEAP_COMPLEX_GS_INDEX
ffff800004045694 r _ZL13default_flags
ffff80000404569c r _ZL15INDEX_NOT_EXIST
ffff8000040456a0 r _ZL15PAGE_SIZE_IN_LV
ffff8000040456e0 r _ZL16PAGE_OFFSET_MASK
ffff800004045708 r _ZL17Max_huge_pg_index
ffff800004045710 r _ZN22lineaddr_index_filtersL17PT_INDEX_MASK_lv0E
ffff800004045718 r _ZN22lineaddr_index_filtersL17PD_INDEX_MASK_lv1E
ffff800004045720 r _ZN22lineaddr_index_filtersL19PDPT_INDEX_MASK_lv2E
ffff800004045728 r _ZN22lineaddr_index_filtersL19PML4_INDEX_MASK_lv3E
ffff800004045730 r _ZN22lineaddr_index_filtersL19PML5_INDEX_MASK_lv4E
ffff800004045738 r _ZL15PHYS_ADDR_WIDTH
ffff800004045740 r _ZL14PHYS_ADDR_MASK
ffff800004045748 r _ZN14PageTableEntryL5P_BITE
ffff800004045750 r _ZN14PageTableEntryL6RW_BITE
ffff800004045758 r _ZN14PageTableEntryL6US_BITE
ffff800004045760 r _ZN14PageTableEntryL7PWT_BITE
ffff800004045768 r _ZN14PageTableEntryL7PCD_BITE
ffff800004045770 r _ZN14PageTableEntryL5A_BITE
ffff800004045778 r _ZN14PageTableEntryL6XD_BITE
ffff800004045780 r _ZN14PageTableEntryL6P_MASKE
ffff800004045788 r _ZN14PageTableEntryL7RW_MASKE
ffff800004045790 r _ZN14PageTableEntryL7US_MASKE
ffff800004045798 r _ZN14PageTableEntryL8PWT_MASKE
ffff8000040457a0 r _ZN14PageTableEntryL8PCD_MASKE
ffff8000040457a8 r _ZN14PageTableEntryL6A_MASKE
ffff8000040457b0 r _ZN14PageTableEntryL7XD_MASKE
ffff8000040457b8 r _ZN5PML5EL5R_BITE
ffff8000040457c0 r _ZN5PML5EL6PS_BITE
ffff8000040457c8 r _ZN5PML5EL6R_MASKE
ffff8000040457d0 r _ZN5PML5EL7PS_MASKE
ffff8000040457d8 r _ZN5PML5EL11ADDR_OFFSETE
ffff8000040457e0 r _ZN5PML5EL9ADDR_BITSE
ffff8000040457e8 r _ZN5PML5EL9ADDR_MASKE
ffff8000040457f0 r _ZN5PML4EL5R_BITE
ffff8000040457f8 r _ZN5PML4EL6PS_BITE
ffff800004045800 r _ZN5PML4EL6R_MASKE
ffff800004045808 r _ZN5PML4EL7PS_MASKE
ffff800004045810 r _ZN5PML4EL11ADDR_OFFSETE
ffff800004045818 r _ZN5PML4EL9ADDR_BITSE
ffff800004045820 r _ZN5PML4EL9ADDR_MASKE
ffff800004045828 r _ZN5PDPTEL5D_BITE
ffff800004045830 r _ZN5PDPTEL6PS_BITE
ffff800004045838 r _ZN5PDPTEL5G_BITE
ffff800004045840 r _ZN5PDPTEL5R_BITE
ffff800004045848 r _ZN5PDPTEL7PAT_BITE
ffff800004045850 r _ZN5PDPTEL7PK_BITSE
ffff800004045858 r _ZN5PDPTEL6D_MASKE
ffff800004045860 r _ZN5PDPTEL7PS_MASKE
ffff800004045868 r _ZN5PDPTEL6G_MASKE
ffff800004045870 r _ZN5PDPTEL6R_MASKE
ffff800004045878 r _ZN5PDPTEL8PAT_MASKE
ffff800004045880 r _ZN5PDPTEL7PK_MASKE
ffff800004045888 r _ZN5PDPTEL14ADDR_PD_OFFSETE
ffff800004045890 r _ZN5PDPTEL12ADDR_PD_BITSE
ffff800004045898 r _ZN5PDPTEL12ADDR_PD_MASKE
ffff8000040458a0 r _ZN5PDPTEL15ADDR_1GB_OFFSETE
ffff8000040458a8 r _ZN5PDPTEL13ADDR_1GB_BITSE
ffff8000040458b0 r _ZN5PDPTEL13ADDR_1GB_MASKE
ffff8000040458b8 r _ZN3PDEL5D_BITE
ffff8000040458c0 r _ZN3PDEL6PS_BITE
ffff8000040458c8 r _ZN3PDEL5G_BITE
ffff8000040458d0 r _ZN3PDEL5R_BITE
ffff8000040458d8 r _ZN3PDEL7PAT_BITE
ffff8000040458e0 r _ZN3PDEL7PK_BITSE
ffff8000040458e8 r _ZN3PDEL6D_MASKE
ffff8000040458f0 r _ZN3PDEL7PS_MASKE
ffff8000040458f8 r _ZN3PDEL6G_MASKE
ffff800004045900 r _ZN3PDEL6R_MASKE
ffff800004045908 r _ZN3PDEL8PAT_MASKE
ffff800004045910 r _ZN3PDEL7PK_MASKE
ffff800004045918 r _ZN3PDEL14ADDR_PT_OFFSETE
ffff800004045920 r _ZN3PDEL12ADDR_PT_BITSE
ffff800004045928 r _ZN3PDEL12ADDR_PT_MASKE
ffff800004045930 r _ZN3PDEL15ADDR_2MB_OFFSETE
ffff800004045938 r _ZN3PDEL13ADDR_2MB_BITSE
ffff800004045940 r _ZN3PDEL13ADDR_2MB_MASKE
ffff800004045948 r _ZN3PTEL5D_BITE
ffff800004045950 r _ZN3PTEL7PAT_BITE
ffff800004045958 r _ZN3PTEL5G_BITE
ffff800004045960 r _ZN3PTEL5R_BITE
ffff800004045968 r _ZN3PTEL7PK_BITSE
ffff800004045970 r _ZN3PTEL6D_MASKE
ffff800004045978 r _ZN3PTEL8PAT_MASKE
ffff800004045980 r _ZN3PTEL6G_MASKE
ffff800004045988 r _ZN3PTEL6R_MASKE
ffff800004045990 r _ZN3PTEL7PK_MASKE
ffff800004045998 r _ZN3PTEL11ADDR_OFFSETE
ffff8000040459a0 r _ZN3PTEL9ADDR_BITSE
ffff8000040459a8 r _ZN3PTEL9ADDR_MASKE
ffff8000040459b0 r _ZL13ENTRY_PRESENT
ffff8000040459b1 r _ZL17ENTRY_PRESENT_NOT
ffff8000040459b2 r _ZL17RWBIT_WRITE_ALLOW
ffff8000040459b3 r _ZL21RWBIT_WRITE_ALLOW_NOT
ffff8000040459b4 r _ZL16KERNE_BIT_KERNEL
ffff8000040459b5 r _ZL20KERNE_BIT_KERNEL_NOT
ffff8000040459b6 r _ZL17XD_BIT_EXECUTABLE
ffff8000040459b7 r _ZL21XD_BIT_EXECUTABLE_NOT
ffff8000040459b8 r _ZN11devices_idsL17DEVICE_ID_UNKNOWNE
ffff8000040459c0 r _ZN11devices_idsL17IO_APIC_DEVICE_IDE
ffff8000040459c8 r _ZL25MAX_PHYADDR_1GB_PGS_COUNT
ffff8000040459d0 r _ZL29PER_CPU_HEAP_COMPLEX_GS_INDEX
ffff8000040459d4 r _ZL13default_flags
ffff8000040459dc r _ZL15INDEX_NOT_EXIST
ffff8000040459e0 r _ZL17PAGES_4KB_PER_2MB
ffff8000040459e8 r _ZL17PAGES_2MB_PER_1GB
ffff8000040459f0 r _ZL17PAGES_4KB_PER_1GB
ffff800004045ac0 r _ZL15PAGE_SIZE_IN_LV
ffff800004045b00 r _ZL16PAGE_OFFSET_MASK
ffff800004045b28 r _ZL17Max_huge_pg_index
ffff800004045b30 r _ZN22lineaddr_index_filtersL17PT_INDEX_MASK_lv0E
ffff800004045b38 r _ZN22lineaddr_index_filtersL17PD_INDEX_MASK_lv1E
ffff800004045b40 r _ZN22lineaddr_index_filtersL19PDPT_INDEX_MASK_lv2E
ffff800004045b48 r _ZN22lineaddr_index_filtersL19PML4_INDEX_MASK_lv3E
ffff800004045b50 r _ZN22lineaddr_index_filtersL19PML5_INDEX_MASK_lv4E
ffff800004045b58 r _ZL15PHYS_ADDR_WIDTH
ffff800004045b60 r _ZL14PHYS_ADDR_MASK
ffff800004045b68 r _ZN14PageTableEntryL5P_BITE
ffff800004045b70 r _ZN14PageTableEntryL6RW_BITE
ffff800004045b78 r _ZN14PageTableEntryL6US_BITE
ffff800004045b80 r _ZN14PageTableEntryL7PWT_BITE
ffff800004045b88 r _ZN14PageTableEntryL7PCD_BITE
ffff800004045b90 r _ZN14PageTableEntryL5A_BITE
ffff800004045b98 r _ZN14PageTableEntryL6XD_BITE
ffff800004045ba0 r _ZN14PageTableEntryL6P_MASKE
ffff800004045ba8 r _ZN14PageTableEntryL7RW_MASKE
ffff800004045bb0 r _ZN14PageTableEntryL7US_MASKE
ffff800004045bb8 r _ZN14PageTableEntryL8PWT_MASKE
ffff800004045bc0 r _ZN14PageTableEntryL8PCD_MASKE
ffff800004045bc8 r _ZN14PageTableEntryL6A_MASKE
ffff800004045bd0 r _ZN14PageTableEntryL7XD_MASKE
ffff800004045bd8 r _ZN5PML5EL5R_BITE
ffff800004045be0 r _ZN5PML5EL6PS_BITE
ffff800004045be8 r _ZN5PML5EL6R_MASKE
ffff800004045bf0 r _ZN5PML5EL7PS_MASKE
ffff800004045bf8 r _ZN5PML5EL11ADDR_OFFSETE
ffff800004045c00 r _ZN5PML5EL9ADDR_BITSE
ffff800004045c08 r _ZN5PML5EL9ADDR_MASKE
ffff800004045c10 r _ZN5PML4EL5R_BITE
ffff800004045c18 r _ZN5PML4EL6PS_BITE
ffff800004045c20 r _ZN5PML4EL6R_MASKE
ffff800004045c28 r _ZN5PML4EL7PS_MASKE
ffff800004045c30 r _ZN5PML4EL11ADDR_OFFSETE
ffff800004045c38 r _ZN5PML4EL9ADDR_BITSE
ffff800004045c40 r _ZN5PML4EL9ADDR_MASKE
ffff800004045c48 r _ZN5PDPTEL5D_BITE
ffff800004045c50 r _ZN5PDPTEL6PS_BITE
ffff800004045c58 r _ZN5PDPTEL5G_BITE
ffff800004045c60 r _ZN5PDPTEL5R_BITE
ffff800004045c68 r _ZN5PDPTEL7PAT_BITE
ffff800004045c70 r _ZN5PDPTEL7PK_BITSE
ffff800004045c78 r _ZN5PDPTEL6D_MASKE
ffff800004045c80 r _ZN5PDPTEL7PS_MASKE
ffff800004045c88 r _ZN5PDPTEL6G_MASKE
ffff800004045c90 r _ZN5PDPTEL6R_MASKE
ffff800004045c98 r _ZN5PDPTEL8PAT_MASKE
ffff800004045ca0 r _ZN5PDPTEL7PK_MASKE
ffff800004045ca8 r _ZN5PDPTEL14ADDR_PD_OFFSETE
ffff800004045cb0 r _ZN5PDPTEL12ADDR_PD_BITSE
ffff800004045cb8 r _ZN5PDPTEL12ADDR_PD_MASKE
ffff800004045cc0 r _ZN5PDPTEL15ADDR_1GB_OFFSETE
ffff800004045cc8 r _ZN5PDPTEL13ADDR_1GB_BITSE
ffff800004045cd0 r _ZN5PDPTEL13ADDR_1GB_MASKE
ffff800004045cd8 r _ZN3PDEL5D_BITE
ffff800004045ce0 r _ZN3PDEL6PS_BITE
ffff800004045ce8 r _ZN3PDEL5G_BITE
ffff800004045cf0 r _ZN3PDEL5R_BITE
ffff800004045cf8 r _ZN3PDEL7PAT_BITE
ffff800004045d00 r _ZN3PDEL7PK_BITSE
ffff800004045d08 r _ZN3PDEL6D_MASKE
ffff800004045d10 r _ZN3PDEL7PS_MASKE
ffff800004045d18 r _ZN3PDEL6G_MASKE
ffff800004045d20 r _ZN3PDEL6R_MASKE
ffff800004045d28 r _ZN3PDEL8PAT_MASKE
ffff800004045d30 r _ZN3PDEL7PK_MASKE
ffff800004045d38 r _ZN3PDEL14ADDR_PT_OFFSETE
ffff800004045d40 r _ZN3PDEL12ADDR_PT_BITSE
ffff800004045d48 r _ZN3PDEL12ADDR_PT_MASKE
ffff800004045d50 r _ZN3PDEL15ADDR_2MB_OFFSETE
ffff800004045d58 r _ZN3PDEL13ADDR_2MB_BITSE
ffff800004045d60 r _ZN3PDEL13ADDR_2MB_MASKE
ffff800004045d68 r _ZN3PTEL5D_BITE
ffff800004045d70 r _ZN3PTEL7PAT_BITE
ffff800004045d78 r _ZN3PTEL5G_BITE
ffff800004045d80 r _ZN3PTEL5R_BITE
ffff800004045d88 r _ZN3PTEL7PK_BITSE
ffff800004045d90 r _ZN3PTEL6D_MASKE
ffff800004045d98 r _ZN3PTEL8PAT_MASKE
ffff800004045da0 r _ZN3PTEL6G_MASKE
ffff800004045da8 r _ZN3PTEL6R_MASKE
ffff800004045db0 r _ZN3PTEL7PK_MASKE
ffff800004045db8 r _ZN3PTEL11ADDR_OFFSETE
ffff800004045dc0 r _ZN3PTEL9ADDR_BITSE
ffff800004045dc8 r _ZN3PTEL9ADDR_MASKE
ffff800004045dd0 r _ZL13ENTRY_PRESENT
ffff800004045dd1 r _ZL17ENTRY_PRESENT_NOT
ffff800004045dd2 r _ZL17RWBIT_WRITE_ALLOW
ffff800004045dd3 r _ZL21RWBIT_WRITE_ALLOW_NOT
ffff800004045dd4 r _ZL16KERNE_BIT_KERNEL
ffff800004045dd5 r _ZL20KERNE_BIT_KERNEL_NOT
ffff800004045dd6 r _ZL17XD_BIT_EXECUTABLE
ffff800004045dd7 r _ZL21XD_BIT_EXECUTABLE_NOT
ffff800004045dd8 r _ZN11devices_idsL17DEVICE_ID_UNKNOWNE
ffff800004045de0 r _ZN11devices_idsL17IO_APIC_DEVICE_IDE
ffff800004045de8 r _ZL25MAX_PHYADDR_1GB_PGS_COUNT
ffff800004045df0 r _ZL29PER_CPU_HEAP_COMPLEX_GS_INDEX
ffff800004045df4 r _ZL13default_flags
ffff800004045dfc r _ZL15INDEX_NOT_EXIST
ffff800004045e00 r _ZL15PAGE_SIZE_IN_LV
ffff800004045e40 r _ZL16PAGE_OFFSET_MASK
ffff800004045e68 r _ZL17Max_huge_pg_index
ffff800004045e70 r _ZN22lineaddr_index_filtersL17PT_INDEX_MASK_lv0E
ffff800004045e78 r _ZN22lineaddr_index_filtersL17PD_INDEX_MASK_lv1E
ffff800004045e80 r _ZN22lineaddr_index_filtersL19PDPT_INDEX_MASK_lv2E
ffff800004045e88 r _ZN22lineaddr_index_filtersL19PML4_INDEX_MASK_lv3E
ffff800004045e90 r _ZN22lineaddr_index_filtersL19PML5_INDEX_MASK_lv4E
ffff800004045e98 r _ZL15PHYS_ADDR_WIDTH
ffff800004045ea0 r _ZL14PHYS_ADDR_MASK
ffff800004045ea8 r _ZN14PageTableEntryL5P_BITE
ffff800004045eb0 r _ZN14PageTableEntryL6RW_BITE
ffff800004045eb8 r _ZN14PageTableEntryL6US_BITE
ffff800004045ec0 r _ZN14PageTableEntryL7PWT_BITE
ffff800004045ec8 r _ZN14PageTableEntryL7PCD_BITE
ffff800004045ed0 r _ZN14PageTableEntryL5A_BITE
ffff800004045ed8 r _ZN14PageTableEntryL6XD_BITE
ffff800004045ee0 r _ZN14PageTableEntryL6P_MASKE
ffff800004045ee8 r _ZN14PageTableEntryL7RW_MASKE
ffff800004045ef0 r _ZN14PageTableEntryL7US_MASKE
ffff800004045ef8 r _ZN14PageTableEntryL8PWT_MASKE
ffff800004045f00 r _ZN14PageTableEntryL8PCD_MASKE
ffff800004045f08 r _ZN14PageTableEntryL6A_MASKE
ffff800004045f10 r _ZN14PageTableEntryL7XD_MASKE
ffff800004045f18 r _ZN5PML5EL5R_BITE
ffff800004045f20 r _ZN5PML5EL6PS_BITE
ffff800004045f28 r _ZN5PML5EL6R_MASKE
ffff800004045f30 r _ZN5PML5EL7PS_MASKE
ffff800004045f38 r _ZN5PML5EL11ADDR_OFFSETE
ffff800004045f40 r _ZN5PML5EL9ADDR_BITSE
ffff800004045f48 r _ZN5PML5EL9ADDR_MASKE
ffff800004045f50 r _ZN5PML4EL5R_BITE
ffff800004045f58 r _ZN5PML4EL6PS_BITE
ffff800004045f60 r _ZN5PML4EL6R_MASKE
ffff800004045f68 r _ZN5PML4EL7PS_MASKE
ffff800004045f70 r _ZN5PML4EL11ADDR_OFFSETE
ffff800004045f78 r _ZN5PML4EL9ADDR_BITSE
ffff800004045f80 r _ZN5PML4EL9ADDR_MASKE
ffff800004045f88 r _ZN5PDPTEL5D_BITE
ffff800004045f90 r _ZN5PDPTEL6PS_BITE
ffff800004045f98 r _ZN5PDPTEL5G_BITE
ffff800004045fa0 r _ZN5PDPTEL5R_BITE
ffff800004045fa8 r _ZN5PDPTEL7PAT_BITE
ffff800004045fb0 r _ZN5PDPTEL7PK_BITSE
ffff800004045fb8 r _ZN5PDPTEL6D_MASKE
ffff800004045fc0 r _ZN5PDPTEL7PS_MASKE
ffff800004045fc8 r _ZN5PDPTEL6G_MASKE
ffff800004045fd0 r _ZN5PDPTEL6R_MASKE
ffff800004045fd8 r _ZN5PDPTEL8PAT_MASKE
ffff800004045fe0 r _ZN5PDPTEL7PK_MASKE
ffff800004045fe8 r _ZN5PDPTEL14ADDR_PD_OFFSETE
ffff800004045ff0 r _ZN5PDPTEL12ADDR_PD_BITSE
ffff800004045ff8 r _ZN5PDPTEL12ADDR_PD_MASKE
ffff800004046000 r _ZN5PDPTEL15ADDR_1GB_OFFSETE
ffff800004046008 r _ZN5PDPTEL13ADDR_1GB_BITSE
ffff800004046010 r _ZN5PDPTEL13ADDR_1GB_MASKE
ffff800004046018 r _ZN3PDEL5D_BITE
ffff800004046020 r _ZN3PDEL6PS_BITE
ffff800004046028 r _ZN3PDEL5G_BITE
ffff800004046030 r _ZN3PDEL5R_BITE
ffff800004046038 r _ZN3PDEL7PAT_BITE
ffff800004046040 r _ZN3PDEL7PK_BITSE
ffff800004046048 r _ZN3PDEL6D_MASKE
ffff800004046050 r _ZN3PDEL7PS_MASKE
ffff800004046058 r _ZN3PDEL6G_MASKE
ffff800004046060 r _ZN3PDEL6R_MASKE
ffff800004046068 r _ZN3PDEL8PAT_MASKE
ffff800004046070 r _ZN3PDEL7PK_MASKE
ffff800004046078 r _ZN3PDEL14ADDR_PT_OFFSETE
ffff800004046080 r _ZN3PDEL12ADDR_PT_BITSE
ffff800004046088 r _ZN3PDEL12ADDR_PT_MASKE
ffff800004046090 r _ZN3PDEL15ADDR_2MB_OFFSETE
ffff800004046098 r _ZN3PDEL13ADDR_2MB_BITSE
ffff8000040460a0 r _ZN3PDEL13ADDR_2MB_MASKE
ffff8000040460a8 r _ZN3PTEL5D_BITE
ffff8000040460b0 r _ZN3PTEL7PAT_BITE
ffff8000040460b8 r _ZN3PTEL5G_BITE
ffff8000040460c0 r _ZN3PTEL5R_BITE
ffff8000040460c8 r _ZN3PTEL7PK_BITSE
ffff8000040460d0 r _ZN3PTEL6D_MASKE
ffff8000040460d8 r _ZN3PTEL8PAT_MASKE
ffff8000040460e0 r _ZN3PTEL6G_MASKE
ffff8000040460e8 r _ZN3PTEL6R_MASKE
ffff8000040460f0 r _ZN3PTEL7PK_MASKE
ffff8000040460f8 r _ZN3PTEL11ADDR_OFFSETE
ffff800004046100 r _ZN3PTEL9ADDR_BITSE
ffff800004046108 r _ZN3PTEL9ADDR_MASKE
ffff800004046110 r _ZL13ENTRY_PRESENT
ffff800004046111 r _ZL17ENTRY_PRESENT_NOT
ffff800004046112 r _ZL17RWBIT_WRITE_ALLOW
ffff800004046113 r _ZL21RWBIT_WRITE_ALLOW_NOT
ffff800004046114 r _ZL16KERNE_BIT_KERNEL
ffff800004046115 r _ZL20KERNE_BIT_KERNEL_NOT
ffff800004046116 r _ZL17XD_BIT_EXECUTABLE
ffff800004046117 r _ZL21XD_BIT_EXECUTABLE_NOT
ffff800004046118 r _ZN11devices_idsL17DEVICE_ID_UNKNOWNE
ffff800004046120 r _ZN11devices_idsL17IO_APIC_DEVICE_IDE
ffff800004046128 r _ZL25MAX_PHYADDR_1GB_PGS_COUNT
ffff800004046130 r _ZL29PER_CPU_HEAP_COMPLEX_GS_INDEX
ffff800004046134 r _ZL13default_flags
ffff80000404613c r _ZL15INDEX_NOT_EXIST
ffff800004046140 r _ZL17PAGES_4KB_PER_2MB
ffff800004046148 r _ZL17PAGES_2MB_PER_1GB
ffff800004046150 r _ZL17PAGES_4KB_PER_1GB
ffff800004046780 r _ZL15PAGE_SIZE_IN_LV
ffff8000040467c0 r _ZL16PAGE_OFFSET_MASK
ffff8000040467e8 r _ZL17Max_huge_pg_index
ffff8000040467f0 r _ZN22lineaddr_index_filtersL17PT_INDEX_MASK_lv0E
ffff8000040467f8 r _ZN22lineaddr_index_filtersL17PD_INDEX_MASK_lv1E
ffff800004046800 r _ZN22lineaddr_index_filtersL19PDPT_INDEX_MASK_lv2E
ffff800004046808 r _ZN22lineaddr_index_filtersL19PML4_INDEX_MASK_lv3E
ffff800004046810 r _ZN22lineaddr_index_filtersL19PML5_INDEX_MASK_lv4E
ffff800004046818 r _ZL15PHYS_ADDR_WIDTH
ffff800004046820 r _ZL14PHYS_ADDR_MASK
ffff800004046828 r _ZN14PageTableEntryL5P_BITE
ffff800004046830 r _ZN14PageTableEntryL6RW_BITE
ffff800004046838 r _ZN14PageTableEntryL6US_BITE
ffff800004046840 r _ZN14PageTableEntryL7PWT_BITE
ffff800004046848 r _ZN14PageTableEntryL7PCD_BITE
ffff800004046850 r _ZN14PageTableEntryL5A_BITE
ffff800004046858 r _ZN14PageTableEntryL6XD_BITE
ffff800004046860 r _ZN14PageTableEntryL6P_MASKE
ffff800004046868 r _ZN14PageTableEntryL7RW_MASKE
ffff800004046870 r _ZN14PageTableEntryL7US_MASKE
ffff800004046878 r _ZN14PageTableEntryL8PWT_MASKE
ffff800004046880 r _ZN14PageTableEntryL8PCD_MASKE
ffff800004046888 r _ZN14PageTableEntryL6A_MASKE
ffff800004046890 r _ZN14PageTableEntryL7XD_MASKE
ffff800004046898 r _ZN5PML5EL5R_BITE
ffff8000040468a0 r _ZN5PML5EL6PS_BITE
ffff8000040468a8 r _ZN5PML5EL6R_MASKE
ffff8000040468b0 r _ZN5PML5EL7PS_MASKE
ffff8000040468b8 r _ZN5PML5EL11ADDR_OFFSETE
ffff8000040468c0 r _ZN5PML5EL9ADDR_BITSE
ffff8000040468c8 r _ZN5PML5EL9ADDR_MASKE
ffff8000040468d0 r _ZN5PML4EL5R_BITE
ffff8000040468d8 r _ZN5PML4EL6PS_BITE
ffff8000040468e0 r _ZN5PML4EL6R_MASKE
ffff8000040468e8 r _ZN5PML4EL7PS_MASKE
ffff8000040468f0 r _ZN5PML4EL11ADDR_OFFSETE
ffff8000040468f8 r _ZN5PML4EL9ADDR_BITSE
ffff800004046900 r _ZN5PML4EL9ADDR_MASKE
ffff800004046908 r _ZN5PDPTEL5D_BITE
ffff800004046910 r _ZN5PDPTEL6PS_BITE
ffff800004046918 r _ZN5PDPTEL5G_BITE
ffff800004046920 r _ZN5PDPTEL5R_BITE
ffff800004046928 r _ZN5PDPTEL7PAT_BITE
ffff800004046930 r _ZN5PDPTEL7PK_BITSE
ffff800004046938 r _ZN5PDPTEL6D_MASKE
ffff800004046940 r _ZN5PDPTEL7PS_MASKE
ffff800004046948 r _ZN5PDPTEL6G_MASKE
ffff800004046950 r _ZN5PDPTEL6R_MASKE
ffff800004046958 r _ZN5PDPTEL8PAT_MASKE
ffff800004046960 r _ZN5PDPTEL7PK_MASKE
ffff800004046968 r _ZN5PDPTEL14ADDR_PD_OFFSETE
ffff800004046970 r _ZN5PDPTEL12ADDR_PD_BITSE
ffff800004046978 r _ZN5PDPTEL12ADDR_PD_MASKE
ffff800004046980 r _ZN5PDPTEL15ADDR_1GB_OFFSETE
ffff800004046988 r _ZN5PDPTEL13ADDR_1GB_BITSE
ffff800004046990 r _ZN5PDPTEL13ADDR_1GB_MASKE
ffff800004046998 r _ZN3PDEL5D_BITE
ffff8000040469a0 r _ZN3PDEL6PS_BITE
ffff8000040469a8 r _ZN3PDEL5G_BITE
ffff8000040469b0 r _ZN3PDEL5R_BITE
ffff8000040469b8 r _ZN3PDEL7PAT_BITE
ffff8000040469c0 r _ZN3PDEL7PK_BITSE
ffff8000040469c8 r _ZN3PDEL6D_MASKE
ffff8000040469d0 r _ZN3PDEL7PS_MASKE
ffff8000040469d8 r _ZN3PDEL6G_MASKE
ffff8000040469e0 r _ZN3PDEL6R_MASKE
ffff8000040469e8 r _ZN3PDEL8PAT_MASKE
ffff8000040469f0 r _ZN3PDEL7PK_MASKE
ffff8000040469f8 r _ZN3PDEL14ADDR_PT_OFFSETE
ffff800004046a00 r _ZN3PDEL12ADDR_PT_BITSE
ffff800004046a08 r _ZN3PDEL12ADDR_PT_MASKE
ffff800004046a10 r _ZN3PDEL15ADDR_2MB_OFFSETE
ffff800004046a18 r _ZN3PDEL13ADDR_2MB_BITSE
ffff800004046a20 r _ZN3PDEL13ADDR_2MB_MASKE
ffff800004046a28 r _ZN3PTEL5D_BITE
ffff800004046a30 r _ZN3PTEL7PAT_BITE
ffff800004046a38 r _ZN3PTEL5G_BITE
ffff800004046a40 r _ZN3PTEL5R_BITE
ffff800004046a48 r _ZN3PTEL7PK_BITSE
ffff800004046a50 r _ZN3PTEL6D_MASKE
ffff800004046a58 r _ZN3PTEL8PAT_MASKE
ffff800004046a60 r _ZN3PTEL6G_MASKE
ffff800004046a68 r _ZN3PTEL6R_MASKE
ffff800004046a70 r _ZN3PTEL7PK_MASKE
ffff800004046a78 r _ZN3PTEL11ADDR_OFFSETE
ffff800004046a80 r _ZN3PTEL9ADDR_BITSE
ffff800004046a88 r _ZN3PTEL9ADDR_MASKE
ffff800004046a90 r _ZL13ENTRY_PRESENT
ffff800004046a91 r _ZL17ENTRY_PRESENT_NOT
ffff800004046a92 r _ZL17RWBIT_WRITE_ALLOW
ffff800004046a93 r _ZL21RWBIT_WRITE_ALLOW_NOT
ffff800004046a94 r _ZL16KERNE_BIT_KERNEL
ffff800004046a95 r _ZL20KERNE_BIT_KERNEL_NOT
ffff800004046a96 r _ZL17XD_BIT_EXECUTABLE
ffff800004046a97 r _ZL21XD_BIT_EXECUTABLE_NOT
ffff800004046a98 r _ZN11devices_idsL17DEVICE_ID_UNKNOWNE
ffff800004046aa0 r _ZN11devices_idsL17IO_APIC_DEVICE_IDE
ffff800004046aa8 r _ZL25MAX_PHYADDR_1GB_PGS_COUNT
ffff800004046ab0 r _ZL29PER_CPU_HEAP_COMPLEX_GS_INDEX
ffff800004046ab4 r _ZL13default_flags
ffff800004046abc r _ZL15INDEX_NOT_EXIST
ffff800004046ac0 r _ZL17PAGES_4KB_PER_2MB
ffff800004046ac8 r _ZL17PAGES_2MB_PER_1GB
ffff800004046ad0 r _ZL17PAGES_4KB_PER_1GB
ffff800004046b20 r _ZL15PAGE_SIZE_IN_LV
ffff800004046b60 r _ZL16PAGE_OFFSET_MASK
ffff800004046b88 r _ZL17Max_huge_pg_index
ffff800004046b90 r _ZN22lineaddr_index_filtersL17PT_INDEX_MASK_lv0E
ffff800004046b98 r _ZN22lineaddr_index_filtersL17PD_INDEX_MASK_lv1E
ffff800004046ba0 r _ZN22lineaddr_index_filtersL19PDPT_INDEX_MASK_lv2E
ffff800004046ba8 r _ZN22lineaddr_index_filtersL19PML4_INDEX_MASK_lv3E
ffff800004046bb0 r _ZN22lineaddr_index_filtersL19PML5_INDEX_MASK_lv4E
ffff800004046bb8 r _ZL15PHYS_ADDR_WIDTH
ffff800004046bc0 r _ZL14PHYS_ADDR_MASK
ffff800004046bc8 r _ZN14PageTableEntryL5P_BITE
ffff800004046bd0 r _ZN14PageTableEntryL6RW_BITE
ffff800004046bd8 r _ZN14PageTableEntryL6US_BITE
ffff800004046be0 r _ZN14PageTableEntryL7PWT_BITE
ffff800004046be8 r _ZN14PageTableEntryL7PCD_BITE
ffff800004046bf0 r _ZN14PageTableEntryL5A_BITE
ffff800004046bf8 r _ZN14PageTableEntryL6XD_BITE
ffff800004046c00 r _ZN14PageTableEntryL6P_MASKE
ffff800004046c08 r _ZN14PageTableEntryL7RW_MASKE
ffff800004046c10 r _ZN14PageTableEntryL7US_MASKE
ffff800004046c18 r _ZN14PageTableEntryL8PWT_MASKE
ffff800004046c20 r _ZN14PageTableEntryL8PCD_MASKE
ffff800004046c28 r _ZN14PageTableEntryL6A_MASKE
ffff800004046c30 r _ZN14PageTableEntryL7XD_MASKE
ffff800004046c38 r _ZN5PML5EL5R_BITE
ffff800004046c40 r _ZN5PML5EL6PS_BITE
ffff800004046c48 r _ZN5PML5EL6R_MASKE
ffff800004046c50 r _ZN5PML5EL7PS_MASKE
ffff800004046c58 r _ZN5PML5EL11ADDR_OFFSETE
ffff800004046c60 r _ZN5PML5EL9ADDR_BITSE
ffff800004046c68 r _ZN5PML5EL9ADDR_MASKE
ffff800004046c70 r _ZN5PML4EL5R_BITE
ffff800004046c78 r _ZN5PML4EL6PS_BITE
ffff800004046c80 r _ZN5PML4EL6R_MASKE
ffff800004046c88 r _ZN5PML4EL7PS_MASKE
ffff800004046c90 r _ZN5PML4EL11ADDR_OFFSETE
ffff800004046c98 r _ZN5PML4EL9ADDR_BITSE
ffff800004046ca0 r _ZN5PML4EL9ADDR_MASKE
ffff800004046ca8 r _ZN5PDPTEL5D_BITE
ffff800004046cb0 r _ZN5PDPTEL6PS_BITE
ffff800004046cb8 r _ZN5PDPTEL5G_BITE
ffff800004046cc0 r _ZN5PDPTEL5R_BITE
ffff800004046cc8 r _ZN5PDPTEL7PAT_BITE
ffff800004046cd0 r _ZN5PDPTEL7PK_BITSE
ffff800004046cd8 r _ZN5PDPTEL6D_MASKE
ffff800004046ce0 r _ZN5PDPTEL7PS_MASKE
ffff800004046ce8 r _ZN5PDPTEL6G_MASKE
ffff800004046cf0 r _ZN5PDPTEL6R_MASKE
ffff800004046cf8 r _ZN5PDPTEL8PAT_MASKE
ffff800004046d00 r _ZN5PDPTEL7PK_MASKE
ffff800004046d08 r _ZN5PDPTEL14ADDR_PD_OFFSETE
ffff800004046d10 r _ZN5PDPTEL12ADDR_PD_BITSE
ffff800004046d18 r _ZN5PDPTEL12ADDR_PD_MASKE
ffff800004046d20 r _ZN5PDPTEL15ADDR_1GB_OFFSETE
ffff800004046d28 r _ZN5PDPTEL13ADDR_1GB_BITSE
ffff800004046d30 r _ZN5PDPTEL13ADDR_1GB_MASKE
ffff800004046d38 r _ZN3PDEL5D_BITE
ffff800004046d40 r _ZN3PDEL6PS_BITE
ffff800004046d48 r _ZN3PDEL5G_BITE
ffff800004046d50 r _ZN3PDEL5R_BITE
ffff800004046d58 r _ZN3PDEL7PAT_BITE
ffff800004046d60 r _ZN3PDEL7PK_BITSE
ffff800004046d68 r _ZN3PDEL6D_MASKE
ffff800004046d70 r _ZN3PDEL7PS_MASKE
ffff800004046d78 r _ZN3PDEL6G_MASKE
ffff800004046d80 r _ZN3PDEL6R_MASKE
ffff800004046d88 r _ZN3PDEL8PAT_MASKE
ffff800004046d90 r _ZN3PDEL7PK_MASKE
ffff800004046d98 r _ZN3PDEL14ADDR_PT_OFFSETE
ffff800004046da0 r _ZN3PDEL12ADDR_PT_BITSE
ffff800004046da8 r _ZN3PDEL12ADDR_PT_MASKE
ffff800004046db0 r _ZN3PDEL15ADDR_2MB_OFFSETE
ffff800004046db8 r _ZN3PDEL13ADDR_2MB_BITSE
ffff800004046dc0 r _ZN3PDEL13ADDR_2MB_MASKE
ffff800004046dc8 r _ZN3PTEL5D_BITE
ffff800004046dd0 r _ZN3PTEL7PAT_BITE
ffff800004046dd8 r _ZN3PTEL5G_BITE
ffff800004046de0 r _ZN3PTEL5R_BITE
ffff800004046de8 r _ZN3PTEL7PK_BITSE
ffff800004046df0 r _ZN3PTEL6D_MASKE
ffff800004046df8 r _ZN3PTEL8PAT_MASKE
ffff800004046e00 r _ZN3PTEL6G_MASKE
ffff800004046e08 r _ZN3PTEL6R_MASKE
ffff800004046e10 r _ZN3PTEL7PK_MASKE
ffff800004046e18 r _ZN3PTEL11ADDR_OFFSETE
ffff800004046e20 r _ZN3PTEL9ADDR_BITSE
ffff800004046e28 r _ZN3PTEL9ADDR_MASKE
ffff800004046e30 r _ZL13ENTRY_PRESENT
ffff800004046e31 r _ZL17ENTRY_PRESENT_NOT
ffff800004046e32 r _ZL17RWBIT_WRITE_ALLOW
ffff800004046e33 r _ZL21RWBIT_WRITE_ALLOW_NOT
ffff800004046e34 r _ZL16KERNE_BIT_KERNEL
ffff800004046e35 r _ZL20KERNE_BIT_KERNEL_NOT
ffff800004046e36 r _ZL17XD_BIT_EXECUTABLE
ffff800004046e37 r _ZL21XD_BIT_EXECUTABLE_NOT
ffff800004046e38 r _ZN11devices_idsL17DEVICE_ID_UNKNOWNE
ffff800004046e40 r _ZN11devices_idsL17IO_APIC_DEVICE_IDE
ffff800004046e48 r _ZL25MAX_PHYADDR_1GB_PGS_COUNT
ffff800004046e50 r _ZL29PER_CPU_HEAP_COMPLEX_GS_INDEX
ffff800004046e54 r _ZL13default_flags
ffff800004046e5c r _ZL15INDEX_NOT_EXIST
ffff800004046f40 r _ZL29PER_CPU_HEAP_COMPLEX_GS_INDEX
ffff800004046f44 r _ZL13default_flags
ffff800004046f4c r _ZL15INDEX_NOT_EXIST
ffff800004046f60 r _ZL15PAGE_SIZE_IN_LV
ffff800004046fa0 r _ZL16PAGE_OFFSET_MASK
ffff800004046fc8 r _ZL17Max_huge_pg_index
ffff800004046fd0 r _ZN22lineaddr_index_filtersL17PT_INDEX_MASK_lv0E
ffff800004046fd8 r _ZN22lineaddr_index_filtersL17PD_INDEX_MASK_lv1E
ffff800004046fe0 r _ZN22lineaddr_index_filtersL19PDPT_INDEX_MASK_lv2E
ffff800004046fe8 r _ZN22lineaddr_index_filtersL19PML4_INDEX_MASK_lv3E
ffff800004046ff0 r _ZN22lineaddr_index_filtersL19PML5_INDEX_MASK_lv4E
ffff800004046ff8 r _ZL15PHYS_ADDR_WIDTH
ffff800004047000 r _ZL14PHYS_ADDR_MASK
ffff800004047008 r _ZN14PageTableEntryL5P_BITE
ffff800004047010 r _ZN14PageTableEntryL6RW_BITE
ffff800004047018 r _ZN14PageTableEntryL6US_BITE
ffff800004047020 r _ZN14PageTableEntryL7PWT_BITE
ffff800004047028 r _ZN14PageTableEntryL7PCD_BITE
ffff800004047030 r _ZN14PageTableEntryL5A_BITE
ffff800004047038 r _ZN14PageTableEntryL6XD_BITE
ffff800004047040 r _ZN14PageTableEntryL6P_MASKE
ffff800004047048 r _ZN14PageTableEntryL7RW_MASKE
ffff800004047050 r _ZN14PageTableEntryL7US_MASKE
ffff800004047058 r _ZN14PageTableEntryL8PWT_MASKE
ffff800004047060 r _ZN14PageTableEntryL8PCD_MASKE
ffff800004047068 r _ZN14PageTableEntryL6A_MASKE
ffff800004047070 r _ZN14PageTableEntryL7XD_MASKE
ffff800004047078 r _ZN5PML5EL5R_BITE
ffff800004047080 r _ZN5PML5EL6PS_BITE
ffff800004047088 r _ZN5PML5EL6R_MASKE
ffff800004047090 r _ZN5PML5EL7PS_MASKE
ffff800004047098 r _ZN5PML5EL11ADDR_OFFSETE
ffff8000040470a0 r _ZN5PML5EL9ADDR_BITSE
ffff8000040470a8 r _ZN5PML5EL9ADDR_MASKE
ffff8000040470b0 r _ZN5PML4EL5R_BITE
ffff8000040470b8 r _ZN5PML4EL6PS_BITE
ffff8000040470c0 r _ZN5PML4EL6R_MASKE
ffff8000040470c8 r _ZN5PML4EL7PS_MASKE
ffff8000040470d0 r _ZN5PML4EL11ADDR_OFFSETE
ffff8000040470d8 r _ZN5PML4EL9ADDR_BITSE
ffff8000040470e0 r _ZN5PML4EL9ADDR_MASKE
ffff8000040470e8 r _ZN5PDPTEL5D_BITE
ffff8000040470f0 r _ZN5PDPTEL6PS_BITE
ffff8000040470f8 r _ZN5PDPTEL5G_BITE
ffff800004047100 r _ZN5PDPTEL5R_BITE
ffff800004047108 r _ZN5PDPTEL7PAT_BITE
ffff800004047110 r _ZN5PDPTEL7PK_BITSE
ffff800004047118 r _ZN5PDPTEL6D_MASKE
ffff800004047120 r _ZN5PDPTEL7PS_MASKE
ffff800004047128 r _ZN5PDPTEL6G_MASKE
ffff800004047130 r _ZN5PDPTEL6R_MASKE
ffff800004047138 r _ZN5PDPTEL8PAT_MASKE
ffff800004047140 r _ZN5PDPTEL7PK_MASKE
ffff800004047148 r _ZN5PDPTEL14ADDR_PD_OFFSETE
ffff800004047150 r _ZN5PDPTEL12ADDR_PD_BITSE
ffff800004047158 r _ZN5PDPTEL12ADDR_PD_MASKE
ffff800004047160 r _ZN5PDPTEL15ADDR_1GB_OFFSETE
ffff800004047168 r _ZN5PDPTEL13ADDR_1GB_BITSE
ffff800004047170 r _ZN5PDPTEL13ADDR_1GB_MASKE
ffff800004047178 r _ZN3PDEL5D_BITE
ffff800004047180 r _ZN3PDEL6PS_BITE
ffff800004047188 r _ZN3PDEL5G_BITE
ffff800004047190 r _ZN3PDEL5R_BITE
ffff800004047198 r _ZN3PDEL7PAT_BITE
ffff8000040471a0 r _ZN3PDEL7PK_BITSE
ffff8000040471a8 r _ZN3PDEL6D_MASKE
ffff8000040471b0 r _ZN3PDEL7PS_MASKE
ffff8000040471b8 r _ZN3PDEL6G_MASKE
ffff8000040471c0 r _ZN3PDEL6R_MASKE
ffff8000040471c8 r _ZN3PDEL8PAT_MASKE
ffff8000040471d0 r _ZN3PDEL7PK_MASKE
ffff8000040471d8 r _ZN3PDEL14ADDR_PT_OFFSETE
ffff8000040471e0 r _ZN3PDEL12ADDR_PT_BITSE
ffff8000040471e8 r _ZN3PDEL12ADDR_PT_MASKE
ffff8000040471f0 r _ZN3PDEL15ADDR_2MB_OFFSETE
ffff8000040471f8 r _ZN3PDEL13ADDR_2MB_BITSE
ffff800004047200 r _ZN3PDEL13ADDR_2MB_MASKE
ffff800004047208 r _ZN3PTEL5D_BITE
ffff800004047210 r _ZN3PTEL7PAT_BITE
ffff800004047218 r _ZN3PTEL5G_BITE
ffff800004047220 r _ZN3PTEL5R_BITE
ffff800004047228 r _ZN3PTEL7PK_BITSE
ffff800004047230 r _ZN3PTEL6D_MASKE
ffff800004047238 r _ZN3PTEL8PAT_MASKE
ffff800004047240 r _ZN3PTEL6G_MASKE
ffff800004047248 r _ZN3PTEL6R_MASKE
ffff800004047250 r _ZN3PTEL7PK_MASKE
ffff800004047258 r _ZN3PTEL11ADDR_OFFSETE
ffff800004047260 r _ZN3PTEL9ADDR_BITSE
ffff800004047268 r _ZN3PTEL9ADDR_MASKE
ffff800004047270 r _ZL13ENTRY_PRESENT
ffff800004047271 r _ZL17ENTRY_PRESENT_NOT
ffff800004047272 r _ZL17RWBIT_WRITE_ALLOW
ffff800004047273 r _ZL21RWBIT_WRITE_ALLOW_NOT
ffff800004047274 r _ZL16KERNE_BIT_KERNEL
ffff800004047275 r _ZL20KERNE_BIT_KERNEL_NOT
ffff800004047276 r _ZL17XD_BIT_EXECUTABLE
ffff800004047277 r _ZL21XD_BIT_EXECUTABLE_NOT
ffff800004047278 r _ZN11devices_idsL17DEVICE_ID_UNKNOWNE
ffff800004047280 r _ZN11devices_idsL17IO_APIC_DEVICE_IDE
ffff800004047288 r _ZL25MAX_PHYADDR_1GB_PGS_COUNT
ffff800004047290 r _ZN13PAGE_TBALE_LVL4LV_4E
ffff800004047291 r _ZN13PAGE_TBALE_LVL4LV_5E
ffff800004047292 r _ZL17KERNEL_SPACE_PCID
ffff800004047294 r _ZL16KSPACE_RW_ACCESS
ffff800004047298 r _ZL18DESC_SMALL_SEG_MAX
ffff8000040472a0 r _ZL18DEFAULT_PAT_CONFIG
ffff8000040473a8 r _ZZN13kpoolmemmgr_t6HCB_v213in_heap_allocERPvj13alloc_flags_tE16SMALL_UNIT_BYTES
ffff8000040473ac r _ZZN13kpoolmemmgr_t6HCB_v213in_heap_allocERPvj13alloc_flags_tE14MID_UNIT_BYTES
ffff8000040473b0 r _ZZN13kpoolmemmgr_t6HCB_v213in_heap_allocERPvj13alloc_flags_tE16LARGE_UNIT_BYTES
ffff8000040473c0 r _ZL15PAGE_SIZE_IN_LV
ffff800004047400 r _ZL16PAGE_OFFSET_MASK
ffff800004047428 r _ZL17Max_huge_pg_index
ffff800004047430 r _ZN22lineaddr_index_filtersL17PT_INDEX_MASK_lv0E
ffff800004047438 r _ZN22lineaddr_index_filtersL17PD_INDEX_MASK_lv1E
ffff800004047440 r _ZN22lineaddr_index_filtersL19PDPT_INDEX_MASK_lv2E
ffff800004047448 r _ZN22lineaddr_index_filtersL19PML4_INDEX_MASK_lv3E
ffff800004047450 r _ZN22lineaddr_index_filtersL19PML5_INDEX_MASK_lv4E
ffff800004047458 r _ZL15PHYS_ADDR_WIDTH
ffff800004047460 r _ZL14PHYS_ADDR_MASK
ffff800004047468 r _ZN14PageTableEntryL5P_BITE
ffff800004047470 r _ZN14PageTableEntryL6RW_BITE
ffff800004047478 r _ZN14PageTableEntryL6US_BITE
ffff800004047480 r _ZN14PageTableEntryL7PWT_BITE
ffff800004047488 r _ZN14PageTableEntryL7PCD_BITE
ffff800004047490 r _ZN14PageTableEntryL5A_BITE
ffff800004047498 r _ZN14PageTableEntryL6XD_BITE
ffff8000040474a0 r _ZN14PageTableEntryL6P_MASKE
ffff8000040474a8 r _ZN14PageTableEntryL7RW_MASKE
ffff8000040474b0 r _ZN14PageTableEntryL7US_MASKE
ffff8000040474b8 r _ZN14PageTableEntryL8PWT_MASKE
ffff8000040474c0 r _ZN14PageTableEntryL8PCD_MASKE
ffff8000040474c8 r _ZN14PageTableEntryL6A_MASKE
ffff8000040474d0 r _ZN14PageTableEntryL7XD_MASKE
ffff8000040474d8 r _ZN5PML5EL5R_BITE
ffff8000040474e0 r _ZN5PML5EL6PS_BITE
ffff8000040474e8 r _ZN5PML5EL6R_MASKE
ffff8000040474f0 r _ZN5PML5EL7PS_MASKE
ffff8000040474f8 r _ZN5PML5EL11ADDR_OFFSETE
ffff800004047500 r _ZN5PML5EL9ADDR_BITSE
ffff800004047508 r _ZN5PML5EL9ADDR_MASKE
ffff800004047510 r _ZN5PML4EL5R_BITE
ffff800004047518 r _ZN5PML4EL6PS_BITE
ffff800004047520 r _ZN5PML4EL6R_MASKE
ffff800004047528 r _ZN5PML4EL7PS_MASKE
ffff800004047530 r _ZN5PML4EL11ADDR_OFFSETE
ffff800004047538 r _ZN5PML4EL9ADDR_BITSE
ffff800004047540 r _ZN5PML4EL9ADDR_MASKE
ffff800004047548 r _ZN5PDPTEL5D_BITE
ffff800004047550 r _ZN5PDPTEL6PS_BITE
ffff800004047558 r _ZN5PDPTEL5G_BITE
ffff800004047560 r _ZN5PDPTEL5R_BITE
ffff800004047568 r _ZN5PDPTEL7PAT_BITE
ffff800004047570 r _ZN5PDPTEL7PK_BITSE
ffff800004047578 r _ZN5PDPTEL6D_MASKE
ffff800004047580 r _ZN5PDPTEL7PS_MASKE
ffff800004047588 r _ZN5PDPTEL6G_MASKE
ffff800004047590 r _ZN5PDPTEL6R_MASKE
ffff800004047598 r _ZN5PDPTEL8PAT_MASKE
ffff8000040475a0 r _ZN5PDPTEL7PK_MASKE
ffff8000040475a8 r _ZN5PDPTEL14ADDR_PD_OFFSETE
ffff8000040475b0 r _ZN5PDPTEL12ADDR_PD_BITSE
ffff8000040475b8 r _ZN5PDPTEL12ADDR_PD_MASKE
ffff8000040475c0 r _ZN5PDPTEL15ADDR_1GB_OFFSETE
ffff8000040475c8 r _ZN5PDPTEL13ADDR_1GB_BITSE
ffff8000040475d0 r _ZN5PDPTEL13ADDR_1GB_MASKE
ffff8000040475d8 r _ZN3PDEL5D_BITE
ffff8000040475e0 r _ZN3PDEL6PS_BITE
ffff8000040475e8 r _ZN3PDEL5G_BITE
ffff8000040475f0 r _ZN3PDEL5R_BITE
ffff8000040475f8 r _ZN3PDEL7PAT_BITE
ffff800004047600 r _ZN3PDEL7PK_BITSE
ffff800004047608 r _ZN3PDEL6D_MASKE
ffff800004047610 r _ZN3PDEL7PS_MASKE
ffff800004047618 r _ZN3PDEL6G_MASKE
ffff800004047620 r _ZN3PDEL6R_MASKE
ffff800004047628 r _ZN3PDEL8PAT_MASKE
ffff800004047630 r _ZN3PDEL7PK_MASKE
ffff800004047638 r _ZN3PDEL14ADDR_PT_OFFSETE
ffff800004047640 r _ZN3PDEL12ADDR_PT_BITSE
ffff800004047648 r _ZN3PDEL12ADDR_PT_MASKE
ffff800004047650 r _ZN3PDEL15ADDR_2MB_OFFSETE
ffff800004047658 r _ZN3PDEL13ADDR_2MB_BITSE
ffff800004047660 r _ZN3PDEL13ADDR_2MB_MASKE
ffff800004047668 r _ZN3PTEL5D_BITE
ffff800004047670 r _ZN3PTEL7PAT_BITE
ffff800004047678 r _ZN3PTEL5G_BITE
ffff800004047680 r _ZN3PTEL5R_BITE
ffff800004047688 r _ZN3PTEL7PK_BITSE
ffff800004047690 r _ZN3PTEL6D_MASKE
ffff800004047698 r _ZN3PTEL8PAT_MASKE
ffff8000040476a0 r _ZN3PTEL6G_MASKE
ffff8000040476a8 r _ZN3PTEL6R_MASKE
ffff8000040476b0 r _ZN3PTEL7PK_MASKE
ffff8000040476b8 r _ZN3PTEL11ADDR_OFFSETE
ffff8000040476c0 r _ZN3PTEL9ADDR_BITSE
ffff8000040476c8 r _ZN3PTEL9ADDR_MASKE
ffff8000040476d0 r _ZL13ENTRY_PRESENT
ffff8000040476d1 r _ZL17ENTRY_PRESENT_NOT
ffff8000040476d2 r _ZL17RWBIT_WRITE_ALLOW
ffff8000040476d3 r _ZL21RWBIT_WRITE_ALLOW_NOT
ffff8000040476d4 r _ZL16KERNE_BIT_KERNEL
ffff8000040476d5 r _ZL20KERNE_BIT_KERNEL_NOT
ffff8000040476d6 r _ZL17XD_BIT_EXECUTABLE
ffff8000040476d7 r _ZL21XD_BIT_EXECUTABLE_NOT
ffff8000040476d8 r _ZN11devices_idsL17DEVICE_ID_UNKNOWNE
ffff8000040476e0 r _ZN11devices_idsL17IO_APIC_DEVICE_IDE
ffff8000040476e8 r _ZL25MAX_PHYADDR_1GB_PGS_COUNT
ffff8000040476f0 r _ZN13PAGE_TBALE_LVL4LV_4E
ffff8000040476f1 r _ZN13PAGE_TBALE_LVL4LV_5E
ffff8000040476f2 r _ZL17KERNEL_SPACE_PCID
ffff8000040476f4 r _ZL16KSPACE_RW_ACCESS
ffff8000040476f8 r _ZL18DESC_SMALL_SEG_MAX
ffff800004047700 r _ZL18DEFAULT_PAT_CONFIG
ffff800004047708 r _ZL29PER_CPU_HEAP_COMPLEX_GS_INDEX
ffff80000404770c r _ZL13default_flags
ffff800004047714 r _ZL15INDEX_NOT_EXIST
ffff800004047718 r _ZL16CACHE_VMDESC_MAX
ffff800004047920 r _ZL15PAGE_SIZE_IN_LV
ffff800004047960 r _ZL16PAGE_OFFSET_MASK
ffff800004047988 r _ZL17Max_huge_pg_index
ffff800004047990 r _ZN22lineaddr_index_filtersL17PT_INDEX_MASK_lv0E
ffff800004047998 r _ZN22lineaddr_index_filtersL17PD_INDEX_MASK_lv1E
ffff8000040479a0 r _ZN22lineaddr_index_filtersL19PDPT_INDEX_MASK_lv2E
ffff8000040479a8 r _ZN22lineaddr_index_filtersL19PML4_INDEX_MASK_lv3E
ffff8000040479b0 r _ZN22lineaddr_index_filtersL19PML5_INDEX_MASK_lv4E
ffff8000040479b8 r _ZL15PHYS_ADDR_WIDTH
ffff8000040479c0 r _ZL14PHYS_ADDR_MASK
ffff8000040479c8 r _ZN14PageTableEntryL5P_BITE
ffff8000040479d0 r _ZN14PageTableEntryL6RW_BITE
ffff8000040479d8 r _ZN14PageTableEntryL6US_BITE
ffff8000040479e0 r _ZN14PageTableEntryL7PWT_BITE
ffff8000040479e8 r _ZN14PageTableEntryL7PCD_BITE
ffff8000040479f0 r _ZN14PageTableEntryL5A_BITE
ffff8000040479f8 r _ZN14PageTableEntryL6XD_BITE
ffff800004047a00 r _ZN14PageTableEntryL6P_MASKE
ffff800004047a08 r _ZN14PageTableEntryL7RW_MASKE
ffff800004047a10 r _ZN14PageTableEntryL7US_MASKE
ffff800004047a18 r _ZN14PageTableEntryL8PWT_MASKE
ffff800004047a20 r _ZN14PageTableEntryL8PCD_MASKE
ffff800004047a28 r _ZN14PageTableEntryL6A_MASKE
ffff800004047a30 r _ZN14PageTableEntryL7XD_MASKE
ffff800004047a38 r _ZN5PML5EL5R_BITE
ffff800004047a40 r _ZN5PML5EL6PS_BITE
ffff800004047a48 r _ZN5PML5EL6R_MASKE
ffff800004047a50 r _ZN5PML5EL7PS_MASKE
ffff800004047a58 r _ZN5PML5EL11ADDR_OFFSETE
ffff800004047a60 r _ZN5PML5EL9ADDR_BITSE
ffff800004047a68 r _ZN5PML5EL9ADDR_MASKE
ffff800004047a70 r _ZN5PML4EL5R_BITE
ffff800004047a78 r _ZN5PML4EL6PS_BITE
ffff800004047a80 r _ZN5PML4EL6R_MASKE
ffff800004047a88 r _ZN5PML4EL7PS_MASKE
ffff800004047a90 r _ZN5PML4EL11ADDR_OFFSETE
ffff800004047a98 r _ZN5PML4EL9ADDR_BITSE
ffff800004047aa0 r _ZN5PML4EL9ADDR_MASKE
ffff800004047aa8 r _ZN5PDPTEL5D_BITE
ffff800004047ab0 r _ZN5PDPTEL6PS_BITE
ffff800004047ab8 r _ZN5PDPTEL5G_BITE
ffff800004047ac0 r _ZN5PDPTEL5R_BITE
ffff800004047ac8 r _ZN5PDPTEL7PAT_BITE
ffff800004047ad0 r _ZN5PDPTEL7PK_BITSE
ffff800004047ad8 r _ZN5PDPTEL6D_MASKE
ffff800004047ae0 r _ZN5PDPTEL7PS_MASKE
ffff800004047ae8 r _ZN5PDPTEL6G_MASKE
ffff800004047af0 r _ZN5PDPTEL6R_MASKE
ffff800004047af8 r _ZN5PDPTEL8PAT_MASKE
ffff800004047b00 r _ZN5PDPTEL7PK_MASKE
ffff800004047b08 r _ZN5PDPTEL14ADDR_PD_OFFSETE
ffff800004047b10 r _ZN5PDPTEL12ADDR_PD_BITSE
ffff800004047b18 r _ZN5PDPTEL12ADDR_PD_MASKE
ffff800004047b20 r _ZN5PDPTEL15ADDR_1GB_OFFSETE
ffff800004047b28 r _ZN5PDPTEL13ADDR_1GB_BITSE
ffff800004047b30 r _ZN5PDPTEL13ADDR_1GB_MASKE
ffff800004047b38 r _ZN3PDEL5D_BITE
ffff800004047b40 r _ZN3PDEL6PS_BITE
ffff800004047b48 r _ZN3PDEL5G_BITE
ffff800004047b50 r _ZN3PDEL5R_BITE
ffff800004047b58 r _ZN3PDEL7PAT_BITE
ffff800004047b60 r _ZN3PDEL7PK_BITSE
ffff800004047b68 r _ZN3PDEL6D_MASKE
ffff800004047b70 r _ZN3PDEL7PS_MASKE
ffff800004047b78 r _ZN3PDEL6G_MASKE
ffff800004047b80 r _ZN3PDEL6R_MASKE
ffff800004047b88 r _ZN3PDEL8PAT_MASKE
ffff800004047b90 r _ZN3PDEL7PK_MASKE
ffff800004047b98 r _ZN3PDEL14ADDR_PT_OFFSETE
ffff800004047ba0 r _ZN3PDEL12ADDR_PT_BITSE
ffff800004047ba8 r _ZN3PDEL12ADDR_PT_MASKE
ffff800004047bb0 r _ZN3PDEL15ADDR_2MB_OFFSETE
ffff800004047bb8 r _ZN3PDEL13ADDR_2MB_BITSE
ffff800004047bc0 r _ZN3PDEL13ADDR_2MB_MASKE
ffff800004047bc8 r _ZN3PTEL5D_BITE
ffff800004047bd0 r _ZN3PTEL7PAT_BITE
ffff800004047bd8 r _ZN3PTEL5G_BITE
ffff800004047be0 r _ZN3PTEL5R_BITE
ffff800004047be8 r _ZN3PTEL7PK_BITSE
ffff800004047bf0 r _ZN3PTEL6D_MASKE
ffff800004047bf8 r _ZN3PTEL8PAT_MASKE
ffff800004047c00 r _ZN3PTEL6G_MASKE
ffff800004047c08 r _ZN3PTEL6R_MASKE
ffff800004047c10 r _ZN3PTEL7PK_MASKE
ffff800004047c18 r _ZN3PTEL11ADDR_OFFSETE
ffff800004047c20 r _ZN3PTEL9ADDR_BITSE
ffff800004047c28 r _ZN3PTEL9ADDR_MASKE
ffff800004047c30 r _ZL13ENTRY_PRESENT
ffff800004047c31 r _ZL17ENTRY_PRESENT_NOT
ffff800004047c32 r _ZL17RWBIT_WRITE_ALLOW
ffff800004047c33 r _ZL21RWBIT_WRITE_ALLOW_NOT
ffff800004047c34 r _ZL16KERNE_BIT_KERNEL
ffff800004047c35 r _ZL20KERNE_BIT_KERNEL_NOT
ffff800004047c36 r _ZL17XD_BIT_EXECUTABLE
ffff800004047c37 r _ZL21XD_BIT_EXECUTABLE_NOT
ffff800004047c38 r _ZN11devices_idsL17DEVICE_ID_UNKNOWNE
ffff800004047c40 r _ZN11devices_idsL17IO_APIC_DEVICE_IDE
ffff800004047c48 r _ZL25MAX_PHYADDR_1GB_PGS_COUNT
ffff800004047c50 r _ZN13PAGE_TBALE_LVL4LV_4E
ffff800004047c51 r _ZN13PAGE_TBALE_LVL4LV_5E
ffff800004047c52 r _ZL17KERNEL_SPACE_PCID
ffff800004047c54 r _ZL16KSPACE_RW_ACCESS
ffff800004047c58 r _ZL18DESC_SMALL_SEG_MAX
ffff800004047c60 r _ZL18DEFAULT_PAT_CONFIG
ffff800004047c68 r _ZL29PER_CPU_HEAP_COMPLEX_GS_INDEX
ffff800004047c6c r _ZL13default_flags
ffff800004047c74 r _ZL15INDEX_NOT_EXIST
ffff800004047cc0 r _ZL15PAGE_SIZE_IN_LV
ffff800004047d00 r _ZL16PAGE_OFFSET_MASK
ffff800004047d28 r _ZL17Max_huge_pg_index
ffff800004047d30 r _ZN22lineaddr_index_filtersL17PT_INDEX_MASK_lv0E
ffff800004047d38 r _ZN22lineaddr_index_filtersL17PD_INDEX_MASK_lv1E
ffff800004047d40 r _ZN22lineaddr_index_filtersL19PDPT_INDEX_MASK_lv2E
ffff800004047d48 r _ZN22lineaddr_index_filtersL19PML4_INDEX_MASK_lv3E
ffff800004047d50 r _ZN22lineaddr_index_filtersL19PML5_INDEX_MASK_lv4E
ffff800004047d58 r _ZL15PHYS_ADDR_WIDTH
ffff800004047d60 r _ZL14PHYS_ADDR_MASK
ffff800004047d68 r _ZN14PageTableEntryL5P_BITE
ffff800004047d70 r _ZN14PageTableEntryL6RW_BITE
ffff800004047d78 r _ZN14PageTableEntryL6US_BITE
ffff800004047d80 r _ZN14PageTableEntryL7PWT_BITE
ffff800004047d88 r _ZN14PageTableEntryL7PCD_BITE
ffff800004047d90 r _ZN14PageTableEntryL5A_BITE
ffff800004047d98 r _ZN14PageTableEntryL6XD_BITE
ffff800004047da0 r _ZN14PageTableEntryL6P_MASKE
ffff800004047da8 r _ZN14PageTableEntryL7RW_MASKE
ffff800004047db0 r _ZN14PageTableEntryL7US_MASKE
ffff800004047db8 r _ZN14PageTableEntryL8PWT_MASKE
ffff800004047dc0 r _ZN14PageTableEntryL8PCD_MASKE
ffff800004047dc8 r _ZN14PageTableEntryL6A_MASKE
ffff800004047dd0 r _ZN14PageTableEntryL7XD_MASKE
ffff800004047dd8 r _ZN5PML5EL5R_BITE
ffff800004047de0 r _ZN5PML5EL6PS_BITE
ffff800004047de8 r _ZN5PML5EL6R_MASKE
ffff800004047df0 r _ZN5PML5EL7PS_MASKE
ffff800004047df8 r _ZN5PML5EL11ADDR_OFFSETE
ffff800004047e00 r _ZN5PML5EL9ADDR_BITSE
ffff800004047e08 r _ZN5PML5EL9ADDR_MASKE
ffff800004047e10 r _ZN5PML4EL5R_BITE
ffff800004047e18 r _ZN5PML4EL6PS_BITE
ffff800004047e20 r _ZN5PML4EL6R_MASKE
ffff800004047e28 r _ZN5PML4EL7PS_MASKE
ffff800004047e30 r _ZN5PML4EL11ADDR_OFFSETE
ffff800004047e38 r _ZN5PML4EL9ADDR_BITSE
ffff800004047e40 r _ZN5PML4EL9ADDR_MASKE
ffff800004047e48 r _ZN5PDPTEL5D_BITE
ffff800004047e50 r _ZN5PDPTEL6PS_BITE
ffff800004047e58 r _ZN5PDPTEL5G_BITE
ffff800004047e60 r _ZN5PDPTEL5R_BITE
ffff800004047e68 r _ZN5PDPTEL7PAT_BITE
ffff800004047e70 r _ZN5PDPTEL7PK_BITSE
ffff800004047e78 r _ZN5PDPTEL6D_MASKE
ffff800004047e80 r _ZN5PDPTEL7PS_MASKE
ffff800004047e88 r _ZN5PDPTEL6G_MASKE
ffff800004047e90 r _ZN5PDPTEL6R_MASKE
ffff800004047e98 r _ZN5PDPTEL8PAT_MASKE
ffff800004047ea0 r _ZN5PDPTEL7PK_MASKE
ffff800004047ea8 r _ZN5PDPTEL14ADDR_PD_OFFSETE
ffff800004047eb0 r _ZN5PDPTEL12ADDR_PD_BITSE
ffff800004047eb8 r _ZN5PDPTEL12ADDR_PD_MASKE
ffff800004047ec0 r _ZN5PDPTEL15ADDR_1GB_OFFSETE
ffff800004047ec8 r _ZN5PDPTEL13ADDR_1GB_BITSE
ffff800004047ed0 r _ZN5PDPTEL13ADDR_1GB_MASKE
ffff800004047ed8 r _ZN3PDEL5D_BITE
ffff800004047ee0 r _ZN3PDEL6PS_BITE
ffff800004047ee8 r _ZN3PDEL5G_BITE
ffff800004047ef0 r _ZN3PDEL5R_BITE
ffff800004047ef8 r _ZN3PDEL7PAT_BITE
ffff800004047f00 r _ZN3PDEL7PK_BITSE
ffff800004047f08 r _ZN3PDEL6D_MASKE
ffff800004047f10 r _ZN3PDEL7PS_MASKE
ffff800004047f18 r _ZN3PDEL6G_MASKE
ffff800004047f20 r _ZN3PDEL6R_MASKE
ffff800004047f28 r _ZN3PDEL8PAT_MASKE
ffff800004047f30 r _ZN3PDEL7PK_MASKE
ffff800004047f38 r _ZN3PDEL14ADDR_PT_OFFSETE
ffff800004047f40 r _ZN3PDEL12ADDR_PT_BITSE
ffff800004047f48 r _ZN3PDEL12ADDR_PT_MASKE
ffff800004047f50 r _ZN3PDEL15ADDR_2MB_OFFSETE
ffff800004047f58 r _ZN3PDEL13ADDR_2MB_BITSE
ffff800004047f60 r _ZN3PDEL13ADDR_2MB_MASKE
ffff800004047f68 r _ZN3PTEL5D_BITE
ffff800004047f70 r _ZN3PTEL7PAT_BITE
ffff800004047f78 r _ZN3PTEL5G_BITE
ffff800004047f80 r _ZN3PTEL5R_BITE
ffff800004047f88 r _ZN3PTEL7PK_BITSE
ffff800004047f90 r _ZN3PTEL6D_MASKE
ffff800004047f98 r _ZN3PTEL8PAT_MASKE
ffff800004047fa0 r _ZN3PTEL6G_MASKE
ffff800004047fa8 r _ZN3PTEL6R_MASKE
ffff800004047fb0 r _ZN3PTEL7PK_MASKE
ffff800004047fb8 r _ZN3PTEL11ADDR_OFFSETE
ffff800004047fc0 r _ZN3PTEL9ADDR_BITSE
ffff800004047fc8 r _ZN3PTEL9ADDR_MASKE
ffff800004047fd0 r _ZL13ENTRY_PRESENT
ffff800004047fd1 r _ZL17ENTRY_PRESENT_NOT
ffff800004047fd2 r _ZL17RWBIT_WRITE_ALLOW
ffff800004047fd3 r _ZL21RWBIT_WRITE_ALLOW_NOT
ffff800004047fd4 r _ZL16KERNE_BIT_KERNEL
ffff800004047fd5 r _ZL20KERNE_BIT_KERNEL_NOT
ffff800004047fd6 r _ZL17XD_BIT_EXECUTABLE
ffff800004047fd7 r _ZL21XD_BIT_EXECUTABLE_NOT
ffff800004047fd8 r _ZN11devices_idsL17DEVICE_ID_UNKNOWNE
ffff800004047fe0 r _ZN11devices_idsL17IO_APIC_DEVICE_IDE
ffff800004047fe8 r _ZL25MAX_PHYADDR_1GB_PGS_COUNT
ffff800004047ff0 r _ZN13PAGE_TBALE_LVL4LV_4E
ffff800004047ff1 r _ZN13PAGE_TBALE_LVL4LV_5E
ffff800004047ff2 r _ZL17KERNEL_SPACE_PCID
ffff800004047ff4 r _ZL16KSPACE_RW_ACCESS
ffff800004047ff8 r _ZL18DESC_SMALL_SEG_MAX
ffff800004048000 r _ZL18DEFAULT_PAT_CONFIG
ffff800004048008 r _ZL29PER_CPU_HEAP_COMPLEX_GS_INDEX
ffff80000404800c r _ZL13default_flags
ffff800004048014 r _ZL15INDEX_NOT_EXIST
ffff800004048018 r _ZL16CACHE_VMDESC_MAX
ffff80000404801c r _ZN3msr4apicL14IA32_APIC_BASEE
ffff800004048020 r _ZN3msr4apicL14IA32_X2APIC_IDE
ffff800004048024 r _ZN3msr4apicL19IA32_X2APIC_VERSIONE
ffff800004048028 r _ZN3msr4apicL15IA32_X2APIC_TPRE
ffff80000404802c r _ZN3msr4apicL15IA32_X2APIC_PPRE
ffff800004048030 r _ZN3msr4apicL15IA32_X2APIC_EOIE
ffff800004048034 r _ZN3msr4apicL15IA32_X2APIC_LDRE
ffff800004048038 r _ZN3msr4apicL15IA32_X2APIC_SVRE
ffff80000404803c r _ZN3msr4apicL16IA32_X2APIC_ISR0E
ffff800004048040 r _ZN3msr4apicL16IA32_X2APIC_ISR1E
ffff800004048044 r _ZN3msr4apicL16IA32_X2APIC_ISR2E
ffff800004048048 r _ZN3msr4apicL16IA32_X2APIC_ISR3E
ffff80000404804c r _ZN3msr4apicL16IA32_X2APIC_ISR4E
ffff800004048050 r _ZN3msr4apicL16IA32_X2APIC_ISR5E
ffff800004048054 r _ZN3msr4apicL16IA32_X2APIC_ISR6E
ffff800004048058 r _ZN3msr4apicL16IA32_X2APIC_ISR7E
ffff80000404805c r _ZN3msr4apicL16IA32_X2APIC_TMR0E
ffff800004048060 r _ZN3msr4apicL16IA32_X2APIC_TMR1E
ffff800004048064 r _ZN3msr4apicL16IA32_X2APIC_TMR2E
ffff800004048068 r _ZN3msr4apicL16IA32_X2APIC_TMR3E
ffff80000404806c r _ZN3msr4apicL16IA32_X2APIC_TMR4E
ffff800004048070 r _ZN3msr4apicL16IA32_X2APIC_TMR5E
ffff800004048074 r _ZN3msr4apicL16IA32_X2APIC_TMR6E
ffff800004048078 r _ZN3msr4apicL16IA32_X2APIC_TMR7E
ffff80000404807c r _ZN3msr4apicL16IA32_X2APIC_IRR0E
ffff800004048080 r _ZN3msr4apicL16IA32_X2APIC_IRR1E
ffff800004048084 r _ZN3msr4apicL16IA32_X2APIC_IRR2E
ffff800004048088 r _ZN3msr4apicL16IA32_X2APIC_IRR3E
ffff80000404808c r _ZN3msr4apicL16IA32_X2APIC_IRR4E
ffff800004048090 r _ZN3msr4apicL16IA32_X2APIC_IRR5E
ffff800004048094 r _ZN3msr4apicL16IA32_X2APIC_IRR6E
ffff800004048098 r _ZN3msr4apicL16IA32_X2APIC_IRR7E
ffff80000404809c r _ZN3msr4apicL15IA32_X2APIC_ESRE
ffff8000040480a0 r _ZN3msr4apicL20IA32_X2APIC_LVT_CMCIE
ffff8000040480a4 r _ZN3msr4apicL15IA32_X2APIC_ICRE
ffff8000040480a8 r _ZN3msr4apicL21IA32_X2APIC_LVT_TIMERE
ffff8000040480ac r _ZN3msr4apicL23IA32_X2APIC_LVT_THERMALE
ffff8000040480b0 r _ZN3msr4apicL19IA32_X2APIC_LVT_PMIE
ffff8000040480b4 r _ZN3msr4apicL21IA32_X2APIC_LVT_LINT0E
ffff8000040480b8 r _ZN3msr4apicL21IA32_X2APIC_LVT_LINT1E
ffff8000040480bc r _ZN3msr4apicL21IA32_X2APIC_LVT_ERRORE
ffff8000040480c0 r _ZN3msr4apicL31IA32_X2APIC_TIMER_INITIAL_COUNTE
ffff8000040480c4 r _ZN3msr4apicL31IA32_X2APIC_TIMER_CURRENT_COUNTE
ffff8000040480c8 r _ZN3msr4apicL31IA32_X2APIC_TIMER_DIVIDE_CONFIGE
ffff8000040480cc r _ZN3msr4apicL20IA32_X2APIC_SELF_IPIE
ffff8000040480d0 r _ZN3msr6systemL20IA32_FEATURE_CONTROLE
ffff8000040480d4 r _ZN3msr6systemL8IA32_TSCE
ffff8000040480d8 r _ZN3msr6systemL16IA32_PLATFORM_IDE
ffff8000040480dc r _ZN3msr6systemL19IA32_EBL_CR_POWERONE
ffff8000040480e0 r _ZN3msr6systemL21IA32_EBC_FREQUENCY_IDE
ffff8000040480e4 r _ZN3msr5debugL13IA32_DEBUGCTLE
ffff8000040480e8 r _ZN3msr5debugL21IA32_LASTBRANCHFROMIPE
ffff8000040480ec r _ZN3msr5debugL19IA32_LASTBRANCHTOIPE
ffff8000040480f0 r _ZN3msr5debugL18IA32_LASTINTFROMIPE
ffff8000040480f4 r _ZN3msr5debugL16IA32_LASTINTTOIPE
ffff8000040480f8 r _ZN3msr11performanceL10IA32_MPERFE
ffff8000040480fc r _ZN3msr11performanceL10IA32_APERFE
ffff800004048100 r _ZN3msr11performanceL16IA32_PERF_STATUSE
ffff800004048104 r _ZN3msr11performanceL13IA32_PERF_CTLE
ffff800004048108 r _ZN3msr16power_managementL21IA32_CLOCK_MODULATIONE
ffff80000404810c r _ZN3msr16power_managementL20IA32_THERM_INTERRUPTE
ffff800004048110 r _ZN3msr16power_managementL17IA32_THERM_STATUSE
ffff800004048114 r _ZN3msr16power_managementL16IA32_MISC_ENABLEE
ffff800004048118 r _ZN3msr4mtrrL13IA32_MTRR_CAPE
ffff80000404811c r _ZN3msr4mtrrL18IA32_MTRR_DEF_TYPEE
ffff800004048120 r _ZN3msr4mtrrL19IA32_MTRR_PHYSBASE0E
ffff800004048124 r _ZN3msr4mtrrL19IA32_MTRR_PHYSMASK0E
ffff800004048128 r _ZN3msr4mtrrL19IA32_MTRR_PHYSBASE1E
ffff80000404812c r _ZN3msr4mtrrL19IA32_MTRR_PHYSMASK1E
ffff800004048130 r _ZN3msr4mtrrL19IA32_MTRR_PHYSBASE2E
ffff800004048134 r _ZN3msr4mtrrL19IA32_MTRR_PHYSMASK2E
ffff800004048138 r _ZN3msr4mtrrL19IA32_MTRR_PHYSBASE3E
ffff80000404813c r _ZN3msr4mtrrL19IA32_MTRR_PHYSMASK3E
ffff800004048140 r _ZN3msr4mtrrL19IA32_MTRR_PHYSBASE4E
ffff800004048144 r _ZN3msr4mtrrL19IA32_MTRR_PHYSMASK4E
ffff800004048148 r _ZN3msr4mtrrL19IA32_MTRR_PHYSBASE5E
ffff80000404814c r _ZN3msr4mtrrL19IA32_MTRR_PHYSMASK5E
ffff800004048150 r _ZN3msr4mtrrL19IA32_MTRR_PHYSBASE6E
ffff800004048154 r _ZN3msr4mtrrL19IA32_MTRR_PHYSMASK6E
ffff800004048158 r _ZN3msr4mtrrL19IA32_MTRR_PHYSBASE7E
ffff80000404815c r _ZN3msr4mtrrL19IA32_MTRR_PHYSMASK7E
ffff800004048160 r _ZN3msr4mtrrL19IA32_MTRR_PHYSBASE8E
ffff800004048164 r _ZN3msr4mtrrL19IA32_MTRR_PHYSMASK8E
ffff800004048168 r _ZN3msr4mtrrL19IA32_MTRR_PHYSBASE9E
ffff80000404816c r _ZN3msr4mtrrL19IA32_MTRR_PHYSMASK9E
ffff800004048170 r _ZN3msr4mtrrL22IA32_MTRR_FIX64K_00000E
ffff800004048174 r _ZN3msr4mtrrL22IA32_MTRR_FIX16K_80000E
ffff800004048178 r _ZN3msr4mtrrL22IA32_MTRR_FIX16K_A0000E
ffff80000404817c r _ZN3msr4mtrrL21IA32_MTRR_FIX4K_C0000E
ffff800004048180 r _ZN3msr4mtrrL21IA32_MTRR_FIX4K_C8000E
ffff800004048184 r _ZN3msr4mtrrL21IA32_MTRR_FIX4K_D0000E
ffff800004048188 r _ZN3msr4mtrrL21IA32_MTRR_FIX4K_D8000E
ffff80000404818c r _ZN3msr4mtrrL21IA32_MTRR_FIX4K_E0000E
ffff800004048190 r _ZN3msr4mtrrL21IA32_MTRR_FIX4K_E8000E
ffff800004048194 r _ZN3msr4mtrrL21IA32_MTRR_FIX4K_F0000E
ffff800004048198 r _ZN3msr4mtrrL21IA32_MTRR_FIX4K_F8000E
ffff80000404819c r _ZN3msr4mtrrL8IA32_PATE
ffff8000040481a0 r _ZN3msr3vmxL14IA32_VMX_BASICE
ffff8000040481a4 r _ZN3msr3vmxL22IA32_VMX_PINBASED_CTLSE
ffff8000040481a8 r _ZN3msr3vmxL23IA32_VMX_PROCBASED_CTLSE
ffff8000040481ac r _ZN3msr3vmxL18IA32_VMX_EXIT_CTLSE
ffff8000040481b0 r _ZN3msr3vmxL19IA32_VMX_ENTRY_CTLSE
ffff8000040481b4 r _ZN3msr3vmxL13IA32_VMX_MISCE
ffff8000040481b8 r _ZN3msr3vmxL19IA32_VMX_CR0_FIXED0E
ffff8000040481bc r _ZN3msr3vmxL19IA32_VMX_CR0_FIXED1E
ffff8000040481c0 r _ZN3msr3vmxL19IA32_VMX_CR4_FIXED0E
ffff8000040481c4 r _ZN3msr3vmxL19IA32_VMX_CR4_FIXED1E
ffff8000040481c8 r _ZN3msr3vmxL18IA32_VMX_VMCS_ENUME
ffff8000040481cc r _ZN3msr3vmxL24IA32_VMX_PROCBASED_CTLS2E
ffff8000040481d0 r _ZN3msr3vmxL21IA32_VMX_EPT_VPID_CAPE
ffff8000040481d4 r _ZN3msr3vmxL27IA32_VMX_TRUE_PINBASED_CTLSE
ffff8000040481d8 r _ZN3msr3vmxL28IA32_VMX_TRUE_PROCBASED_CTLSE
ffff8000040481dc r _ZN3msr3vmxL23IA32_VMX_TRUE_EXIT_CTLSE
ffff8000040481e0 r _ZN3msr3vmxL24IA32_VMX_TRUE_ENTRY_CTLSE
ffff8000040481e4 r _ZN3msr3vmxL15IA32_VMX_VMFUNCE
ffff8000040481e8 r _ZN3msr3sgxL21IA32_SGXLEPUBKEYHASH0E
ffff8000040481ec r _ZN3msr3sgxL21IA32_SGXLEPUBKEYHASH1E
ffff8000040481f0 r _ZN3msr3sgxL21IA32_SGXLEPUBKEYHASH2E
ffff8000040481f4 r _ZN3msr3sgxL21IA32_SGXLEPUBKEYHASH3E
ffff8000040481f8 r _ZN3msr5timerL17IA32_TSC_DEADLINEE
ffff8000040481fc r _ZN3msr7syscallL16IA32_SYSENTER_CSE
ffff800004048200 r _ZN3msr7syscallL17IA32_SYSENTER_ESPE
ffff800004048204 r _ZN3msr7syscallL17IA32_SYSENTER_EIPE
ffff800004048208 r _ZN3msr7syscallL9IA32_STARE
ffff80000404820c r _ZN3msr7syscallL10IA32_LSTARE
ffff800004048210 r _ZN3msr7syscallL10IA32_FMASKE
ffff800004048214 r _ZN3msr7syscallL12IA32_FS_BASEE
ffff800004048218 r _ZN3msr7syscallL12IA32_GS_BASEE
ffff80000404821c r _ZN3msr7syscallL19IA32_KERNEL_GS_BASEE
ffff800004048220 r _ZN3msr7syscallL12IA32_TSC_AUXE
ffff800004048770 u _ZN12KspaceMapMgr4PG_RE
ffff800004048780 r _ZL29PER_CPU_HEAP_COMPLEX_GS_INDEX
ffff800004048784 r _ZL13default_flags
ffff80000404878c r _ZL15INDEX_NOT_EXIST
ffff8000040487a0 r _ZL15PAGE_SIZE_IN_LV
ffff8000040487e0 r _ZL16PAGE_OFFSET_MASK
ffff800004048808 r _ZL17Max_huge_pg_index
ffff800004048810 r _ZN22lineaddr_index_filtersL17PT_INDEX_MASK_lv0E
ffff800004048818 r _ZN22lineaddr_index_filtersL17PD_INDEX_MASK_lv1E
ffff800004048820 r _ZN22lineaddr_index_filtersL19PDPT_INDEX_MASK_lv2E
ffff800004048828 r _ZN22lineaddr_index_filtersL19PML4_INDEX_MASK_lv3E
ffff800004048830 r _ZN22lineaddr_index_filtersL19PML5_INDEX_MASK_lv4E
ffff800004048838 r _ZL15PHYS_ADDR_WIDTH
ffff800004048840 r _ZL14PHYS_ADDR_MASK
ffff800004048848 r _ZN14PageTableEntryL5P_BITE
ffff800004048850 r _ZN14PageTableEntryL6RW_BITE
ffff800004048858 r _ZN14PageTableEntryL6US_BITE
ffff800004048860 r _ZN14PageTableEntryL7PWT_BITE
ffff800004048868 r _ZN14PageTableEntryL7PCD_BITE
ffff800004048870 r _ZN14PageTableEntryL5A_BITE
ffff800004048878 r _ZN14PageTableEntryL6XD_BITE
ffff800004048880 r _ZN14PageTableEntryL6P_MASKE
ffff800004048888 r _ZN14PageTableEntryL7RW_MASKE
ffff800004048890 r _ZN14PageTableEntryL7US_MASKE
ffff800004048898 r _ZN14PageTableEntryL8PWT_MASKE
ffff8000040488a0 r _ZN14PageTableEntryL8PCD_MASKE
ffff8000040488a8 r _ZN14PageTableEntryL6A_MASKE
ffff8000040488b0 r _ZN14PageTableEntryL7XD_MASKE
ffff8000040488b8 r _ZN5PML5EL5R_BITE
ffff8000040488c0 r _ZN5PML5EL6PS_BITE
ffff8000040488c8 r _ZN5PML5EL6R_MASKE
ffff8000040488d0 r _ZN5PML5EL7PS_MASKE
ffff8000040488d8 r _ZN5PML5EL11ADDR_OFFSETE
ffff8000040488e0 r _ZN5PML5EL9ADDR_BITSE
ffff8000040488e8 r _ZN5PML5EL9ADDR_MASKE
ffff8000040488f0 r _ZN5PML4EL5R_BITE
ffff8000040488f8 r _ZN5PML4EL6PS_BITE
ffff800004048900 r _ZN5PML4EL6R_MASKE
ffff800004048908 r _ZN5PML4EL7PS_MASKE
ffff800004048910 r _ZN5PML4EL11ADDR_OFFSETE
ffff800004048918 r _ZN5PML4EL9ADDR_BITSE
ffff800004048920 r _ZN5PML4EL9ADDR_MASKE
ffff800004048928 r _ZN5PDPTEL5D_BITE
ffff800004048930 r _ZN5PDPTEL6PS_BITE
ffff800004048938 r _ZN5PDPTEL5G_BITE
ffff800004048940 r _ZN5PDPTEL5R_BITE
ffff800004048948 r _ZN5PDPTEL7PAT_BITE
ffff800004048950 r _ZN5PDPTEL7PK_BITSE
ffff800004048958 r _ZN5PDPTEL6D_MASKE
ffff800004048960 r _ZN5PDPTEL7PS_MASKE
ffff800004048968 r _ZN5PDPTEL6G_MASKE
ffff800004048970 r _ZN5PDPTEL6R_MASKE
ffff800004048978 r _ZN5PDPTEL8PAT_MASKE
ffff800004048980 r _ZN5PDPTEL7PK_MASKE
ffff800004048988 r _ZN5PDPTEL14ADDR_PD_OFFSETE
ffff800004048990 r _ZN5PDPTEL12ADDR_PD_BITSE
ffff800004048998 r _ZN5PDPTEL12ADDR_PD_MASKE
ffff8000040489a0 r _ZN5PDPTEL15ADDR_1GB_OFFSETE
ffff8000040489a8 r _ZN5PDPTEL13ADDR_1GB_BITSE
ffff8000040489b0 r _ZN5PDPTEL13ADDR_1GB_MASKE
ffff8000040489b8 r _ZN3PDEL5D_BITE
ffff8000040489c0 r _ZN3PDEL6PS_BITE
ffff8000040489c8 r _ZN3PDEL5G_BITE
ffff8000040489d0 r _ZN3PDEL5R_BITE
ffff8000040489d8 r _ZN3PDEL7PAT_BITE
ffff8000040489e0 r _ZN3PDEL7PK_BITSE
ffff8000040489e8 r _ZN3PDEL6D_MASKE
ffff8000040489f0 r _ZN3PDEL7PS_MASKE
ffff8000040489f8 r _ZN3PDEL6G_MASKE
ffff800004048a00 r _ZN3PDEL6R_MASKE
ffff800004048a08 r _ZN3PDEL8PAT_MASKE
ffff800004048a10 r _ZN3PDEL7PK_MASKE
ffff800004048a18 r _ZN3PDEL14ADDR_PT_OFFSETE
ffff800004048a20 r _ZN3PDEL12ADDR_PT_BITSE
ffff800004048a28 r _ZN3PDEL12ADDR_PT_MASKE
ffff800004048a30 r _ZN3PDEL15ADDR_2MB_OFFSETE
ffff800004048a38 r _ZN3PDEL13ADDR_2MB_BITSE
ffff800004048a40 r _ZN3PDEL13ADDR_2MB_MASKE
ffff800004048a48 r _ZN3PTEL5D_BITE
ffff800004048a50 r _ZN3PTEL7PAT_BITE
ffff800004048a58 r _ZN3PTEL5G_BITE
ffff800004048a60 r _ZN3PTEL5R_BITE
ffff800004048a68 r _ZN3PTEL7PK_BITSE
ffff800004048a70 r _ZN3PTEL6D_MASKE
ffff800004048a78 r _ZN3PTEL8PAT_MASKE
ffff800004048a80 r _ZN3PTEL6G_MASKE
ffff800004048a88 r _ZN3PTEL6R_MASKE
ffff800004048a90 r _ZN3PTEL7PK_MASKE
ffff800004048a98 r _ZN3PTEL11ADDR_OFFSETE
ffff800004048aa0 r _ZN3PTEL9ADDR_BITSE
ffff800004048aa8 r _ZN3PTEL9ADDR_MASKE
ffff800004048ab0 r _ZL13ENTRY_PRESENT
ffff800004048ab1 r _ZL17ENTRY_PRESENT_NOT
ffff800004048ab2 r _ZL17RWBIT_WRITE_ALLOW
ffff800004048ab3 r _ZL21RWBIT_WRITE_ALLOW_NOT
ffff800004048ab4 r _ZL16KERNE_BIT_KERNEL
ffff800004048ab5 r _ZL20KERNE_BIT_KERNEL_NOT
ffff800004048ab6 r _ZL17XD_BIT_EXECUTABLE
ffff800004048ab7 r _ZL21XD_BIT_EXECUTABLE_NOT
ffff800004048ab8 r _ZN11devices_idsL17DEVICE_ID_UNKNOWNE
ffff800004048ac0 r _ZN11devices_idsL17IO_APIC_DEVICE_IDE
ffff800004048ac8 r _ZL25MAX_PHYADDR_1GB_PGS_COUNT
ffff800004048ad0 r _ZN13PAGE_TBALE_LVL4LV_4E
ffff800004048ad1 r _ZN13PAGE_TBALE_LVL4LV_5E
ffff800004048ad2 r _ZL17KERNEL_SPACE_PCID
ffff800004048ad4 r _ZL16KSPACE_RW_ACCESS
ffff800004048ad8 r _ZL18DESC_SMALL_SEG_MAX
ffff800004048ae0 r _ZL18DEFAULT_PAT_CONFIG
ffff800004048b00 r _ZL15PAGE_SIZE_IN_LV
ffff800004048b40 r _ZL16PAGE_OFFSET_MASK
ffff800004048b68 r _ZL17Max_huge_pg_index
ffff800004048b70 r _ZN22lineaddr_index_filtersL17PT_INDEX_MASK_lv0E
ffff800004048b78 r _ZN22lineaddr_index_filtersL17PD_INDEX_MASK_lv1E
ffff800004048b80 r _ZN22lineaddr_index_filtersL19PDPT_INDEX_MASK_lv2E
ffff800004048b88 r _ZN22lineaddr_index_filtersL19PML4_INDEX_MASK_lv3E
ffff800004048b90 r _ZN22lineaddr_index_filtersL19PML5_INDEX_MASK_lv4E
ffff800004048b98 r _ZL15PHYS_ADDR_WIDTH
ffff800004048ba0 r _ZL14PHYS_ADDR_MASK
ffff800004048ba8 r _ZN14PageTableEntryL5P_BITE
ffff800004048bb0 r _ZN14PageTableEntryL6RW_BITE
ffff800004048bb8 r _ZN14PageTableEntryL6US_BITE
ffff800004048bc0 r _ZN14PageTableEntryL7PWT_BITE
ffff800004048bc8 r _ZN14PageTableEntryL7PCD_BITE
ffff800004048bd0 r _ZN14PageTableEntryL5A_BITE
ffff800004048bd8 r _ZN14PageTableEntryL6XD_BITE
ffff800004048be0 r _ZN14PageTableEntryL6P_MASKE
ffff800004048be8 r _ZN14PageTableEntryL7RW_MASKE
ffff800004048bf0 r _ZN14PageTableEntryL7US_MASKE
ffff800004048bf8 r _ZN14PageTableEntryL8PWT_MASKE
ffff800004048c00 r _ZN14PageTableEntryL8PCD_MASKE
ffff800004048c08 r _ZN14PageTableEntryL6A_MASKE
ffff800004048c10 r _ZN14PageTableEntryL7XD_MASKE
ffff800004048c18 r _ZN5PML5EL5R_BITE
ffff800004048c20 r _ZN5PML5EL6PS_BITE
ffff800004048c28 r _ZN5PML5EL6R_MASKE
ffff800004048c30 r _ZN5PML5EL7PS_MASKE
ffff800004048c38 r _ZN5PML5EL11ADDR_OFFSETE
ffff800004048c40 r _ZN5PML5EL9ADDR_BITSE
ffff800004048c48 r _ZN5PML5EL9ADDR_MASKE
ffff800004048c50 r _ZN5PML4EL5R_BITE
ffff800004048c58 r _ZN5PML4EL6PS_BITE
ffff800004048c60 r _ZN5PML4EL6R_MASKE
ffff800004048c68 r _ZN5PML4EL7PS_MASKE
ffff800004048c70 r _ZN5PML4EL11ADDR_OFFSETE
ffff800004048c78 r _ZN5PML4EL9ADDR_BITSE
ffff800004048c80 r _ZN5PML4EL9ADDR_MASKE
ffff800004048c88 r _ZN5PDPTEL5D_BITE
ffff800004048c90 r _ZN5PDPTEL6PS_BITE
ffff800004048c98 r _ZN5PDPTEL5G_BITE
ffff800004048ca0 r _ZN5PDPTEL5R_BITE
ffff800004048ca8 r _ZN5PDPTEL7PAT_BITE
ffff800004048cb0 r _ZN5PDPTEL7PK_BITSE
ffff800004048cb8 r _ZN5PDPTEL6D_MASKE
ffff800004048cc0 r _ZN5PDPTEL7PS_MASKE
ffff800004048cc8 r _ZN5PDPTEL6G_MASKE
ffff800004048cd0 r _ZN5PDPTEL6R_MASKE
ffff800004048cd8 r _ZN5PDPTEL8PAT_MASKE
ffff800004048ce0 r _ZN5PDPTEL7PK_MASKE
ffff800004048ce8 r _ZN5PDPTEL14ADDR_PD_OFFSETE
ffff800004048cf0 r _ZN5PDPTEL12ADDR_PD_BITSE
ffff800004048cf8 r _ZN5PDPTEL12ADDR_PD_MASKE
ffff800004048d00 r _ZN5PDPTEL15ADDR_1GB_OFFSETE
ffff800004048d08 r _ZN5PDPTEL13ADDR_1GB_BITSE
ffff800004048d10 r _ZN5PDPTEL13ADDR_1GB_MASKE
ffff800004048d18 r _ZN3PDEL5D_BITE
ffff800004048d20 r _ZN3PDEL6PS_BITE
ffff800004048d28 r _ZN3PDEL5G_BITE
ffff800004048d30 r _ZN3PDEL5R_BITE
ffff800004048d38 r _ZN3PDEL7PAT_BITE
ffff800004048d40 r _ZN3PDEL7PK_BITSE
ffff800004048d48 r _ZN3PDEL6D_MASKE
ffff800004048d50 r _ZN3PDEL7PS_MASKE
ffff800004048d58 r _ZN3PDEL6G_MASKE
ffff800004048d60 r _ZN3PDEL6R_MASKE
ffff800004048d68 r _ZN3PDEL8PAT_MASKE
ffff800004048d70 r _ZN3PDEL7PK_MASKE
ffff800004048d78 r _ZN3PDEL14ADDR_PT_OFFSETE
ffff800004048d80 r _ZN3PDEL12ADDR_PT_BITSE
ffff800004048d88 r _ZN3PDEL12ADDR_PT_MASKE
ffff800004048d90 r _ZN3PDEL15ADDR_2MB_OFFSETE
ffff800004048d98 r _ZN3PDEL13ADDR_2MB_BITSE
ffff800004048da0 r _ZN3PDEL13ADDR_2MB_MASKE
ffff800004048da8 r _ZN3PTEL5D_BITE
ffff800004048db0 r _ZN3PTEL7PAT_BITE
ffff800004048db8 r _ZN3PTEL5G_BITE
ffff800004048dc0 r _ZN3PTEL5R_BITE
ffff800004048dc8 r _ZN3PTEL7PK_BITSE
ffff800004048dd0 r _ZN3PTEL6D_MASKE
ffff800004048dd8 r _ZN3PTEL8PAT_MASKE
ffff800004048de0 r _ZN3PTEL6G_MASKE
ffff800004048de8 r _ZN3PTEL6R_MASKE
ffff800004048df0 r _ZN3PTEL7PK_MASKE
ffff800004048df8 r _ZN3PTEL11ADDR_OFFSETE
ffff800004048e00 r _ZN3PTEL9ADDR_BITSE
ffff800004048e08 r _ZN3PTEL9ADDR_MASKE
ffff800004048e10 r _ZL13ENTRY_PRESENT
ffff800004048e11 r _ZL17ENTRY_PRESENT_NOT
ffff800004048e12 r _ZL17RWBIT_WRITE_ALLOW
ffff800004048e13 r _ZL21RWBIT_WRITE_ALLOW_NOT
ffff800004048e14 r _ZL16KERNE_BIT_KERNEL
ffff800004048e15 r _ZL20KERNE_BIT_KERNEL_NOT
ffff800004048e16 r _ZL17XD_BIT_EXECUTABLE
ffff800004048e17 r _ZL21XD_BIT_EXECUTABLE_NOT
ffff800004048e18 r _ZN11devices_idsL17DEVICE_ID_UNKNOWNE
ffff800004048e20 r _ZN11devices_idsL17IO_APIC_DEVICE_IDE
ffff800004048e28 r _ZL25MAX_PHYADDR_1GB_PGS_COUNT
ffff800004048e30 r _ZN13PAGE_TBALE_LVL4LV_4E
ffff800004048e31 r _ZN13PAGE_TBALE_LVL4LV_5E
ffff800004048e32 r _ZL17KERNEL_SPACE_PCID
ffff800004048e34 r _ZL16KSPACE_RW_ACCESS
ffff800004048e38 r _ZL18DESC_SMALL_SEG_MAX
ffff800004048e40 r _ZL18DEFAULT_PAT_CONFIG
ffff800004048e48 r _ZL29PER_CPU_HEAP_COMPLEX_GS_INDEX
ffff800004048e4c r _ZL13default_flags
ffff800004048e54 r _ZL15INDEX_NOT_EXIST
ffff800004048e58 r _ZL16CACHE_VMDESC_MAX
ffff800004053000 B _stack_bottom
ffff800004053000 R _rodata_end
ffff80000405b000 B _stack_top
ffff80000405b000 D __kspace_uppdpt_start
ffff80000405b000 D _ZN12KspaceMapMgr12kspaceUPpdptE
ffff80000415b000 B __heap_bitmap_start
ffff80000415b000 D __kspace_uppdpt_end
ffff800004163000 B __heap_bitmap_end
ffff800004200000 B __heap_start
ffff800004600000 B __heap_end
ffff800004600000 B __klog_start
ffff800004800000 B __klog_end
                 U PAGE_LEVEL
