

0000000000000000 a check_point
0000000000000000 a check_point
0000000000000000 a check_point.success_word
0000000000000000 a check_point.success_word
0000000000000004 a check_point.failure_flags
0000000000000004 a check_point.failure_flags
0000000000000005 a check_point.failure_caused_excption_num
0000000000000005 a check_point.failure_caused_excption_num
0000000000000006 a check_point.failure_final_stack_top
0000000000000006 a check_point.failure_final_stack_top
0000000000000008 a check_point.check_point_id
0000000000000008 a check_point.check_point_id
000000000000000a a check_point.reserved
000000000000000a a check_point.reserved
0000000000000010 a check_point_size
0000000000000010 a check_point_size
0000000000000078 a VEC_OFFSET
0000000000004000 A ap_bootstrap_base
0000000000004000 R AP_realmode_start
0000000000004000 r AP_realmode_start.ap_start
000000000000401d r AP_realmode_start.ap_start_pe
0000000000004085 r AP_realmode_start.ap_start_64
00000000000040e0 r pe_interrupt_handlers
00000000000040e0 r pe_interrupt_handlers.divide_by_zero
000000000000411f r pe_interrupt_handlers.debug
000000000000415e r pe_interrupt_handlers.nmi
000000000000419d r pe_interrupt_handlers.bp
00000000000041dc r pe_interrupt_handlers.of
000000000000421b r pe_interrupt_handlers.br
000000000000425a r pe_interrupt_handlers.ud
0000000000004299 r pe_interrupt_handlers.nm
00000000000042d8 r pe_interrupt_handlers.df
000000000000431d r pe_interrupt_handlers.cross
000000000000435c r pe_interrupt_handlers.tss
00000000000043a1 r pe_interrupt_handlers.NP
00000000000043e6 r pe_interrupt_handlers.SS
000000000000442b r pe_interrupt_handlers.GP
0000000000004470 r pe_interrupt_handlers.PF
00000000000044b5 r pe_interrupt_handlers.vec15
00000000000044f4 r pe_interrupt_handlers.MF
0000000000004533 r pe_interrupt_handlers.AC
0000000000004578 r pe_interrupt_handlers.MC
00000000000045b7 r pe_interrupt_handlers.XM
00000000000045f6 r pe_interrupt_handlers.VE
0000000000004635 r pe_interrupt_handlers.CP
0000000000005000 r gdt_start
0000000000005008 r gdt_code
0000000000005010 r gdt_data
0000000000005018 r gdt_longmode_code
0000000000005020 r gdt_descriptor
0000000000005020 r gdt_end
0000000000006000 R realmode_enter_checkpoint
0000000000006010 R pemode_enter_checkpoint
0000000000006020 R assigned_processor_id
0000000000006024 R assigned_cr3
0000000000006028 r ap_tmp_gs_slots
0000000000006228 R idt_table_pe
00000000000062d8 R idt_descriptor_pe
0000000000007000 R ap_bootstrap_begin
000000000000b000 R ap_bootstrap_end
000000000000b000 r init_stack_end
0000000000010000 A INIT_STACK_SIZE
0000000000100000 A init_sec_size
0000000000200000 A INIT_HEAP_SIZE
0000000001000000 A INIT_IMAGE_SIZE
0000000002000000 A KImgphybase
0000000008000000 A __KImgSize
0000000100000000 A base_kernel_address
0000000100000000 A INIT_BASE
0000000100000000 T __init_text_start
0000000100000000 T wrmsr_func
000000010000002f T _Z8va_allocmh
00000001000000c5 t _ZL16init_io_and_heapP14BootInfoHeader
0000000100000258 t _ZL17init_memory_earlyP14BootInfoHeader
000000010000075a t _ZL18relocate_initramfsP14BootInfoHeaderP13ctx_early_mem
0000000100000abb t _ZL11va_alloc_upmh
0000000100000b55 t _ZL20phase_3a_load_kernelP10kernel_mmuPK13ctx_early_memP14BootInfoHeader
0000000100001d10 t _ZL8phase_3bP10kernel_mmuP14BootInfoHeaderPK13ctx_early_mem
0000000100003a4e t _ZL17phase_45_finalizeP10kernel_mmummPK13ctx_intervals
0000000100004601 T init
000000010000496e W _ZNK11vm_interval5vbaseEv
0000000100004988 W _ZNK11vm_interval5pbaseEv
00000001000049a2 T _Z21cache_strategy_to_idx16cache_strategy_t
0000000100004a43 t _ZL13vinterval_endRK9vinterval
0000000100004a64 T _ZN10kernel_mmu21mmu_specify_allocatorC1Ev
0000000100004a64 T _ZN10kernel_mmu21mmu_specify_allocatorC2Ev
0000000100004b1e T _ZN10kernel_mmu21mmu_specify_allocator5allocEv
0000000100004b7a T _ZN10kernel_mmuC1E10arch_enums
0000000100004b7a T _ZN10kernel_mmuC2E10arch_enums
0000000100004c7d t _ZL24split_vinterval_to_pagesR26seg_to_pages_info_pakage_tRK9vinterval
0000000100004fda t _ZZN10kernel_mmu3mapE9vinterval8pgaccessENKUlmmmE_clEmmm
0000000100005652 t _ZZN10kernel_mmu3mapE9vinterval8pgaccessENKUlmmmE0_clEmmm
0000000100005b62 t _ZZN10kernel_mmu3mapE9vinterval8pgaccessENKUlmmmE1_clEmmm
0000000100005eee T _ZN10kernel_mmu3mapE9vinterval8pgaccess
0000000100006652 T _ZN10kernel_mmu5unmapE9vinterval
0000000100006dd4 T _ZN10kernel_mmu19get_root_table_baseEv
0000000100006dea T _ZN10kernel_mmu23get_self_alloc_intervalEv
0000000100006e30 T init_jump_to_kernel
0000000100006e4c T shift_kernel
0000000100006e51 T _init_entry
00000001000070a9 t init_hang
00000001000070b0 T div_by_zero_bare_enter
0000000100007124 T breakpoint_bare_enter
0000000100007198 T nmi_bare_enter
000000010000720c T overflow_bare_enter
0000000100007280 T invalid_opcode_bare_enter
00000001000072f4 T general_protection_bare_enter
0000000100007371 T double_fault_bare_enter
00000001000073ee T page_fault_bare_enter
000000010000746b T machine_check_bare_enter
00000001000074df T invalid_tss_bare_enter
000000010000755c T simd_floating_point_bare_enter
00000001000075d0 T virtualization_bare_enter
000000010000764d t _ZN12_GLOBAL__N_1L12halt_foreverEv
0000000100007655 T div_by_zero_cpp_enter
000000010000766d T breakpoint_cpp_enter
0000000100007685 T nmi_cpp_enter
000000010000769d T overflow_cpp_enter
00000001000076b5 T invalid_opcode_cpp_enter
00000001000076cd T general_protection_cpp_enter
00000001000076e5 T double_fault_cpp_enter
00000001000076fd T page_fault_cpp_enter
0000000100007715 T machine_check_cpp_enter
000000010000772d T invalid_tss_cpp_enter
0000000100007745 T simd_floating_point_cpp_enter
000000010000775d T virtualization_cpp_enter
0000000100007776 T _ZN9init_heap13linktime_initEmjm
000000010000791e T _ZNK9init_heap13meta_from_ptrEPv
0000000100007938 T _ZNK9init_heap13size_to_orderEj
000000010000798c T _ZNK9init_heap13ptr_to_offsetEPvh
00000001000079ce T _ZN9init_heap12cache_insertEhm
0000000100007a68 T _ZN9init_heap10cache_pickEhRm
0000000100007b3c T _ZN9init_heap14internal_allocERmh
0000000100007e54 T _ZN9init_heap13internal_freeEmh
0000000100007f32 T _ZN9init_heap5allocEj13alloc_flags_t
000000010000805c T _ZN9init_heap4freeEPv
0000000100008188 T _ZN9init_heap7reallocEPvj13alloc_flags_t
0000000100008326 T _ZN9init_heap5clearEPv
00000001000083a8 T _ZNK9init_heap14is_addr_belongEPv
00000001000083ff T _Znwm
0000000100008444 T _Znwm13alloc_flags_t
000000010000848c T _Znam
00000001000084ad T _Znam13alloc_flags_t
00000001000084d8 T _ZdlPv
0000000100008507 T _ZdlPvm
000000010000853a T _ZdaPv
0000000100008569 T _ZdaPvm
000000010000859c T _ZnwmPv
00000001000085b2 T _ZnamPv
00000001000085c8 T __cxa_atexit
00000001000085e3 t _Z41__static_initialization_and_destruction_0v
0000000100008633 t _GLOBAL__sub_I_g_init_heap
0000000100008646 W _ZN28BuddyControlBlock_foundationC1Ev
0000000100008646 W _ZN28BuddyControlBlock_foundationC2Ev
000000010000869c W _ZN28BuddyControlBlock_foundationD1Ev
000000010000869c W _ZN28BuddyControlBlock_foundationD2Ev
00000001000086bc W _ZN28BuddyControlBlock_foundationD0Ev
00000001000086f6 W _ZN17BCB_fnd_DeepFirstC1Ev
00000001000086f6 W _ZN17BCB_fnd_DeepFirstC2Ev
000000010000872a W _ZN17BCB_fnd_DeepFirstD1Ev
000000010000872a W _ZN17BCB_fnd_DeepFirstD2Ev
000000010000875e W _ZN17BCB_fnd_DeepFirstD0Ev
0000000100008798 W _ZN9init_heapC1Ev
0000000100008798 W _ZN9init_heapC2Ev
0000000100008840 W _ZN9init_heapD1Ev
0000000100008840 W _ZN9init_heapD2Ev
0000000100008862 T _ZNK28BuddyControlBlock_foundation9node_readEm
00000001000088ac T _ZN28BuddyControlBlock_foundation10node_writeEmh
0000000100008930 T _ZNK28BuddyControlBlock_foundation9leaf_readEm
0000000100008992 T _ZN28BuddyControlBlock_foundation10leaf_writeEmb
0000000100008a3c T _ZNK28BuddyControlBlock_foundation14heap_idx_orderEm
0000000100008a6e T _ZNK28BuddyControlBlock_foundation19order_offset_to_idxEhm
0000000100008aaa T _ZNK28BuddyControlBlock_foundation19idx_to_order_offsetEmRhRm
0000000100008b0c T _ZNK28BuddyControlBlock_foundation7is_freeEhm
0000000100008b84 T _ZNK28BuddyControlBlock_foundation16validate_subtreeEmhPm
000000010000905e T _ZN28BuddyControlBlock_foundation16btree_validationEv
000000010000919a t _ZN12_GLOBAL__N_1L13is_4k_alignedEm
00000001000091b8 t _ZZ13modify_access14phymem_segment8pgaccessENKUlR8PTEEntryS0_E_clES2_S0_
00000001000092bc t _ZZ13modify_access14phymem_segment8pgaccessENKUlR13PDPTEEntry1GBS0_E_clES2_S0_
00000001000093c4 t _ZZ13modify_access14phymem_segment8pgaccessENKUlmE_clEm
00000001000093de T _Z13modify_access14phymem_segment8pgaccess
000000010000966c T _ZN7InitGop12default_kurdEv
00000001000096b0 T _ZN7InitGop15default_successEv
00000001000096e6 T _ZN7InitGop12default_failEv
000000010000971c T _ZN7InitGop13default_fatalEv
0000000100009752 T _ZN7InitGop4InitEP26GlobalBasicGraphicInfoType
00000001000099ba T _ZN7InitGop14PutPixelUnsafeE5Vec2ij
0000000100009a3c T _ZN7InitGop8PutPixelE5Vec2ij
0000000100009ace T _ZN7InitGop9DrawHLineE5Vec2iij
0000000100009c56 T _ZN7InitGop9DrawVLineE5Vec2iij
0000000100009daa T _ZN7InitGop8FillRectE5Vec2iS0_j
0000000100009f74 T _ZN7InitGop6MoveUpE5Vec2iS0_ij
000000010000a27e T _ZN7InitGop4BlitE5Vec2iPK8GfxImage
000000010000a50c T _ZN7InitGop5FlushEv
000000010000a516 T _ZN7InitGop9FlushRectE5Vec2iS0_
000000010000a642 T _ZN7InitGop5ReadyEv
000000010000a656 T _ZN7InitGop7GetInfoEv
000000010000a69c T _ZN7InitGop11FrameBufferEv
000000010000a6b0 W _ZN6KURD_tC1Etthhhhh
000000010000a6b0 W _ZN6KURD_tC2Etthhhhh
000000010000a773 t inb
000000010000a78f t outb
000000010000a7ab T uart_write
000000010000a830 T serial_init_stage1
000000010000a95e T _ZN16init_textconsole12default_kurdEv
000000010000a9a2 T _ZN16init_textconsole15default_successEv
000000010000a9d8 T _ZN16init_textconsole12default_failEv
000000010000aa0e T _ZN16init_textconsole13default_fatalEv
000000010000aa44 T _ZN16init_textconsole12render_glyphEiih
000000010000ac34 T _ZN16init_textconsole4InitEPKh5Vec2ijj
000000010000ae90 T _ZN16init_textconsole5ReadyEv
000000010000aea4 T _ZN16init_textconsole7PutCharEc
000000010000b1a6 T _ZN16init_textconsole9PutStringEPKcm
000000010000b21c T _ZN16init_textconsole5ClearEv
000000010000b2a0 T _ZN15basic_allocator24sort_by_physical_addressEv
000000010000b48c T _ZN15basic_allocator17fill_memory_holesEv
000000010000b7b4 T _ZN15basic_allocator32reclaim_loader_and_boot_servicesEv
000000010000bb3a T _ZN15basic_allocator9pages_setE12mem_interval12PHY_MEM_TYPE
000000010000bfc0 T _ZN15basic_allocator11pages_allocEmh
000000010000c340 T _ZN15basic_allocator4InitEP24EFI_MEMORY_DESCRIPTORX64t
000000010000c6f0 T _ZN15basic_allocator20get_pure_memory_viewEPm
000000010000c740 T _ZN15basic_allocator14print_now_segsEv
000000010000cf8a W _ZN9Ktemplats11list_doublyI24EFI_MEMORY_DESCRIPTORX64EC1Ev
000000010000cf8a W _ZN9Ktemplats11list_doublyI24EFI_MEMORY_DESCRIPTORX64EC2Ev
000000010000cfbc W _ZNK9Ktemplats11list_doublyI24EFI_MEMORY_DESCRIPTORX64E4sizeEv
000000010000cfd2 W _ZN9Ktemplats11list_doublyI24EFI_MEMORY_DESCRIPTORX64E5beginEv
000000010000d002 W _ZN9Ktemplats11list_doublyI24EFI_MEMORY_DESCRIPTORX64E8iteratorppEv
000000010000d032 W _ZN9Ktemplats11list_doublyI24EFI_MEMORY_DESCRIPTORX64E8iteratordeEv
000000010000d04c W _ZN9Ktemplats11list_doublyI24EFI_MEMORY_DESCRIPTORX64E3endEv
000000010000d076 W _ZNK9Ktemplats11list_doublyI24EFI_MEMORY_DESCRIPTORX64E8iteratorneERKS3_
000000010000d09c W _ZN9Ktemplats11list_doublyI24EFI_MEMORY_DESCRIPTORX64E9push_backERKS1_
000000010000d138 W _ZN9Ktemplats11list_doublyI24EFI_MEMORY_DESCRIPTORX64ED1Ev
000000010000d138 W _ZN9Ktemplats11list_doublyI24EFI_MEMORY_DESCRIPTORX64ED2Ev
000000010000d15a W _ZN9Ktemplats11list_doublyI24EFI_MEMORY_DESCRIPTORX64E8iteratorC1EPNS2_4nodeE
000000010000d15a W _ZN9Ktemplats11list_doublyI24EFI_MEMORY_DESCRIPTORX64E8iteratorC2EPNS2_4nodeE
000000010000d178 W _ZN9Ktemplats11list_doublyI24EFI_MEMORY_DESCRIPTORX64E10alloc_nodeERKS1_
000000010000d264 W _ZN9Ktemplats11list_doublyI24EFI_MEMORY_DESCRIPTORX64E5clearEv
000000010000d2d8 W _ZN9Ktemplats11list_doublyI24EFI_MEMORY_DESCRIPTORX64E9free_nodeEPNS2_4nodeE
000000010000d312 T _ZN14page_allocator4initEv
000000010000e234 T _ZN14page_allocator20get_interval_by_addrEm
000000010000e2fa t _ZZN14page_allocator30interval_top_to_bottom_ff_scanEPNS_13phyinterval_tEmhENKUlmE_clEm
000000010000e334 t _ZZN14page_allocator30interval_top_to_bottom_ff_scanEPNS_13phyinterval_tEmhENKUlmE0_clEm
000000010000e370 T _ZN14page_allocator30interval_top_to_bottom_ff_scanEPNS_13phyinterval_tEmh
000000010000e530 t _ZZN14page_allocator30interval_bottom_to_top_ff_scanEPNS_13phyinterval_tEmhENKUlmE_clEm
000000010000e56e t _ZZN14page_allocator30interval_bottom_to_top_ff_scanEPNS_13phyinterval_tEmhENKUlmE0_clEm
000000010000e5ac T _ZN14page_allocator30interval_bottom_to_top_ff_scanEPNS_13phyinterval_tEmh
000000010000e75e T _ZN14page_allocator27available_meminterval_probeEmh
000000010000e91e T _ZN14page_allocator32available_meminterval_probe_keepEmh
000000010000eaf6 T _ZN14page_allocator12interval_setE12mem_interval12page_state_t
000000010000ecac T _ZN14page_allocator9pages_setE12mem_interval12page_state_t
000000010000ecf6 T _ZN14page_allocator15free_page_countEv
000000010000ed0a T _ZN14page_allocator16total_page_countEv
000000010000ed1e T _ZN14page_allocator11get_mem_mapEv
000000010000ed32 T _ZN14page_allocator17get_mem_map_pbaseEv
000000010000ed46 T _ZN14page_allocator8dram_topEv
000000010000ed5a T _ZN14page_allocator18relinquish_mem_mapEPmS0_
000000010000ef6c T _Z16initramfs_lookupPK16initramfs_headerPKcPm
000000010000f128 T _ZN5PanicC1Ev
000000010000f128 T _ZN5PanicC2Ev
000000010000f138 T _ZN5PanicD1Ev
000000010000f138 T _ZN5PanicD2Ev
000000010000f148 T _ZN5Panic30other_processors_froze_handlerEv
000000010000f152 T _ZN5Panic10will_checkEv
000000010000f174 T _ZN5Panic13dumpregistersEPN13panic_context11x64_contextE
000000010000fe62 T _ZN5Panic5panicE21panic_behaviors_flagsPcPN13panic_context11x64_contextEP18panic_info_inshort6KURD_t
000000010000ff61 t _Z41__static_initialization_and_destruction_0v
000000010000ff81 t _GLOBAL__sub_I_GlobalStatus
000000010000ff94 W _ZN6KURD_tC1Ev
000000010000ff94 W _ZN6KURD_tC2Ev
000000010000fffa W _ZN15panic_last_willC1Ev
000000010000fffa W _ZN15panic_last_willC2Ev
0000000100010020 T _ZN3kio4kout18__print_level_codeE6KURD_t
0000000100010186 T _ZN3kio4kout19__print_result_codeE6KURD_t
00000001000102ec T _ZN3kio4kout18__print_err_domainE6KURD_t
00000001000104c0 T _ZN3kio4kout19__print_module_codeE6KURD_t
00000001000107da T _ZN3kio4kout11print_numerEPm19numer_system_selecthb
0000000100010a74 T _ZN3kio4kout12uniform_putsEPKcm
0000000100010b04 T _ZN3kio4koutlsENS_4endlE
0000000100010b48 T _ZN3kio4koutlsE6KURD_t
0000000100010bc6 T _ZN3kio4koutlsEPKc
0000000100010c3c T _ZN3kio4koutlsEc
0000000100010c98 T _ZN3kio4koutlsEPKv
0000000100010d16 T _ZN3kio4koutlsEm
0000000100010d70 T _ZN3kio4koutlsEl
0000000100010dca T _ZN3kio4koutlsEj
0000000100010e24 T _ZN3kio4koutlsEi
0000000100010e7e T _ZN3kio4koutlsEt
0000000100010ed8 T _ZN3kio4koutlsEs
0000000100010f32 T _ZN3kio4koutlsEh
0000000100010f8c T _ZN3kio4koutlsEa
0000000100010fe6 T _ZN3kio4kout9shift_binEv
0000000100011014 T _ZN3kio4kout9shift_decEv
0000000100011042 T _ZN3kio4kout9shift_hexEv
0000000100011070 T _ZN3kio4kout14get_statisticsEv
00000001000110ec T _ZN3kio4kout4InitEv
0000000100011124 T _ZN3kio4kout16register_backendENS_12kout_backendE
00000001000111f8 T _ZN3kio4kout18unregister_backendEm
0000000100011276 T _ZN3kio4kout12mask_backendEm
00000001000112fa T _ZN3kio4koutlsE19numer_system_select
000000010001137c t _Z41__static_initialization_and_destruction_0v
00000001000113e5 t _GLOBAL__sub_I__ZN3kio4kout18__print_level_codeE6KURD_t
00000001000113f8 W _ZN3kio4endlC1Ev
00000001000113f8 W _ZN3kio4endlC2Ev
0000000100011408 W _ZN3kio4koutD1Ev
0000000100011408 W _ZN3kio4koutD2Ev
0000000100011418 W _ZN3kio4koutC1Ev
0000000100011418 W _ZN3kio4koutC2Ev
0000000100011442 T align_down
000000010001145f T min
0000000100011485 T max
00000001000114ab T _Z4log2m
0000000100011500 T log2_up
000000010001153b T alignup_and_shift_right
0000000100011580 T format_num_to_buffer
00000001000117de T strcmp_in_kernel
0000000100011865 T strlen_in_kernel
000000010001189b T strncmp_in_kernel
0000000100011921 T ksetmem_8
0000000100011977 T ksetmem_16
0000000100011a0e T ksetmem_32
0000000100011aa1 T ksetmem_64
0000000100011b39 T _Z23__kspace_stack_chk_failv
0000000100011b42 T __wrap___stack_chk_fail
0000000100011b55 T is_aligned
0000000100011b87 T is_addr_kernel_address
0000000100011baa t _ZZNK11vm_interval13to_pages_infoEvENKUlmE_clEm
0000000100011bd8 t _ZZNK11vm_interval13to_pages_infoEvENKUlmmE_clEmm
0000000100011c02 t _ZZNK11vm_interval13to_pages_infoEvENKUlmmE0_clEmm
0000000100011c2c T _ZNK11vm_interval13to_pages_infoEv
00000001000121e4 T _Z25vm_interval_to_pages_infoR26seg_to_pages_info_pakage_t11vm_interval
000000010001229c t _ZZ25vm_interval_to_pages_infoR26seg_to_pages_info_pakage_t7VM_DESCENKUlmE_clEm
00000001000122ca t _ZZ25vm_interval_to_pages_infoR26seg_to_pages_info_pakage_t7VM_DESCENKUlmmE_clEmm
00000001000122f4 t _ZZ25vm_interval_to_pages_infoR26seg_to_pages_info_pakage_t7VM_DESCENKUlmmE0_clEmm
000000010001231e T _Z25vm_interval_to_pages_infoR26seg_to_pages_info_pakage_t7VM_DESC
0000000100012820 T ksystemramcpy
0000000100012931 T linearTBSerialDelete
00000001000129dd T linearTBSerialInsert
0000000100012b0d T align_up
0000000100012b50 T atomic_write8_wmb
0000000100012b70 T atomic_write16_wmb
0000000100012b91 T atomic_write32_wmb
0000000100012baf T atomic_write64_wmb
0000000100012bd0 T atomic_read8_rmb
0000000100012bee T atomic_read16_rmb
0000000100012c0e T atomic_read32_rmb
0000000100012c2b T atomic_read64_rmb
0000000100012c4b T atomic_write8_rdbk
0000000100012c7c T atomic_write16_rdbk
0000000100012cb0 T atomic_write32_rdbk
0000000100012cdd T atomic_write64_rdbk
0000000100012d12 W _ZN26seg_to_pages_info_pakage_t5clearEv
0000000100012da4 W _ZNK11vm_interval8byte_cntEv
0000000100012dbe t _ZL12default_kurdv
0000000100012e02 t _ZL15default_successv
0000000100012e37 t _ZL13default_errorv
0000000100012e6c t _ZL13default_fatalv
0000000100012ea2 T _ZN17BCB_fnd_DeepFirst4initEmh
0000000100012f8e T _ZNK17BCB_fnd_DeepFirst13dfs_find_freeEmh
00000001000130ce T _ZN17BCB_fnd_DeepFirst14find_candidateERhR6KURD_t
000000010001321e T _ZN17BCB_fnd_DeepFirst14split_internalEmhh
00000001000134d0 T _ZN17BCB_fnd_DeepFirst5splitEhmh
0000000100013604 T _ZN17BCB_fnd_DeepFirst15occupy_internalEmh
0000000100013820 T _ZN17BCB_fnd_DeepFirst16order_occupy_tryEhm
0000000100013906 T _ZN17BCB_fnd_DeepFirst17coalesce_internalEmhR6KURD_t
0000000100013d8e T _ZN17BCB_fnd_DeepFirst12order_returnEhmR6KURD_t
0000000100013fe3 T ap_regist_core
0000000100013ff5 T gs_complex_load_gdt_tss
0000000100014060 T runtime_processor_regist
0000000100014078 t runtime_processor_regist.load_cs_finish
000000010001408c T _Z31set_result_fail_and_error_level6KURD_t
00000001000140b8 T _Z22set_fatal_result_level6KURD_t
00000001000140e1 T _Z12kurd_get_raw6KURD_t
000000010001417c T _Z11raw_analyzem
0000000100014266 T _Z10error_kurd6KURD_t
0000000100014280 T _Z16success_all_kurd6KURD_t
000000010001429a t _ZL11memtype_str12PHY_MEM_TYPE
00000001000144a0 t _ZL11dump_headerPK21init_to_kernel_headerm
0000000100014d42 T _Z27build_init_to_kernel_headermmP14BootInfoHeaderPK17ctx_kernel_loadedPK13ctx_intervalsP14phymem_segmentm
0000000100015600 T _Z23setup_low_identity_mapsP10kernel_mmuP14BootInfoHeader
00000001000158b3 T _Z16map_symbols_fileP10kernel_mmuR21load_kernel_info_packP17loaded_file_entry
0000000100015a2b T _Z14map_gop_bufferP10kernel_mmuR21load_kernel_info_packP14BootInfoHeader
0000000100015bf2 t _ZZZ17map_and_init_hpetP10kernel_mmuR21load_kernel_info_packP17_EFI_SYSTEM_TABLEENKUlvE_clEvENKUlRK8EFI_GUIDS8_E_clES8_S8_
0000000100015c84 t _ZZ17map_and_init_hpetP10kernel_mmuR21load_kernel_info_packP17_EFI_SYSTEM_TABLEENKUlvE_clEv
0000000100015e00 t _ZZZ17map_and_init_hpetP10kernel_mmuR21load_kernel_info_packP17_EFI_SYSTEM_TABLEENKUlP10HPET_TableE_clES6_ENKUljE_clEj
0000000100015e2e t _ZZZ17map_and_init_hpetP10kernel_mmuR21load_kernel_info_packP17_EFI_SYSTEM_TABLEENKUlP10HPET_TableE_clES6_ENKUljmE_clEjm
0000000100015e64 t _ZZ17map_and_init_hpetP10kernel_mmuR21load_kernel_info_packP17_EFI_SYSTEM_TABLEENKUlP10HPET_TableE_clES6_
0000000100016025 T _Z17map_and_init_hpetP10kernel_mmuR21load_kernel_info_packP17_EFI_SYSTEM_TABLE
00000001000161f0 T InitializeUnicodeSupport
0000000100016320 T EFIDebugVariable
0000000100016370 T InitializeLib
0000000100016470 T memset
0000000100016510 T memcpy
0000000100016540 T AllocatePool
0000000100016570 T AllocateZeroPool
00000001000165d0 T ReallocatePool_1
0000000100016680 T FreePool
00000001000166a0 T ZeroMem
00000001000166b0 T SetMem
00000001000166c0 T CopyMem_1
00000001000166d0 T CopyMemC
00000001000166e0 T CompareMem
00000001000166f0 T GrowBuffer
0000000100016800 T LibMemoryMap
00000001000168e0 T LibGetVariableAndSize
00000001000169b0 T LibGetVariable
00000001000169d0 T LibDeleteVariable
0000000100016a60 T LibSetNVVariable
0000000100016a90 T LibSetVariable
0000000100016ac0 T LibInsertToTailOfBootOrder
0000000100016c60 T ValidMBR
0000000100016e40 T DecimaltoBCD
0000000100016e50 T BCDtoDecimal
0000000100016e60 T LibGetSystemConfigurationTable
0000000100016ef0 T LibGetUiString
0000000100017000 T StrCmp
0000000100017010 T StrnCmp
0000000100017050 T LibStubStriCmp
00000001000170f0 T LibStubStrLwrUpr
0000000100017100 T StriCmp
0000000100017120 T StrLwr
0000000100017140 T StrUpr
0000000100017160 T StrCpy
0000000100017170 T StrnCpy
0000000100017180 T StpCpy
0000000100017190 T StpnCpy
00000001000171a0 T StrCat
00000001000171b0 T StrnCat
00000001000171c0 T StrnLen
00000001000171d0 T StrLen
00000001000171e0 T StrSize
00000001000171f0 T StrDuplicate
0000000100017230 T AsciiStrLen
0000000100017260 T AsciiStrCmp
00000001000172a0 T AsciiStrnCmp
00000001000172f0 T xtoi
00000001000173b0 T Atoi
0000000100017410 T MetaMatch
0000000100017540 T LibStubMetaiMatch
00000001000175e0 T MetaiMatch
0000000100017600 T RtZeroMem
0000000100017690 T RtSetMem
0000000100017740 T RtCopyMem
00000001000177d0 T RtCopyMemC
00000001000177e0 T RtCompareMem
0000000100017830 T RtCompareGuid
0000000100017860 T RtIsZeroGuid
0000000100017880 T RtStrCmp
00000001000178c0 T RtStrCpy
0000000100017900 T RtStrnCpy
0000000100017990 T RtStpCpy
00000001000179c0 T RtStpnCpy
0000000100017a50 T RtStrCat
0000000100017aa0 T RtStrnCat
0000000100017b20 T RtStrLen
0000000100017b50 T RtStrnLen
0000000100017b80 T RtStrSize
0000000100017bb0 T RtBCDtoDecimal
0000000100017bc0 T RtDecimaltoBCD
0000000100017bf0 T InitializeLibPlatform
0000000100017c00 t _DevPathEndInstance
0000000100017c10 t _DevPathBssBss
0000000100017cb0 t _DevPathMediaProtocol
0000000100017cd0 t _DevPathFilePath
0000000100017cf0 t _DevPathCDROM
0000000100017d10 t _DevPathSata
0000000100017d30 t _DevPathUart
0000000100017e40 t _DevPathInfiniBand
0000000100017e70 t _DevPathUri
0000000100017e90 t _DevPathMacAddr
0000000100017f60 t _DevPathI2O
0000000100017f80 t _DevPathUsb
0000000100017fa0 t _DevPath1394
0000000100017fc0 t _DevPathFibre
0000000100017ff0 t _DevPathScsi
0000000100018010 t _DevPathAtapi
0000000100018050 t _DevPathAcpi
0000000100018210 t _DevPathController
0000000100018230 t _DevPathMemMap
0000000100018250 t _DevPathPccard
0000000100018270 t _DevPathPci
0000000100018290 t _DevPathNodeUnknown
00000001000183f0 t _DevPathVendor
00000001000184a0 t _DevPathHardDrive
00000001000184f0 t CatPrintIPv6.isra.0
0000000100018590 t _DevPathIPv6
0000000100018810 t _DevPathIPv4
0000000100018aa0 T DevicePathFromHandle
0000000100018ae0 T DevicePathInstance
0000000100018bc0 T DevicePathInstanceCount
0000000100018c00 T DevicePathSize
0000000100018c40 T DuplicateDevicePath
0000000100018cb0 T AppendDevicePath
0000000100018e60 T AppendDevicePathNode
0000000100018ef0 T FileDevicePath
0000000100018fa0 T UnpackDevicePath
0000000100019080 T AppendDevicePathInstance
0000000100019180 T LibDevicePathToInterface
0000000100019210 T DevicePathToStr
0000000100019350 T LibMatchDevicePaths
00000001000193e0 T LibDuplicateDevicePathInstance
0000000100019460 T InitializeGuid
0000000100019470 T CompareGuid_1
0000000100019480 T IsZeroGuid
0000000100019490 T GuidToString
0000000100019580 T LibLocateHandle
0000000100019630 T LibLocateProtocol
0000000100019700 T LibLocateHandleByDiskSignature
0000000100019a80 T LibOpenRoot
0000000100019ad0 T LibFileInfo
0000000100019b40 T LibFileSystemInfo
0000000100019bb0 T LibFileSystemVolumeLabelInfo
0000000100019c20 T LibInstallProtocolInterfaces
0000000100019dd0 T LibUninstallProtocolInterfaces
0000000100019e90 T LibReinstallProtocolInterfaces
000000010001a080 T _DbgOut
000000010001a0a0 T _SPrint
000000010001a1c0 T _PoolPrint
000000010001a2e0 t ValueToHex.part.0
000000010001a390 t ValueToString.part.0
000000010001a4b0 t PPUTC
000000010001a580 T UnicodeSPrint
000000010001a610 T AsciiSPrint
000000010001a6a0 T PoolPrint
000000010001a740 T CatPrint
000000010001a7f0 T Print
000000010001a8b0 T PrintAt
000000010001a950 T IPrint
000000010001aa00 T IPrintAt
000000010001aaa0 T AsciiPrint
000000010001ab60 T ValueToHex
000000010001ab80 T ValueToString
000000010001aba0 T FloatToString
000000010001ace0 T TimeToString
000000010001ad80 T DbgPrint
000000010001c080 T DumpHex
000000010001c280 t PPUTC
000000010001c350 t _Print
000000010001d1c0 T _PoolCatPrint
000000010001d220 T UnicodeVSPrint
000000010001d260 T VPoolPrint
000000010001d2a0 T _IPrint
000000010001d390 T VPrint
000000010001d3c0 T AsciiVSPrint
000000010001d4e0 T Output
000000010001d500 T IInput
000000010001d5d0 T Input
000000010001d600 T StatusToString
000000010001d650 T LibCreateProtocolNotifyEvent
000000010001d6d0 T WaitForSingleEvent
000000010001d7b0 T WaitForEventWithTimeout
000000010001d850 T LShiftU64
000000010001d860 T RShiftU64
000000010001d870 T MultU64x32
000000010001d880 T DivU64x32
000000010001d89c T __init_text_end
000000010001e000 R __init_rodata_start
000000010001e000 r _ZL10empty_kurd
000000010001e008 r _ZN10level_codeL7INVALIDE
000000010001e009 r _ZN10level_codeL4INFOE
000000010001e00a r _ZN10level_codeL6NOTICEE
000000010001e00b r _ZN10level_codeL7WARNINGE
000000010001e00c r _ZN10level_codeL5ERRORE
000000010001e00d r _ZN10level_codeL5FATALE
000000010001e00e r _ZN11module_codeL7INVALIDE
000000010001e00f r _ZN11module_codeL6MEMORYE
000000010001e010 r _ZN11module_codeL9SCHEDULERE
000000010001e011 r _ZN11module_codeL9INTERRUPTE
000000010001e012 r _ZN11module_codeL8FIRMWAREE
000000010001e013 r _ZN11module_codeL3VFSE
000000010001e014 r _ZN11module_codeL3VMME
000000010001e015 r _ZN11module_codeL5INFRAE
000000010001e016 r _ZN11module_codeL6DEVICEE
000000010001e017 r _ZN11module_codeL12DEVICES_COREE
000000010001e018 r _ZN11module_codeL14HARDWARE_DEBUGE
000000010001e019 r _ZN11module_codeL15USER_KERNEL_ABIE
000000010001e01a r _ZN11module_codeL4TIMEE
000000010001e01b r _ZN11module_codeL5PANICE
000000010001e01c r _ZN11result_codeL7SUCCESSE
000000010001e01e r _ZN11result_codeL23SUCCESS_BUT_SIDE_EFFECTE
000000010001e020 r _ZN11result_codeL15PARTIAL_SUCCESSE
000000010001e022 r _ZN11result_codeL4FAILE
000000010001e024 r _ZN11result_codeL5RETRYE
000000010001e026 r _ZN11result_codeL5FATALE
000000010001e028 r _ZN10err_domainL7INVALIDE
000000010001e029 r _ZN10err_domainL11CORE_MODULEE
000000010001e02a r _ZN10err_domainL4ARCHE
000000010001e02b r _ZN10err_domainL4USERE
000000010001e02c r _ZN10err_domainL10HYPERVISORE
000000010001e02d r _ZN10err_domainL11OUT_MODULESE
000000010001e02e r _ZN10err_domainL11FILE_SYSTEME
000000010001e02f r _ZN10err_domainL8HARDWAREE
000000010001e030 r _ZL6LOCKED
000000010001e031 r _ZL8UNLOCKED
000000010001e038 r _ZL10PAGE_DIRTY
000000010001e040 r _ZL11PAGE_LOCKED
000000010001e048 r _ZL14PAGE_WRITEBACK
000000010001e050 r _ZL13PAGE_UPTODATE
000000010001e058 r _ZL13PAGE_SWAPPING
000000010001e060 r _ZL15PAGE_REFERENCED
000000010001e068 r _ZL11PAGE_ACTIVE
000000010001e070 r _ZL12PAGE_RECLAIM
000000010001e078 r _ZL25MAX_PHYADDR_1GB_PGS_COUNT
000000010001e080 r _ZL18DEFAULT_PAT_CONFIG
000000010001e088 r _ZL16KSPACE_RW_ACCESS
000000010001e08a r _ZL17KSPACE_RWX_ACCESS
000000010001e08c r _ZL19KSPACE_RW_UC_ACCESS
000000010001e08e r _ZL16KSPACE_RX_ACCESS
000000010001e090 r _ZL15KSPACE_R_ACCESS
000000010001e092 r _ZL20KSPACE_RWX_NG_ACCESS
000000010001e094 r _ZL19KSPACE_RW_WC_ACCESS
000000010001e096 r _ZL13default_flags
000000010001e0a0 r _ZL24BUDDY_ALLOC_DEFAULT_FLAG
000000010001e0b0 r _ZL22BUDDY_ALLOC_ALWAYS_TRY
000000010001e0c0 r _ZL20BUDDY_ALLOC_DOWN_4GB
000000010001e0d0 r _ZL33PASS_THROUGH_DEVICE_GRAPHICS_INFO
000000010001e0d4 r _ZL32VM_ID_architecture_agnostic_base
000000010001e0d8 r _ZL20VM_ID_BSP_INIT_STACK
000000010001e0e0 r _ZL19BSP_INIT_STACK_SIZE
000000010001e0e8 r _ZL25BSP_INIT_STACK_ALIGN_LOG2
000000010001e0ec r _ZL16VM_ID_FIRST_HEAP
000000010001e0f0 r _ZL21FIRST_HEAP_SIZE_CONST
000000010001e0f8 r _ZL21FIRST_HEAP_ALIGN_LOG2
000000010001e0fc r _ZL23VM_ID_FIRST_HEAP_BITMAP
000000010001e100 r _ZL22FIRST_HEAP_BITMAP_SIZE
000000010001e108 r _ZL28FIRST_HEAP_BITMAP_ALIGN_LOG2
000000010001e10c r _ZL15VM_ID_LOGBUFFER
000000010001e110 r _ZL14LOGBUFFER_SIZE
000000010001e118 r _ZL20LOGBUFFER_ALIGN_LOG2
000000010001e11c r _ZL14VM_ID_KSYMBOLS
000000010001e120 r _ZL13VM_ID_MEM_MAP
000000010001e124 r _ZL18VM_ID_BCBS_BITMAPS
000000010001e128 r _ZL18MEM_MAP_ALIGN_LOG2
000000010001e12c r _ZL20VM_ID_UP_KSPACE_PDPT
000000010001e130 r _ZL20VM_ID_GRAPHIC_BUFFER
000000010001e138 r _ZL19UP_KSPACE_PDPT_SIZE
000000010001e140 r _ZL25UP_KSPACE_PDPT_ALIGN_LOG2
000000010001e144 r _ZL15VM_ID_HPET_MMIO
000000010001e160 r _ZL15PAGE_SIZE_IN_LV
000000010001e1a0 r _ZL16PAGE_OFFSET_MASK
000000010001e1c8 r _ZL17Max_huge_pg_index
000000010001e1d0 r _ZN22lineaddr_index_filtersL17PT_INDEX_MASK_lv0E
000000010001e1d8 r _ZN22lineaddr_index_filtersL17PD_INDEX_MASK_lv1E
000000010001e1e0 r _ZN22lineaddr_index_filtersL19PDPT_INDEX_MASK_lv2E
000000010001e1e8 r _ZN22lineaddr_index_filtersL19PML4_INDEX_MASK_lv3E
000000010001e1f0 r _ZN22lineaddr_index_filtersL19PML5_INDEX_MASK_lv4E
000000010001e1f8 r _ZL15PHYS_ADDR_WIDTH
000000010001e200 r _ZL14PHYS_ADDR_MASK
000000010001e208 r _ZN14PageTableEntryL5P_BITE
000000010001e210 r _ZN14PageTableEntryL6RW_BITE
000000010001e218 r _ZN14PageTableEntryL6US_BITE
000000010001e220 r _ZN14PageTableEntryL7PWT_BITE
000000010001e228 r _ZN14PageTableEntryL7PCD_BITE
000000010001e230 r _ZN14PageTableEntryL5A_BITE
000000010001e238 r _ZN14PageTableEntryL6XD_BITE
000000010001e240 r _ZN14PageTableEntryL6P_MASKE
000000010001e248 r _ZN14PageTableEntryL7RW_MASKE
000000010001e250 r _ZN14PageTableEntryL7US_MASKE
000000010001e258 r _ZN14PageTableEntryL8PWT_MASKE
000000010001e260 r _ZN14PageTableEntryL8PCD_MASKE
000000010001e268 r _ZN14PageTableEntryL6A_MASKE
000000010001e270 r _ZN14PageTableEntryL7XD_MASKE
000000010001e278 r _ZN5PML5EL5R_BITE
000000010001e280 r _ZN5PML5EL6PS_BITE
000000010001e288 r _ZN5PML5EL6R_MASKE
000000010001e290 r _ZN5PML5EL7PS_MASKE
000000010001e298 r _ZN5PML5EL11ADDR_OFFSETE
000000010001e2a0 r _ZN5PML5EL9ADDR_BITSE
000000010001e2a8 r _ZN5PML5EL9ADDR_MASKE
000000010001e2b0 r _ZN5PML4EL5R_BITE
000000010001e2b8 r _ZN5PML4EL6PS_BITE
000000010001e2c0 r _ZN5PML4EL6R_MASKE
000000010001e2c8 r _ZN5PML4EL7PS_MASKE
000000010001e2d0 r _ZN5PML4EL11ADDR_OFFSETE
000000010001e2d8 r _ZN5PML4EL9ADDR_BITSE
000000010001e2e0 r _ZN5PML4EL9ADDR_MASKE
000000010001e2e8 r _ZN5PDPTEL5D_BITE
000000010001e2f0 r _ZN5PDPTEL6PS_BITE
000000010001e2f8 r _ZN5PDPTEL5G_BITE
000000010001e300 r _ZN5PDPTEL5R_BITE
000000010001e308 r _ZN5PDPTEL7PAT_BITE
000000010001e310 r _ZN5PDPTEL7PK_BITSE
000000010001e318 r _ZN5PDPTEL6D_MASKE
000000010001e320 r _ZN5PDPTEL7PS_MASKE
000000010001e328 r _ZN5PDPTEL6G_MASKE
000000010001e330 r _ZN5PDPTEL6R_MASKE
000000010001e338 r _ZN5PDPTEL8PAT_MASKE
000000010001e340 r _ZN5PDPTEL7PK_MASKE
000000010001e348 r _ZN5PDPTEL14ADDR_PD_OFFSETE
000000010001e350 r _ZN5PDPTEL12ADDR_PD_BITSE
000000010001e358 r _ZN5PDPTEL12ADDR_PD_MASKE
000000010001e360 r _ZN5PDPTEL15ADDR_1GB_OFFSETE
000000010001e368 r _ZN5PDPTEL13ADDR_1GB_BITSE
000000010001e370 r _ZN5PDPTEL13ADDR_1GB_MASKE
000000010001e378 r _ZN3PDEL5D_BITE
000000010001e380 r _ZN3PDEL6PS_BITE
000000010001e388 r _ZN3PDEL5G_BITE
000000010001e390 r _ZN3PDEL5R_BITE
000000010001e398 r _ZN3PDEL7PAT_BITE
000000010001e3a0 r _ZN3PDEL7PK_BITSE
000000010001e3a8 r _ZN3PDEL6D_MASKE
000000010001e3b0 r _ZN3PDEL7PS_MASKE
000000010001e3b8 r _ZN3PDEL6G_MASKE
000000010001e3c0 r _ZN3PDEL6R_MASKE
000000010001e3c8 r _ZN3PDEL8PAT_MASKE
000000010001e3d0 r _ZN3PDEL7PK_MASKE
000000010001e3d8 r _ZN3PDEL14ADDR_PT_OFFSETE
000000010001e3e0 r _ZN3PDEL12ADDR_PT_BITSE
000000010001e3e8 r _ZN3PDEL12ADDR_PT_MASKE
000000010001e3f0 r _ZN3PDEL15ADDR_2MB_OFFSETE
000000010001e3f8 r _ZN3PDEL13ADDR_2MB_BITSE
000000010001e400 r _ZN3PDEL13ADDR_2MB_MASKE
000000010001e408 r _ZN3PTEL5D_BITE
000000010001e410 r _ZN3PTEL7PAT_BITE
000000010001e418 r _ZN3PTEL5G_BITE
000000010001e420 r _ZN3PTEL5R_BITE
000000010001e428 r _ZN3PTEL7PK_BITSE
000000010001e430 r _ZN3PTEL6D_MASKE
000000010001e438 r _ZN3PTEL8PAT_MASKE
000000010001e440 r _ZN3PTEL6G_MASKE
000000010001e448 r _ZN3PTEL6R_MASKE
000000010001e450 r _ZN3PTEL7PK_MASKE
000000010001e458 r _ZN3PTEL11ADDR_OFFSETE
000000010001e460 r _ZN3PTEL9ADDR_BITSE
000000010001e468 r _ZN3PTEL9ADDR_MASKE
000000010001e470 r _ZL13ENTRY_PRESENT
000000010001e471 r _ZL17ENTRY_PRESENT_NOT
000000010001e472 r _ZL17RWBIT_WRITE_ALLOW
000000010001e473 r _ZL21RWBIT_WRITE_ALLOW_NOT
000000010001e474 r _ZL16KERNE_BIT_KERNEL
000000010001e475 r _ZL20KERNE_BIT_KERNEL_NOT
000000010001e476 r _ZL17XD_BIT_EXECUTABLE
000000010001e477 r _ZL21XD_BIT_EXECUTABLE_NOT
000000010001e478 r _ZN18MEMMODULE_LOCAIONSL7INVALIDE
000000010001e479 r _ZN18MEMMODULE_LOCAIONSL25LOCATION_CODE_BASE_MEMMGRE
000000010001e47a r _ZN18MEMMODULE_LOCAIONSL29LOCATION_CODE_PHYMEM_ACCESSORE
000000010001e47b r _ZN18MEMMODULE_LOCAIONSL28LOCATION_CODE_KSPACE_MAP_MGRE
000000010001e47c r _ZN18MEMMODULE_LOCAIONSL25LOCATION_CODE_ADDRESSPACEE
000000010001e47d r _ZN18MEMMODULE_LOCAIONSL26LOCATION_CODE_OUT_SURFACESE
000000010001e47e r _ZN18MEMMODULE_LOCAIONSL25LOCATION_CODE_KPOOLMEMMGRE
000000010001e47f r _ZN18MEMMODULE_LOCAIONS18KPOOLMEMMGR_EVENTSL15EVENT_CODE_INITE
000000010001e480 r _ZN18MEMMODULE_LOCAIONS18KPOOLMEMMGR_EVENTSL16EVENT_CODE_ALLOCE
000000010001e482 r _ZN18MEMMODULE_LOCAIONS18KPOOLMEMMGR_EVENTS13ALLOC_RESULTS11FAIL_RESONSL28REASON_CODE_NO_AVALIABLE_MEME
000000010001e484 r _ZN18MEMMODULE_LOCAIONS18KPOOLMEMMGR_EVENTS13ALLOC_RESULTS11FAIL_RESONSL24REASON_CODE_SIZE_IS_ZEROE
000000010001e486 r _ZN18MEMMODULE_LOCAIONS18KPOOLMEMMGR_EVENTSL18EVENT_CODE_REALLOCE
000000010001e488 r _ZN18MEMMODULE_LOCAIONS18KPOOLMEMMGR_EVENTS15REALLOC_RESULTS11FAIL_RESONSL31REASON_CODE_DEMAND_SIZE_IS_ZEROE
000000010001e48a r _ZN18MEMMODULE_LOCAIONS18KPOOLMEMMGR_EVENTS15REALLOC_RESULTS11FAIL_RESONSL31REASON_CODE_PTR_NOT_IN_ANY_HEAPE
000000010001e48c r _ZN18MEMMODULE_LOCAIONS18KPOOLMEMMGR_EVENTS15REALLOC_RESULTS11FAIL_RESONSL28REASON_CODE_NO_AVALIABLE_MEME
000000010001e48e r _ZN18MEMMODULE_LOCAIONS18KPOOLMEMMGR_EVENTSL34EVENT_CODE_PER_PROCESSOR_HEAP_INITE
000000010001e490 r _ZN18MEMMODULE_LOCAIONS18KPOOLMEMMGR_EVENTS31PER_PROCESSOR_HEAP_INIT_RESULTS11FAIL_RESONSL27REASON_CODE_ALREADY_ENABLEDE
000000010001e492 r _ZN18MEMMODULE_LOCAIONS18KPOOLMEMMGR_EVENTS31PER_PROCESSOR_HEAP_INIT_RESULTS11FAIL_RESONSL31REASON_CODE_BAD_PROCESSOR_COUNTE
000000010001e494 r _ZN18MEMMODULE_LOCAIONS18KPOOLMEMMGR_EVENTS31PER_PROCESSOR_HEAP_INIT_RESULTS11FAIL_RESONSL26REASON_CODE_NO_VADDR_SPACEE
000000010001e496 r _ZN18MEMMODULE_LOCAIONS18KPOOLMEMMGR_EVENTS31PER_PROCESSOR_HEAP_INIT_RESULTS11FAIL_RESONSL23REASON_CODE_VM_ADD_FAILE
000000010001e498 r _ZN18MEMMODULE_LOCAIONS18KPOOLMEMMGR_EVENTS31PER_PROCESSOR_HEAP_INIT_RESULTS11FAIL_RESONSL28REASON_CODE_IDX_OUT_OF_RANGEE
000000010001e49a r _ZN18MEMMODULE_LOCAIONS18KPOOLMEMMGR_EVENTS31PER_PROCESSOR_HEAP_INIT_RESULTS11FAIL_RESONSL31REASON_CODE_HEAP_ALREADY_EXISTSE
000000010001e49c r _ZN18MEMMODULE_LOCAIONS18KPOOLMEMMGR_EVENTS31PER_PROCESSOR_HEAP_INIT_RESULTS11FAIL_RESONSL26REASON_CODE_HEAP_NOT_EXISTE
000000010001e49e r _ZN18MEMMODULE_LOCAIONSL32LOCATION_CODE_KPOOLMEMMGR_HCB_V3E
000000010001e49f r _ZN18MEMMODULE_LOCAIONS25KPOOLMEMMGR_HCB_V3_EVENTSL17EVENT_CODE_ONLINEE
000000010001e4a0 r _ZN18MEMMODULE_LOCAIONS25KPOOLMEMMGR_HCB_V3_EVENTSL18EVENT_CODE_OFFLINEE
000000010001e4a1 r _ZN18MEMMODULE_LOCAIONS25KPOOLMEMMGR_HCB_V3_EVENTSL16EVENT_CODE_ALLOCE
000000010001e4a2 r _ZN18MEMMODULE_LOCAIONS25KPOOLMEMMGR_HCB_V3_EVENTSL15EVENT_CODE_FREEE
000000010001e4a3 r _ZN18MEMMODULE_LOCAIONS25KPOOLMEMMGR_HCB_V3_EVENTSL18EVENT_CODE_REALLOCE
000000010001e4a4 r _ZN18MEMMODULE_LOCAIONS25KPOOLMEMMGR_HCB_V3_EVENTSL25EVENT_CODE_INTERNAL_ALLOCE
000000010001e4a5 r _ZN18MEMMODULE_LOCAIONS25KPOOLMEMMGR_HCB_V3_EVENTSL24EVENT_CODE_INTERNAL_FREEE
000000010001e4a6 r _ZN18MEMMODULE_LOCAIONS25KPOOLMEMMGR_HCB_V3_EVENTSL16EVENT_CODE_CLEARE
000000010001e4a8 r _ZN18MEMMODULE_LOCAIONS25KPOOLMEMMGR_HCB_V3_EVENTS19COMMON_FAIL_REASONSL20REASON_CODE_BAD_ADDRE
000000010001e4aa r _ZN18MEMMODULE_LOCAIONS25KPOOLMEMMGR_HCB_V3_EVENTS19COMMON_FAIL_REASONSL30REASON_CODE_ADDR_NOT_THIS_HEAPE
000000010001e4ac r _ZN18MEMMODULE_LOCAIONS25KPOOLMEMMGR_HCB_V3_EVENTS20COMMON_FATAL_REASONSL30REASON_CODE_METADATA_DESTROYEDE
000000010001e4ae r _ZN18MEMMODULE_LOCAIONS25KPOOLMEMMGR_HCB_V3_EVENTS22INTERNAL_ALLOC_RESULTS11FAIL_RESONSL30REASON_CODE_NO_AVALIABLE_BUDDYE
000000010001e4b0 r _ZN18MEMMODULE_LOCAIONS25KPOOLMEMMGR_HCB_V3_EVENTS13ALLOC_RESULTS12FAIL_REASONSL24REASON_CODE_SIZE_IS_ZEROE
000000010001e4b2 r _ZN18MEMMODULE_LOCAIONS25KPOOLMEMMGR_HCB_V3_EVENTS13ALLOC_RESULTS12FAIL_REASONSL26REASON_CODE_SIZE_TOO_LARGEE
000000010001e4b4 r _ZN18MEMMODULE_LOCAIONS25KPOOLMEMMGR_HCB_V3_EVENTS12FREE_RESULTS13FATAL_REASONSL18DOUBLE_FREE_DETECTE
000000010001e4b6 r _ZN18MEMMODULE_LOCAIONS25KPOOLMEMMGR_HCB_V3_EVENTS12FREE_RESULTS13FATAL_REASONSL22MERGE_BUT_ALREADY_FREEE
000000010001e4b8 r _ZL14HCB_evict_span
000000010001e4c0 r _ZL23HCB_evictor_sleep_cycle
000000010001e4c8 r _ZN23COREHARDWARES_LOCATIONSL27LOCATION_CODE_GOP_PRIMITIVEE
000000010001e4c9 r _ZN23COREHARDWARES_LOCATIONS28GOP_PRIMITIVE_DRIVERS_EVENTSL4INITE
000000010001e4ca r _ZN23COREHARDWARES_LOCATIONS28GOP_PRIMITIVE_DRIVERS_EVENTS12INIT_RESULTS12FAIL_REASONSL21PARAM_METAINF_NULLPTRE
000000010001e4cc r _ZN23COREHARDWARES_LOCATIONS28GOP_PRIMITIVE_DRIVERS_EVENTS12INIT_RESULTS12FAIL_REASONSL9BAD_PARAME
000000010001e4ce r _ZN23COREHARDWARES_LOCATIONS28GOP_PRIMITIVE_DRIVERS_EVENTS12INIT_RESULTS12FAIL_REASONSL13ALLREADE_INITE
000000010001e4d0 r _ZN23COREHARDWARES_LOCATIONSL22LOCATION_CODE_INIT_GOPE
000000010001e4d1 r _ZN23COREHARDWARES_LOCATIONS15INIT_GOP_EVENTSL4INITE
000000010001e4d2 r _ZN23COREHARDWARES_LOCATIONS15INIT_GOP_EVENTS12INIT_RESULTS12FAIL_REASONSL21PARAM_METAINF_NULLPTRE
000000010001e4d4 r _ZN23COREHARDWARES_LOCATIONS15INIT_GOP_EVENTS12INIT_RESULTS12FAIL_REASONSL9BAD_PARAME
000000010001e4d6 r _ZN23COREHARDWARES_LOCATIONS15INIT_GOP_EVENTS12INIT_RESULTS12FAIL_REASONSL13ALLREADE_INITE
000000010001e4d8 r _ZN23COREHARDWARES_LOCATIONS15INIT_GOP_EVENTS12INIT_RESULTS12FAIL_REASONSL20MODIFY_ACCESS_FAILEDE
000000010001e4da r _ZN28infrastructure_location_codeL30location_code_init_textconsoleE
000000010001e4db r _ZN28infrastructure_location_code23init_textconsole_eventsL22textconsole_event_initE
000000010001e4dc r _ZN28infrastructure_location_code23init_textconsole_events12init_results12fail_reasonsL19font_bitmap_is_nullE
000000010001e4dd r _ZN28infrastructure_location_code23init_textconsole_events12init_results12fail_reasonsL13gfx_not_readyE
000000010001e4de r _ZN28infrastructure_location_code23init_textconsole_events12init_results12fail_reasonsL13bad_cell_sizeE
000000010001e4df r _ZN28infrastructure_location_code23init_textconsole_events12init_results12fail_reasonsL9zero_gridE
000000010001e4e0 r _ZN28infrastructure_location_code23init_textconsole_events12init_results12fail_reasonsL12already_initE
000000010001e4e8 r _ZL16panic_will_magic
000000010001e4f0 r _ZL18panic_will_version
000000010001e4f8 r _ZL18x86_64_arch_spcify
000000010001e500 r _ZL29default_panic_behaviors_flags
000000010001e520 r _ZL13ter16x32_data
0000000100022520 r _ZL28PROCESSOR_RSP0_STACK_BTM_IDX
0000000100022521 r _ZL21PROCESSOR_ID_GS_INDEX
0000000100022522 r _ZL21TIME_COMPLEX_GS_INDEX
0000000100022523 r _ZL35PROCESSOR_NOW_RUNNING_TASK_GS_INDEX
0000000100022524 r _ZL22PROCESSOR_USER_RSP_TMP
0000000100022525 r _ZL20SLOT_IS_SLOT_MAX_IDX
0000000100022526 r _ZN14x86_exceptionsL12DIVIDE_ERRORE
0000000100022527 r _ZN14x86_exceptionsL5DEBUGE
0000000100022528 r _ZN14x86_exceptionsL3NMIE
0000000100022529 r _ZN14x86_exceptionsL10BREAKPOINTE
000000010002252a r _ZN14x86_exceptionsL8OVERFLOWE
000000010002252b r _ZN14x86_exceptionsL20BOUND_RANGE_EXCEEDEDE
000000010002252c r _ZN14x86_exceptionsL14INVALID_OPCODEE
000000010002252d r _ZN14x86_exceptionsL20DEVICE_NOT_AVAILABLEE
000000010002252e r _ZN14x86_exceptionsL12DOUBLE_FAULTE
000000010002252f r _ZN14x86_exceptionsL27COPROCESSOR_SEGMENT_OVERRUNE
0000000100022530 r _ZN14x86_exceptionsL11INVALID_TSSE
0000000100022531 r _ZN14x86_exceptionsL19SEGMENT_NOT_PRESENTE
0000000100022532 r _ZN14x86_exceptionsL19STACK_SEGMENT_FAULTE
0000000100022533 r _ZN14x86_exceptionsL24GENERAL_PROTECTION_FAULTE
0000000100022534 r _ZN14x86_exceptionsL10PAGE_FAULTE
0000000100022535 r _ZN14x86_exceptionsL13X87_FPU_ERRORE
0000000100022536 r _ZN14x86_exceptionsL15ALIGNMENT_CHECKE
0000000100022537 r _ZN14x86_exceptionsL13MACHINE_CHECKE
0000000100022538 r _ZN14x86_exceptionsL29SIMD_FLOATING_POINT_EXCEPTIONE
0000000100022539 r _ZN14x86_exceptionsL24VIRTUALIZATION_EXCEPTIONE
000000010002253a r _ZN14x86_exceptionsL28CONTROL_PROTECTION_EXCEPTIONE
000000010002253b r _ZN21x86_softinterrupt_abiL9ASM_PANICE
000000010002253c r _ZN21x86_softinterrupt_abiL12KTHREAD_CALLE
000000010002253d r _ZN21x86_softinterrupt_abiL14USER_ABI_ENTERE
000000010002253e r _ZN8ipi_vecsL11IPI_RUNAWAYE
000000010002253f r _ZN8ipi_vecsL14IPI_RETURNABLEE
0000000100022540 r _ZN8ipi_vecsL8IPI_HALTE
0000000100022541 r _ZN8ipi_vecsL11IPI_RESCHEDE
0000000100022542 r _ZL18SUPRIOUS_INTERRUPT
0000000100022544 r _ZL11ARCH_x86_64
0000000100022548 r _ZL30TOKEN_FLAG_MASK_TOKEN_SCHEDULE
0000000100022550 r _ZN31INTERRUPT_SUB_MODULES_LOCATIONSL24LOCATION_CODE_PROCESSORSE
0000000100022551 r _ZN31INTERRUPT_SUB_MODULES_LOCATIONSL13loc_processorE
0000000100022552 r _ZN8gdtentryL17execute_only_typeE
0000000100022553 r _ZN8gdtentryL15read_write_typeE
0000000100022554 r _ZN31INTERRUPT_SUB_MODULES_LOCATIONS21PROCESSORS_EVENT_CODEL25EVENT_CODE_RUNTIME_RESGISE
0000000100022555 r _ZN31INTERRUPT_SUB_MODULES_LOCATIONS21PROCESSORS_EVENT_CODEL19EVENT_CODE_APS_INITE
0000000100022556 r _ZN31INTERRUPT_SUB_MODULES_LOCATIONS21PROCESSORS_EVENT_CODE21APS_INIT_RESULTS_CODE17RETRY_REASON_CODEL43RETRY_REASON_CODE_DEPENDIES_NOT_INITIALIZEDE
0000000100022558 r _ZN31INTERRUPT_SUB_MODULES_LOCATIONS21PROCESSORS_EVENT_CODE21APS_INIT_RESULTS_CODE20PARTIAL_SUCCESS_CODEL42PARTIAL_SUCCESS_CODE_SOME_APS_IPI_TIME_OUTE
0000000100022559 r _ZN31INTERRUPT_SUB_MODULES_LOCATIONS21PROCESSORS_EVENT_CODE21APS_INIT_RESULTS_CODE12FATAL_REASONL13AP_STAGE_FAILE
0000000100022560 r _ZL18kspace_DS_SS_entry
0000000100022568 r _ZL15kspace_CS_entry
0000000100022570 r _ZL21userspace_DS_SS_entry
0000000100022578 r _ZL18userspace_CS_entry
0000000100022580 r _ZL10base0_mask
0000000100022588 r _ZL10base1_mask
0000000100022590 r _ZL10base2_mask
0000000100022598 r _ZL10base3_mask
00000001000225a0 r _ZL13gdt_headcount
00000001000225a4 r _ZL23GS_SLOT_MAX_ENTRY_COUNT
00000001000225a8 r _ZL26STACK_PROTECTOR_CANARY_IDX
00000001000225a9 r _ZL8K_cs_idx
00000001000225aa r _ZL11K_ds_ss_idx
00000001000225ab r _ZL8U_cs_idx
00000001000225ac r _ZL11U_ds_ss_idx
00000001000225b0 r _ZL14RSP0_STACKSIZE
00000001000225b4 r _ZL12DF_STACKSIZE
00000001000225b8 r _ZL12MC_STACKSIZE
00000001000225bc r _ZL13NMI_STACKSIZE
00000001000225c0 r _ZL16BP_DBG_STACKSIZE
00000001000225c4 r _ZL16total_stack_size
00000001000225c8 r _ZL18L_PROCESSOR_GS_IDX
00000001000225d0 r _ZL14XSAVE_SIZE_MAX
00000001000225d8 r _ZL13RSP0_BASE_OFF
00000001000225e0 r _ZL13IST1_BASE_OFF
00000001000225e8 r _ZL13IST2_BASE_OFF
00000001000225f0 r _ZL13IST3_BASE_OFF
00000001000225f8 r _ZL13IST4_BASE_OFF
0000000100022600 r _ZL8RED_ZONE
0000000100022608 r _ZL15RSP0_BOTTOM_OFF
0000000100022610 r _ZL15IST1_BOTTOM_OFF
0000000100022618 r _ZL15IST2_BOTTOM_OFF
0000000100022620 r _ZL15IST3_BOTTOM_OFF
0000000100022628 r _ZL15IST4_BOTTOM_OFF
0000000100022630 r _ZL17GS_COMPLEX_STRIDE
0000000100022638 r _ZN3msrL9IA32_EFERE
000000010002263c r _ZN3msr4apicL14IA32_APIC_BASEE
0000000100022640 r _ZN3msr4apicL14IA32_X2APIC_IDE
0000000100022644 r _ZN3msr4apicL19IA32_X2APIC_VERSIONE
0000000100022648 r _ZN3msr4apicL15IA32_X2APIC_TPRE
000000010002264c r _ZN3msr4apicL15IA32_X2APIC_PPRE
0000000100022650 r _ZN3msr4apicL15IA32_X2APIC_EOIE
0000000100022654 r _ZN3msr4apicL15IA32_X2APIC_LDRE
0000000100022658 r _ZN3msr4apicL15IA32_X2APIC_SVRE
000000010002265c r _ZN3msr4apicL16IA32_X2APIC_ISR0E
0000000100022660 r _ZN3msr4apicL16IA32_X2APIC_ISR1E
0000000100022664 r _ZN3msr4apicL16IA32_X2APIC_ISR2E
0000000100022668 r _ZN3msr4apicL16IA32_X2APIC_ISR3E
000000010002266c r _ZN3msr4apicL16IA32_X2APIC_ISR4E
0000000100022670 r _ZN3msr4apicL16IA32_X2APIC_ISR5E
0000000100022674 r _ZN3msr4apicL16IA32_X2APIC_ISR6E
0000000100022678 r _ZN3msr4apicL16IA32_X2APIC_ISR7E
000000010002267c r _ZN3msr4apicL16IA32_X2APIC_TMR0E
0000000100022680 r _ZN3msr4apicL16IA32_X2APIC_TMR1E
0000000100022684 r _ZN3msr4apicL16IA32_X2APIC_TMR2E
0000000100022688 r _ZN3msr4apicL16IA32_X2APIC_TMR3E
000000010002268c r _ZN3msr4apicL16IA32_X2APIC_TMR4E
0000000100022690 r _ZN3msr4apicL16IA32_X2APIC_TMR5E
0000000100022694 r _ZN3msr4apicL16IA32_X2APIC_TMR6E
0000000100022698 r _ZN3msr4apicL16IA32_X2APIC_TMR7E
000000010002269c r _ZN3msr4apicL16IA32_X2APIC_IRR0E
00000001000226a0 r _ZN3msr4apicL16IA32_X2APIC_IRR1E
00000001000226a4 r _ZN3msr4apicL16IA32_X2APIC_IRR2E
00000001000226a8 r _ZN3msr4apicL16IA32_X2APIC_IRR3E
00000001000226ac r _ZN3msr4apicL16IA32_X2APIC_IRR4E
00000001000226b0 r _ZN3msr4apicL16IA32_X2APIC_IRR5E
00000001000226b4 r _ZN3msr4apicL16IA32_X2APIC_IRR6E
00000001000226b8 r _ZN3msr4apicL16IA32_X2APIC_IRR7E
00000001000226bc r _ZN3msr4apicL15IA32_X2APIC_ESRE
00000001000226c0 r _ZN3msr4apicL20IA32_X2APIC_LVT_CMCIE
00000001000226c4 r _ZN3msr4apicL15IA32_X2APIC_ICRE
00000001000226c8 r _ZN3msr4apicL21IA32_X2APIC_LVT_TIMERE
00000001000226cc r _ZN3msr4apicL23IA32_X2APIC_LVT_THERMALE
00000001000226d0 r _ZN3msr4apicL19IA32_X2APIC_LVT_PMIE
00000001000226d4 r _ZN3msr4apicL21IA32_X2APIC_LVT_LINT0E
00000001000226d8 r _ZN3msr4apicL21IA32_X2APIC_LVT_LINT1E
00000001000226dc r _ZN3msr4apicL21IA32_X2APIC_LVT_ERRORE
00000001000226e0 r _ZN3msr4apicL31IA32_X2APIC_TIMER_INITIAL_COUNTE
00000001000226e4 r _ZN3msr4apicL31IA32_X2APIC_TIMER_CURRENT_COUNTE
00000001000226e8 r _ZN3msr4apicL31IA32_X2APIC_TIMER_DIVIDE_CONFIGE
00000001000226ec r _ZN3msr4apicL20IA32_X2APIC_SELF_IPIE
00000001000226f0 r _ZN3msr6systemL20IA32_FEATURE_CONTROLE
00000001000226f4 r _ZN3msr6systemL8IA32_TSCE
00000001000226f8 r _ZN3msr6systemL16IA32_PLATFORM_IDE
00000001000226fc r _ZN3msr6systemL19IA32_EBL_CR_POWERONE
0000000100022700 r _ZN3msr6systemL21IA32_EBC_FREQUENCY_IDE
0000000100022704 r _ZN3msr5debugL13IA32_DEBUGCTLE
0000000100022708 r _ZN3msr5debugL21IA32_LASTBRANCHFROMIPE
000000010002270c r _ZN3msr5debugL19IA32_LASTBRANCHTOIPE
0000000100022710 r _ZN3msr5debugL18IA32_LASTINTFROMIPE
0000000100022714 r _ZN3msr5debugL16IA32_LASTINTTOIPE
0000000100022718 r _ZN3msr11performanceL10IA32_MPERFE
000000010002271c r _ZN3msr11performanceL10IA32_APERFE
0000000100022720 r _ZN3msr11performanceL16IA32_PERF_STATUSE
0000000100022724 r _ZN3msr11performanceL13IA32_PERF_CTLE
0000000100022728 r _ZN3msr16power_managementL21IA32_CLOCK_MODULATIONE
000000010002272c r _ZN3msr16power_managementL20IA32_THERM_INTERRUPTE
0000000100022730 r _ZN3msr16power_managementL17IA32_THERM_STATUSE
0000000100022734 r _ZN3msr16power_managementL16IA32_MISC_ENABLEE
0000000100022738 r _ZN3msr4mtrrL13IA32_MTRR_CAPE
000000010002273c r _ZN3msr4mtrrL18IA32_MTRR_DEF_TYPEE
0000000100022740 r _ZN3msr4mtrrL19IA32_MTRR_PHYSBASE0E
0000000100022744 r _ZN3msr4mtrrL19IA32_MTRR_PHYSMASK0E
0000000100022748 r _ZN3msr4mtrrL19IA32_MTRR_PHYSBASE1E
000000010002274c r _ZN3msr4mtrrL19IA32_MTRR_PHYSMASK1E
0000000100022750 r _ZN3msr4mtrrL19IA32_MTRR_PHYSBASE2E
0000000100022754 r _ZN3msr4mtrrL19IA32_MTRR_PHYSMASK2E
0000000100022758 r _ZN3msr4mtrrL19IA32_MTRR_PHYSBASE3E
000000010002275c r _ZN3msr4mtrrL19IA32_MTRR_PHYSMASK3E
0000000100022760 r _ZN3msr4mtrrL19IA32_MTRR_PHYSBASE4E
0000000100022764 r _ZN3msr4mtrrL19IA32_MTRR_PHYSMASK4E
0000000100022768 r _ZN3msr4mtrrL19IA32_MTRR_PHYSBASE5E
000000010002276c r _ZN3msr4mtrrL19IA32_MTRR_PHYSMASK5E
0000000100022770 r _ZN3msr4mtrrL19IA32_MTRR_PHYSBASE6E
0000000100022774 r _ZN3msr4mtrrL19IA32_MTRR_PHYSMASK6E
0000000100022778 r _ZN3msr4mtrrL19IA32_MTRR_PHYSBASE7E
000000010002277c r _ZN3msr4mtrrL19IA32_MTRR_PHYSMASK7E
0000000100022780 r _ZN3msr4mtrrL19IA32_MTRR_PHYSBASE8E
0000000100022784 r _ZN3msr4mtrrL19IA32_MTRR_PHYSMASK8E
0000000100022788 r _ZN3msr4mtrrL19IA32_MTRR_PHYSBASE9E
000000010002278c r _ZN3msr4mtrrL19IA32_MTRR_PHYSMASK9E
0000000100022790 r _ZN3msr4mtrrL22IA32_MTRR_FIX64K_00000E
0000000100022794 r _ZN3msr4mtrrL22IA32_MTRR_FIX16K_80000E
0000000100022798 r _ZN3msr4mtrrL22IA32_MTRR_FIX16K_A0000E
000000010002279c r _ZN3msr4mtrrL21IA32_MTRR_FIX4K_C0000E
00000001000227a0 r _ZN3msr4mtrrL21IA32_MTRR_FIX4K_C8000E
00000001000227a4 r _ZN3msr4mtrrL21IA32_MTRR_FIX4K_D0000E
00000001000227a8 r _ZN3msr4mtrrL21IA32_MTRR_FIX4K_D8000E
00000001000227ac r _ZN3msr4mtrrL21IA32_MTRR_FIX4K_E0000E
00000001000227b0 r _ZN3msr4mtrrL21IA32_MTRR_FIX4K_E8000E
00000001000227b4 r _ZN3msr4mtrrL21IA32_MTRR_FIX4K_F0000E
00000001000227b8 r _ZN3msr4mtrrL21IA32_MTRR_FIX4K_F8000E
00000001000227bc r _ZN3msr4mtrrL8IA32_PATE
00000001000227c0 r _ZN3msr3vmxL14IA32_VMX_BASICE
00000001000227c4 r _ZN3msr3vmxL22IA32_VMX_PINBASED_CTLSE
00000001000227c8 r _ZN3msr3vmxL23IA32_VMX_PROCBASED_CTLSE
00000001000227cc r _ZN3msr3vmxL18IA32_VMX_EXIT_CTLSE
00000001000227d0 r _ZN3msr3vmxL19IA32_VMX_ENTRY_CTLSE
00000001000227d4 r _ZN3msr3vmxL13IA32_VMX_MISCE
00000001000227d8 r _ZN3msr3vmxL19IA32_VMX_CR0_FIXED0E
00000001000227dc r _ZN3msr3vmxL19IA32_VMX_CR0_FIXED1E
00000001000227e0 r _ZN3msr3vmxL19IA32_VMX_CR4_FIXED0E
00000001000227e4 r _ZN3msr3vmxL19IA32_VMX_CR4_FIXED1E
00000001000227e8 r _ZN3msr3vmxL18IA32_VMX_VMCS_ENUME
00000001000227ec r _ZN3msr3vmxL24IA32_VMX_PROCBASED_CTLS2E
00000001000227f0 r _ZN3msr3vmxL21IA32_VMX_EPT_VPID_CAPE
00000001000227f4 r _ZN3msr3vmxL27IA32_VMX_TRUE_PINBASED_CTLSE
00000001000227f8 r _ZN3msr3vmxL28IA32_VMX_TRUE_PROCBASED_CTLSE
00000001000227fc r _ZN3msr3vmxL23IA32_VMX_TRUE_EXIT_CTLSE
0000000100022800 r _ZN3msr3vmxL24IA32_VMX_TRUE_ENTRY_CTLSE
0000000100022804 r _ZN3msr3vmxL15IA32_VMX_VMFUNCE
0000000100022808 r _ZN3msr3sgxL21IA32_SGXLEPUBKEYHASH0E
000000010002280c r _ZN3msr3sgxL21IA32_SGXLEPUBKEYHASH1E
0000000100022810 r _ZN3msr3sgxL21IA32_SGXLEPUBKEYHASH2E
0000000100022814 r _ZN3msr3sgxL21IA32_SGXLEPUBKEYHASH3E
0000000100022818 r _ZN3msr4fredL14IA32_FRED_RSP0E
000000010002281c r _ZN3msr4fredL14IA32_FRED_RSP1E
0000000100022820 r _ZN3msr4fredL14IA32_FRED_RSP2E
0000000100022824 r _ZN3msr4fredL14IA32_FRED_RSP3E
0000000100022828 r _ZN3msr4fredL17IA32_FRED_STKLVLSE
000000010002282c r _ZN3msr4fredL14IA32_FRED_SSP1E
0000000100022830 r _ZN3msr4fredL14IA32_FRED_SSP2E
0000000100022834 r _ZN3msr4fredL14IA32_FRED_SSP3E
0000000100022838 r _ZN3msr4fredL16IA32_FRED_CONFIGE
0000000100022840 r _ZN3msr4fred6configL8CSL_MASKE
0000000100022848 r _ZN3msr4fred6configL17RSP_DEC_STEP_MASKE
0000000100022850 r _ZN3msr4fred6configL15INT_STKLVL_MASKE
0000000100022858 r _ZN3msr4fred6configL15ENTRY_PAGE_MASKE
0000000100022860 r _ZN3msrL12IA32_PL0_SSPE
0000000100022864 r _ZN3msr5timerL17IA32_TSC_DEADLINEE
0000000100022868 r _ZN3msr7syscallL16IA32_SYSENTER_CSE
000000010002286c r _ZN3msr7syscallL17IA32_SYSENTER_ESPE
0000000100022870 r _ZN3msr7syscallL17IA32_SYSENTER_EIPE
0000000100022874 r _ZN3msr7syscallL9IA32_STARE
0000000100022878 r _ZN3msr7syscallL10IA32_LSTARE
000000010002287c r _ZN3msr7syscallL10IA32_FMASKE
0000000100022880 r _ZN3msr7syscallL12IA32_FS_BASEE
0000000100022884 r _ZN3msr7syscallL12IA32_GS_BASEE
0000000100022888 r _ZN3msr7syscallL19IA32_KERNEL_GS_BASEE
000000010002288c r _ZN3msr7syscallL12IA32_TSC_AUXE
0000000100022898 r _ZL19ACPI_XSDT_SIGNATURE
00000001000228a8 r _ZL19ACPI_FADT_SIGNATURE
00000001000228b8 r _ZL19ACPI_FACS_SIGNATURE
00000001000228c8 r _ZL19ACPI_MADT_SIGNATURE
00000001000228d8 r _ZL19ACPI_DSDT_SIGNATURE
00000001000228e8 r _ZL19ACPI_SSDT_SIGNATURE
00000001000228f8 r _ZL19ACPI_MCFG_SIGNATURE
0000000100022908 r _ZL19ACPI_HPET_SIGNATURE
0000000100022918 r _ZL19ACPI_DMAR_SIGNATURE
0000000100022920 r _ZL21XSDT_SIGNATURE_UINT32
0000000100022924 r _ZL21FADT_SIGNATURE_UINT32
0000000100022928 r _ZL21FACS_SIGNATURE_UINT32
000000010002292c r _ZL21MADT_SIGNATURE_UINT32
0000000100022930 r _ZL21DSDT_SIGNATURE_UINT32
0000000100022934 r _ZL21SSDT_SIGNATURE_UINT32
0000000100022938 r _ZL21MCFG_SIGNATURE_UINT32
000000010002293c r _ZL21HPET_SIGNATURE_UINT32
0000000100022940 r _ZL21DMAR_SIGNATURE_UINT32
0000000100022948 r _ZL15INITRAMFS_MAGIC
0000000100022950 r _ZL7version
0000000100022958 r _ZN23COREHARDWARES_LOCATIONSL18LOCATION_CODE_HPETE
0000000100022959 r _ZN23COREHARDWARES_LOCATIONS18HPET_DRIVER_EVENTSL4INITE
000000010002295a r _ZN23COREHARDWARES_LOCATIONS18HPET_DRIVER_EVENTS12INIT_RESULTS12FAIL_REASONSL17INVALID_ACPI_ADDRE
000000010002295c r _ZN23COREHARDWARES_LOCATIONS18HPET_DRIVER_EVENTS12INIT_RESULTS12FAIL_REASONSL19ACPI_ADDR_NOT_ALIGNE
000000010002295e r _ZN23COREHARDWARES_LOCATIONS18HPET_DRIVER_EVENTS12INIT_RESULTS12FAIL_REASONSL13ALLREADE_INITE
0000000100022960 r _ZN23COREHARDWARES_LOCATIONS18HPET_DRIVER_EVENTS12INIT_RESULTS12FAIL_REASONSL19COUNTER_PERIOD_ZEROE
0000000100022964 r _ZN4HPET4regsL34offset_General_Capabilities_and_IDE
0000000100022968 r _ZN4HPET4regsL21offset_General_ConfigE
000000010002296c r _ZN4HPET4regsL25offset_main_counter_valueE
0000000100022970 r _ZN4HPET4regsL44offset_Timer0_Configuration_and_CapabilitiesE
0000000100022974 r _ZN4HPET4regsL14size_per_timerE
0000000100022978 r _ZN4HPET4regsL28COMPARATOR_COUNT_LEFT_OFFSETE
0000000100022979 r _ZN4HPET4regsL21COMPARATOR_COUNT_MASKE
000000010002297a r _ZN4HPET4regsL30COUNTER_CLK_PERIOD_LEFT_OFFSETE
0000000100022980 r _ZN4HPET4regsL18GCONFIG_ENABLE_BITE
0000000100022988 r _ZN4HPET4regsL18Tn_INT_ENB_CNF_BITE
0000000100022990 r _ZL18KERNEL_INIT_RFLAGS
0000000100022998 r _ZL20INIT_TO_KERNEL_MAGIC
00000001000229a0 r _ZL16HEAP_BITMAP_BITS
00000001000229a8 r _ZL17HEAP_BITMAP_BYTES
0000000100023060 r _ZL15PAGE_SIZE_IN_LV
00000001000230a0 r _ZL16PAGE_OFFSET_MASK
00000001000230c8 r _ZL17Max_huge_pg_index
00000001000230d0 r _ZN22lineaddr_index_filtersL17PT_INDEX_MASK_lv0E
00000001000230d8 r _ZN22lineaddr_index_filtersL17PD_INDEX_MASK_lv1E
00000001000230e0 r _ZN22lineaddr_index_filtersL19PDPT_INDEX_MASK_lv2E
00000001000230e8 r _ZN22lineaddr_index_filtersL19PML4_INDEX_MASK_lv3E
00000001000230f0 r _ZN22lineaddr_index_filtersL19PML5_INDEX_MASK_lv4E
00000001000230f8 r _ZL15PHYS_ADDR_WIDTH
0000000100023100 r _ZL14PHYS_ADDR_MASK
0000000100023108 r _ZN14PageTableEntryL5P_BITE
0000000100023110 r _ZN14PageTableEntryL6RW_BITE
0000000100023118 r _ZN14PageTableEntryL6US_BITE
0000000100023120 r _ZN14PageTableEntryL7PWT_BITE
0000000100023128 r _ZN14PageTableEntryL7PCD_BITE
0000000100023130 r _ZN14PageTableEntryL5A_BITE
0000000100023138 r _ZN14PageTableEntryL6XD_BITE
0000000100023140 r _ZN14PageTableEntryL6P_MASKE
0000000100023148 r _ZN14PageTableEntryL7RW_MASKE
0000000100023150 r _ZN14PageTableEntryL7US_MASKE
0000000100023158 r _ZN14PageTableEntryL8PWT_MASKE
0000000100023160 r _ZN14PageTableEntryL8PCD_MASKE
0000000100023168 r _ZN14PageTableEntryL6A_MASKE
0000000100023170 r _ZN14PageTableEntryL7XD_MASKE
0000000100023178 r _ZN5PML5EL5R_BITE
0000000100023180 r _ZN5PML5EL6PS_BITE
0000000100023188 r _ZN5PML5EL6R_MASKE
0000000100023190 r _ZN5PML5EL7PS_MASKE
0000000100023198 r _ZN5PML5EL11ADDR_OFFSETE
00000001000231a0 r _ZN5PML5EL9ADDR_BITSE
00000001000231a8 r _ZN5PML5EL9ADDR_MASKE
00000001000231b0 r _ZN5PML4EL5R_BITE
00000001000231b8 r _ZN5PML4EL6PS_BITE
00000001000231c0 r _ZN5PML4EL6R_MASKE
00000001000231c8 r _ZN5PML4EL7PS_MASKE
00000001000231d0 r _ZN5PML4EL11ADDR_OFFSETE
00000001000231d8 r _ZN5PML4EL9ADDR_BITSE
00000001000231e0 r _ZN5PML4EL9ADDR_MASKE
00000001000231e8 r _ZN5PDPTEL5D_BITE
00000001000231f0 r _ZN5PDPTEL6PS_BITE
00000001000231f8 r _ZN5PDPTEL5G_BITE
0000000100023200 r _ZN5PDPTEL5R_BITE
0000000100023208 r _ZN5PDPTEL7PAT_BITE
0000000100023210 r _ZN5PDPTEL7PK_BITSE
0000000100023218 r _ZN5PDPTEL6D_MASKE
0000000100023220 r _ZN5PDPTEL7PS_MASKE
0000000100023228 r _ZN5PDPTEL6G_MASKE
0000000100023230 r _ZN5PDPTEL6R_MASKE
0000000100023238 r _ZN5PDPTEL8PAT_MASKE
0000000100023240 r _ZN5PDPTEL7PK_MASKE
0000000100023248 r _ZN5PDPTEL14ADDR_PD_OFFSETE
0000000100023250 r _ZN5PDPTEL12ADDR_PD_BITSE
0000000100023258 r _ZN5PDPTEL12ADDR_PD_MASKE
0000000100023260 r _ZN5PDPTEL15ADDR_1GB_OFFSETE
0000000100023268 r _ZN5PDPTEL13ADDR_1GB_BITSE
0000000100023270 r _ZN5PDPTEL13ADDR_1GB_MASKE
0000000100023278 r _ZN3PDEL5D_BITE
0000000100023280 r _ZN3PDEL6PS_BITE
0000000100023288 r _ZN3PDEL5G_BITE
0000000100023290 r _ZN3PDEL5R_BITE
0000000100023298 r _ZN3PDEL7PAT_BITE
00000001000232a0 r _ZN3PDEL7PK_BITSE
00000001000232a8 r _ZN3PDEL6D_MASKE
00000001000232b0 r _ZN3PDEL7PS_MASKE
00000001000232b8 r _ZN3PDEL6G_MASKE
00000001000232c0 r _ZN3PDEL6R_MASKE
00000001000232c8 r _ZN3PDEL8PAT_MASKE
00000001000232d0 r _ZN3PDEL7PK_MASKE
00000001000232d8 r _ZN3PDEL14ADDR_PT_OFFSETE
00000001000232e0 r _ZN3PDEL12ADDR_PT_BITSE
00000001000232e8 r _ZN3PDEL12ADDR_PT_MASKE
00000001000232f0 r _ZN3PDEL15ADDR_2MB_OFFSETE
00000001000232f8 r _ZN3PDEL13ADDR_2MB_BITSE
0000000100023300 r _ZN3PDEL13ADDR_2MB_MASKE
0000000100023308 r _ZN3PTEL5D_BITE
0000000100023310 r _ZN3PTEL7PAT_BITE
0000000100023318 r _ZN3PTEL5G_BITE
0000000100023320 r _ZN3PTEL5R_BITE
0000000100023328 r _ZN3PTEL7PK_BITSE
0000000100023330 r _ZN3PTEL6D_MASKE
0000000100023338 r _ZN3PTEL8PAT_MASKE
0000000100023340 r _ZN3PTEL6G_MASKE
0000000100023348 r _ZN3PTEL6R_MASKE
0000000100023350 r _ZN3PTEL7PK_MASKE
0000000100023358 r _ZN3PTEL11ADDR_OFFSETE
0000000100023360 r _ZN3PTEL9ADDR_BITSE
0000000100023368 r _ZN3PTEL9ADDR_MASKE
0000000100023370 r _ZL13ENTRY_PRESENT
0000000100023371 r _ZL17ENTRY_PRESENT_NOT
0000000100023372 r _ZL17RWBIT_WRITE_ALLOW
0000000100023373 r _ZL21RWBIT_WRITE_ALLOW_NOT
0000000100023374 r _ZL16KERNE_BIT_KERNEL
0000000100023375 r _ZL20KERNE_BIT_KERNEL_NOT
0000000100023376 r _ZL17XD_BIT_EXECUTABLE
0000000100023377 r _ZL21XD_BIT_EXECUTABLE_NOT
0000000100023378 r _ZL10empty_kurd
0000000100023380 r _ZN10level_codeL7INVALIDE
0000000100023381 r _ZN10level_codeL4INFOE
0000000100023382 r _ZN10level_codeL6NOTICEE
0000000100023383 r _ZN10level_codeL7WARNINGE
0000000100023384 r _ZN10level_codeL5ERRORE
0000000100023385 r _ZN10level_codeL5FATALE
0000000100023386 r _ZN11module_codeL7INVALIDE
0000000100023387 r _ZN11module_codeL6MEMORYE
0000000100023388 r _ZN11module_codeL9SCHEDULERE
0000000100023389 r _ZN11module_codeL9INTERRUPTE
000000010002338a r _ZN11module_codeL8FIRMWAREE
000000010002338b r _ZN11module_codeL3VFSE
000000010002338c r _ZN11module_codeL3VMME
000000010002338d r _ZN11module_codeL5INFRAE
000000010002338e r _ZN11module_codeL6DEVICEE
000000010002338f r _ZN11module_codeL12DEVICES_COREE
0000000100023390 r _ZN11module_codeL14HARDWARE_DEBUGE
0000000100023391 r _ZN11module_codeL15USER_KERNEL_ABIE
0000000100023392 r _ZN11module_codeL4TIMEE
0000000100023393 r _ZN11module_codeL5PANICE
0000000100023394 r _ZN11result_codeL7SUCCESSE
0000000100023396 r _ZN11result_codeL23SUCCESS_BUT_SIDE_EFFECTE
0000000100023398 r _ZN11result_codeL15PARTIAL_SUCCESSE
000000010002339a r _ZN11result_codeL4FAILE
000000010002339c r _ZN11result_codeL5RETRYE
000000010002339e r _ZN11result_codeL5FATALE
00000001000233a0 r _ZN10err_domainL7INVALIDE
00000001000233a1 r _ZN10err_domainL11CORE_MODULEE
00000001000233a2 r _ZN10err_domainL4ARCHE
00000001000233a3 r _ZN10err_domainL4USERE
00000001000233a4 r _ZN10err_domainL10HYPERVISORE
00000001000233a5 r _ZN10err_domainL11OUT_MODULESE
00000001000233a6 r _ZN10err_domainL11FILE_SYSTEME
00000001000233a7 r _ZN10err_domainL8HARDWAREE
00000001000233a8 r _ZL6LOCKED
00000001000233a9 r _ZL8UNLOCKED
00000001000233b0 r _ZL10PAGE_DIRTY
00000001000233b8 r _ZL11PAGE_LOCKED
00000001000233c0 r _ZL14PAGE_WRITEBACK
00000001000233c8 r _ZL13PAGE_UPTODATE
00000001000233d0 r _ZL13PAGE_SWAPPING
00000001000233d8 r _ZL15PAGE_REFERENCED
00000001000233e0 r _ZL11PAGE_ACTIVE
00000001000233e8 r _ZL12PAGE_RECLAIM
00000001000233f0 r _ZL25MAX_PHYADDR_1GB_PGS_COUNT
00000001000233f8 r _ZL18DEFAULT_PAT_CONFIG
0000000100023400 r _ZL16KSPACE_RW_ACCESS
0000000100023402 r _ZL17KSPACE_RWX_ACCESS
0000000100023404 r _ZL19KSPACE_RW_UC_ACCESS
0000000100023406 r _ZL16KSPACE_RX_ACCESS
0000000100023408 r _ZL15KSPACE_R_ACCESS
000000010002340a r _ZL20KSPACE_RWX_NG_ACCESS
000000010002340c r _ZL19KSPACE_RW_WC_ACCESS
000000010002340e r _ZL13default_flags
0000000100023410 r _ZL24BUDDY_ALLOC_DEFAULT_FLAG
0000000100023420 r _ZL22BUDDY_ALLOC_ALWAYS_TRY
0000000100023430 r _ZL20BUDDY_ALLOC_DOWN_4GB
0000000100023440 r _ZL33PASS_THROUGH_DEVICE_GRAPHICS_INFO
0000000100023444 r _ZL32VM_ID_architecture_agnostic_base
0000000100023448 r _ZL20VM_ID_BSP_INIT_STACK
0000000100023450 r _ZL19BSP_INIT_STACK_SIZE
0000000100023458 r _ZL25BSP_INIT_STACK_ALIGN_LOG2
000000010002345c r _ZL16VM_ID_FIRST_HEAP
0000000100023460 r _ZL21FIRST_HEAP_SIZE_CONST
0000000100023468 r _ZL21FIRST_HEAP_ALIGN_LOG2
000000010002346c r _ZL23VM_ID_FIRST_HEAP_BITMAP
0000000100023470 r _ZL22FIRST_HEAP_BITMAP_SIZE
0000000100023478 r _ZL28FIRST_HEAP_BITMAP_ALIGN_LOG2
000000010002347c r _ZL15VM_ID_LOGBUFFER
0000000100023480 r _ZL14LOGBUFFER_SIZE
0000000100023488 r _ZL20LOGBUFFER_ALIGN_LOG2
000000010002348c r _ZL14VM_ID_KSYMBOLS
0000000100023490 r _ZL13VM_ID_MEM_MAP
0000000100023494 r _ZL18VM_ID_BCBS_BITMAPS
0000000100023498 r _ZL18MEM_MAP_ALIGN_LOG2
000000010002349c r _ZL20VM_ID_UP_KSPACE_PDPT
00000001000234a0 r _ZL20VM_ID_GRAPHIC_BUFFER
00000001000234a8 r _ZL19UP_KSPACE_PDPT_SIZE
00000001000234b0 r _ZL25UP_KSPACE_PDPT_ALIGN_LOG2
00000001000234b4 r _ZL15VM_ID_HPET_MMIO
00000001000234b8 r _ZN18MEMMODULE_LOCAIONSL7INVALIDE
00000001000234b9 r _ZN18MEMMODULE_LOCAIONSL25LOCATION_CODE_BASE_MEMMGRE
00000001000234ba r _ZN18MEMMODULE_LOCAIONSL29LOCATION_CODE_PHYMEM_ACCESSORE
00000001000234bb r _ZN18MEMMODULE_LOCAIONSL28LOCATION_CODE_KSPACE_MAP_MGRE
00000001000234bc r _ZN18MEMMODULE_LOCAIONSL25LOCATION_CODE_ADDRESSPACEE
00000001000234bd r _ZN18MEMMODULE_LOCAIONSL26LOCATION_CODE_OUT_SURFACESE
00000001000234be r _ZN18MEMMODULE_LOCAIONSL25LOCATION_CODE_KPOOLMEMMGRE
00000001000234bf r _ZN18MEMMODULE_LOCAIONS18KPOOLMEMMGR_EVENTSL15EVENT_CODE_INITE
00000001000234c0 r _ZN18MEMMODULE_LOCAIONS18KPOOLMEMMGR_EVENTSL16EVENT_CODE_ALLOCE
00000001000234c2 r _ZN18MEMMODULE_LOCAIONS18KPOOLMEMMGR_EVENTS13ALLOC_RESULTS11FAIL_RESONSL28REASON_CODE_NO_AVALIABLE_MEME
00000001000234c4 r _ZN18MEMMODULE_LOCAIONS18KPOOLMEMMGR_EVENTS13ALLOC_RESULTS11FAIL_RESONSL24REASON_CODE_SIZE_IS_ZEROE
00000001000234c6 r _ZN18MEMMODULE_LOCAIONS18KPOOLMEMMGR_EVENTSL18EVENT_CODE_REALLOCE
00000001000234c8 r _ZN18MEMMODULE_LOCAIONS18KPOOLMEMMGR_EVENTS15REALLOC_RESULTS11FAIL_RESONSL31REASON_CODE_DEMAND_SIZE_IS_ZEROE
00000001000234ca r _ZN18MEMMODULE_LOCAIONS18KPOOLMEMMGR_EVENTS15REALLOC_RESULTS11FAIL_RESONSL31REASON_CODE_PTR_NOT_IN_ANY_HEAPE
00000001000234cc r _ZN18MEMMODULE_LOCAIONS18KPOOLMEMMGR_EVENTS15REALLOC_RESULTS11FAIL_RESONSL28REASON_CODE_NO_AVALIABLE_MEME
00000001000234ce r _ZN18MEMMODULE_LOCAIONS18KPOOLMEMMGR_EVENTSL34EVENT_CODE_PER_PROCESSOR_HEAP_INITE
00000001000234d0 r _ZN18MEMMODULE_LOCAIONS18KPOOLMEMMGR_EVENTS31PER_PROCESSOR_HEAP_INIT_RESULTS11FAIL_RESONSL27REASON_CODE_ALREADY_ENABLEDE
00000001000234d2 r _ZN18MEMMODULE_LOCAIONS18KPOOLMEMMGR_EVENTS31PER_PROCESSOR_HEAP_INIT_RESULTS11FAIL_RESONSL31REASON_CODE_BAD_PROCESSOR_COUNTE
00000001000234d4 r _ZN18MEMMODULE_LOCAIONS18KPOOLMEMMGR_EVENTS31PER_PROCESSOR_HEAP_INIT_RESULTS11FAIL_RESONSL26REASON_CODE_NO_VADDR_SPACEE
00000001000234d6 r _ZN18MEMMODULE_LOCAIONS18KPOOLMEMMGR_EVENTS31PER_PROCESSOR_HEAP_INIT_RESULTS11FAIL_RESONSL23REASON_CODE_VM_ADD_FAILE
00000001000234d8 r _ZN18MEMMODULE_LOCAIONS18KPOOLMEMMGR_EVENTS31PER_PROCESSOR_HEAP_INIT_RESULTS11FAIL_RESONSL28REASON_CODE_IDX_OUT_OF_RANGEE
00000001000234da r _ZN18MEMMODULE_LOCAIONS18KPOOLMEMMGR_EVENTS31PER_PROCESSOR_HEAP_INIT_RESULTS11FAIL_RESONSL31REASON_CODE_HEAP_ALREADY_EXISTSE
00000001000234dc r _ZN18MEMMODULE_LOCAIONS18KPOOLMEMMGR_EVENTS31PER_PROCESSOR_HEAP_INIT_RESULTS11FAIL_RESONSL26REASON_CODE_HEAP_NOT_EXISTE
00000001000234de r _ZN18MEMMODULE_LOCAIONSL32LOCATION_CODE_KPOOLMEMMGR_HCB_V3E
00000001000234df r _ZN18MEMMODULE_LOCAIONS25KPOOLMEMMGR_HCB_V3_EVENTSL17EVENT_CODE_ONLINEE
00000001000234e0 r _ZN18MEMMODULE_LOCAIONS25KPOOLMEMMGR_HCB_V3_EVENTSL18EVENT_CODE_OFFLINEE
00000001000234e1 r _ZN18MEMMODULE_LOCAIONS25KPOOLMEMMGR_HCB_V3_EVENTSL16EVENT_CODE_ALLOCE
00000001000234e2 r _ZN18MEMMODULE_LOCAIONS25KPOOLMEMMGR_HCB_V3_EVENTSL15EVENT_CODE_FREEE
00000001000234e3 r _ZN18MEMMODULE_LOCAIONS25KPOOLMEMMGR_HCB_V3_EVENTSL18EVENT_CODE_REALLOCE
00000001000234e4 r _ZN18MEMMODULE_LOCAIONS25KPOOLMEMMGR_HCB_V3_EVENTSL25EVENT_CODE_INTERNAL_ALLOCE
00000001000234e5 r _ZN18MEMMODULE_LOCAIONS25KPOOLMEMMGR_HCB_V3_EVENTSL24EVENT_CODE_INTERNAL_FREEE
00000001000234e6 r _ZN18MEMMODULE_LOCAIONS25KPOOLMEMMGR_HCB_V3_EVENTSL16EVENT_CODE_CLEARE
00000001000234e8 r _ZN18MEMMODULE_LOCAIONS25KPOOLMEMMGR_HCB_V3_EVENTS19COMMON_FAIL_REASONSL20REASON_CODE_BAD_ADDRE
00000001000234ea r _ZN18MEMMODULE_LOCAIONS25KPOOLMEMMGR_HCB_V3_EVENTS19COMMON_FAIL_REASONSL30REASON_CODE_ADDR_NOT_THIS_HEAPE
00000001000234ec r _ZN18MEMMODULE_LOCAIONS25KPOOLMEMMGR_HCB_V3_EVENTS20COMMON_FATAL_REASONSL30REASON_CODE_METADATA_DESTROYEDE
00000001000234ee r _ZN18MEMMODULE_LOCAIONS25KPOOLMEMMGR_HCB_V3_EVENTS22INTERNAL_ALLOC_RESULTS11FAIL_RESONSL30REASON_CODE_NO_AVALIABLE_BUDDYE
00000001000234f0 r _ZN18MEMMODULE_LOCAIONS25KPOOLMEMMGR_HCB_V3_EVENTS13ALLOC_RESULTS12FAIL_REASONSL24REASON_CODE_SIZE_IS_ZEROE
00000001000234f2 r _ZN18MEMMODULE_LOCAIONS25KPOOLMEMMGR_HCB_V3_EVENTS13ALLOC_RESULTS12FAIL_REASONSL26REASON_CODE_SIZE_TOO_LARGEE
00000001000234f4 r _ZN18MEMMODULE_LOCAIONS25KPOOLMEMMGR_HCB_V3_EVENTS12FREE_RESULTS13FATAL_REASONSL18DOUBLE_FREE_DETECTE
00000001000234f6 r _ZN18MEMMODULE_LOCAIONS25KPOOLMEMMGR_HCB_V3_EVENTS12FREE_RESULTS13FATAL_REASONSL22MERGE_BUT_ALREADY_FREEE
00000001000234f8 r _ZL14HCB_evict_span
0000000100023500 r _ZL23HCB_evictor_sleep_cycle
0000000100023508 r _ZN3msrL9IA32_EFERE
000000010002350c r _ZN3msr4apicL14IA32_APIC_BASEE
0000000100023510 r _ZN3msr4apicL14IA32_X2APIC_IDE
0000000100023514 r _ZN3msr4apicL19IA32_X2APIC_VERSIONE
0000000100023518 r _ZN3msr4apicL15IA32_X2APIC_TPRE
000000010002351c r _ZN3msr4apicL15IA32_X2APIC_PPRE
0000000100023520 r _ZN3msr4apicL15IA32_X2APIC_EOIE
0000000100023524 r _ZN3msr4apicL15IA32_X2APIC_LDRE
0000000100023528 r _ZN3msr4apicL15IA32_X2APIC_SVRE
000000010002352c r _ZN3msr4apicL16IA32_X2APIC_ISR0E
0000000100023530 r _ZN3msr4apicL16IA32_X2APIC_ISR1E
0000000100023534 r _ZN3msr4apicL16IA32_X2APIC_ISR2E
0000000100023538 r _ZN3msr4apicL16IA32_X2APIC_ISR3E
000000010002353c r _ZN3msr4apicL16IA32_X2APIC_ISR4E
0000000100023540 r _ZN3msr4apicL16IA32_X2APIC_ISR5E
0000000100023544 r _ZN3msr4apicL16IA32_X2APIC_ISR6E
0000000100023548 r _ZN3msr4apicL16IA32_X2APIC_ISR7E
000000010002354c r _ZN3msr4apicL16IA32_X2APIC_TMR0E
0000000100023550 r _ZN3msr4apicL16IA32_X2APIC_TMR1E
0000000100023554 r _ZN3msr4apicL16IA32_X2APIC_TMR2E
0000000100023558 r _ZN3msr4apicL16IA32_X2APIC_TMR3E
000000010002355c r _ZN3msr4apicL16IA32_X2APIC_TMR4E
0000000100023560 r _ZN3msr4apicL16IA32_X2APIC_TMR5E
0000000100023564 r _ZN3msr4apicL16IA32_X2APIC_TMR6E
0000000100023568 r _ZN3msr4apicL16IA32_X2APIC_TMR7E
000000010002356c r _ZN3msr4apicL16IA32_X2APIC_IRR0E
0000000100023570 r _ZN3msr4apicL16IA32_X2APIC_IRR1E
0000000100023574 r _ZN3msr4apicL16IA32_X2APIC_IRR2E
0000000100023578 r _ZN3msr4apicL16IA32_X2APIC_IRR3E
000000010002357c r _ZN3msr4apicL16IA32_X2APIC_IRR4E
0000000100023580 r _ZN3msr4apicL16IA32_X2APIC_IRR5E
0000000100023584 r _ZN3msr4apicL16IA32_X2APIC_IRR6E
0000000100023588 r _ZN3msr4apicL16IA32_X2APIC_IRR7E
000000010002358c r _ZN3msr4apicL15IA32_X2APIC_ESRE
0000000100023590 r _ZN3msr4apicL20IA32_X2APIC_LVT_CMCIE
0000000100023594 r _ZN3msr4apicL15IA32_X2APIC_ICRE
0000000100023598 r _ZN3msr4apicL21IA32_X2APIC_LVT_TIMERE
000000010002359c r _ZN3msr4apicL23IA32_X2APIC_LVT_THERMALE
00000001000235a0 r _ZN3msr4apicL19IA32_X2APIC_LVT_PMIE
00000001000235a4 r _ZN3msr4apicL21IA32_X2APIC_LVT_LINT0E
00000001000235a8 r _ZN3msr4apicL21IA32_X2APIC_LVT_LINT1E
00000001000235ac r _ZN3msr4apicL21IA32_X2APIC_LVT_ERRORE
00000001000235b0 r _ZN3msr4apicL31IA32_X2APIC_TIMER_INITIAL_COUNTE
00000001000235b4 r _ZN3msr4apicL31IA32_X2APIC_TIMER_CURRENT_COUNTE
00000001000235b8 r _ZN3msr4apicL31IA32_X2APIC_TIMER_DIVIDE_CONFIGE
00000001000235bc r _ZN3msr4apicL20IA32_X2APIC_SELF_IPIE
00000001000235c0 r _ZN3msr6systemL20IA32_FEATURE_CONTROLE
00000001000235c4 r _ZN3msr6systemL8IA32_TSCE
00000001000235c8 r _ZN3msr6systemL16IA32_PLATFORM_IDE
00000001000235cc r _ZN3msr6systemL19IA32_EBL_CR_POWERONE
00000001000235d0 r _ZN3msr6systemL21IA32_EBC_FREQUENCY_IDE
00000001000235d4 r _ZN3msr5debugL13IA32_DEBUGCTLE
00000001000235d8 r _ZN3msr5debugL21IA32_LASTBRANCHFROMIPE
00000001000235dc r _ZN3msr5debugL19IA32_LASTBRANCHTOIPE
00000001000235e0 r _ZN3msr5debugL18IA32_LASTINTFROMIPE
00000001000235e4 r _ZN3msr5debugL16IA32_LASTINTTOIPE
00000001000235e8 r _ZN3msr11performanceL10IA32_MPERFE
00000001000235ec r _ZN3msr11performanceL10IA32_APERFE
00000001000235f0 r _ZN3msr11performanceL16IA32_PERF_STATUSE
00000001000235f4 r _ZN3msr11performanceL13IA32_PERF_CTLE
00000001000235f8 r _ZN3msr16power_managementL21IA32_CLOCK_MODULATIONE
00000001000235fc r _ZN3msr16power_managementL20IA32_THERM_INTERRUPTE
0000000100023600 r _ZN3msr16power_managementL17IA32_THERM_STATUSE
0000000100023604 r _ZN3msr16power_managementL16IA32_MISC_ENABLEE
0000000100023608 r _ZN3msr4mtrrL13IA32_MTRR_CAPE
000000010002360c r _ZN3msr4mtrrL18IA32_MTRR_DEF_TYPEE
0000000100023610 r _ZN3msr4mtrrL19IA32_MTRR_PHYSBASE0E
0000000100023614 r _ZN3msr4mtrrL19IA32_MTRR_PHYSMASK0E
0000000100023618 r _ZN3msr4mtrrL19IA32_MTRR_PHYSBASE1E
000000010002361c r _ZN3msr4mtrrL19IA32_MTRR_PHYSMASK1E
0000000100023620 r _ZN3msr4mtrrL19IA32_MTRR_PHYSBASE2E
0000000100023624 r _ZN3msr4mtrrL19IA32_MTRR_PHYSMASK2E
0000000100023628 r _ZN3msr4mtrrL19IA32_MTRR_PHYSBASE3E
000000010002362c r _ZN3msr4mtrrL19IA32_MTRR_PHYSMASK3E
0000000100023630 r _ZN3msr4mtrrL19IA32_MTRR_PHYSBASE4E
0000000100023634 r _ZN3msr4mtrrL19IA32_MTRR_PHYSMASK4E
0000000100023638 r _ZN3msr4mtrrL19IA32_MTRR_PHYSBASE5E
000000010002363c r _ZN3msr4mtrrL19IA32_MTRR_PHYSMASK5E
0000000100023640 r _ZN3msr4mtrrL19IA32_MTRR_PHYSBASE6E
0000000100023644 r _ZN3msr4mtrrL19IA32_MTRR_PHYSMASK6E
0000000100023648 r _ZN3msr4mtrrL19IA32_MTRR_PHYSBASE7E
000000010002364c r _ZN3msr4mtrrL19IA32_MTRR_PHYSMASK7E
0000000100023650 r _ZN3msr4mtrrL19IA32_MTRR_PHYSBASE8E
0000000100023654 r _ZN3msr4mtrrL19IA32_MTRR_PHYSMASK8E
0000000100023658 r _ZN3msr4mtrrL19IA32_MTRR_PHYSBASE9E
000000010002365c r _ZN3msr4mtrrL19IA32_MTRR_PHYSMASK9E
0000000100023660 r _ZN3msr4mtrrL22IA32_MTRR_FIX64K_00000E
0000000100023664 r _ZN3msr4mtrrL22IA32_MTRR_FIX16K_80000E
0000000100023668 r _ZN3msr4mtrrL22IA32_MTRR_FIX16K_A0000E
000000010002366c r _ZN3msr4mtrrL21IA32_MTRR_FIX4K_C0000E
0000000100023670 r _ZN3msr4mtrrL21IA32_MTRR_FIX4K_C8000E
0000000100023674 r _ZN3msr4mtrrL21IA32_MTRR_FIX4K_D0000E
0000000100023678 r _ZN3msr4mtrrL21IA32_MTRR_FIX4K_D8000E
000000010002367c r _ZN3msr4mtrrL21IA32_MTRR_FIX4K_E0000E
0000000100023680 r _ZN3msr4mtrrL21IA32_MTRR_FIX4K_E8000E
0000000100023684 r _ZN3msr4mtrrL21IA32_MTRR_FIX4K_F0000E
0000000100023688 r _ZN3msr4mtrrL21IA32_MTRR_FIX4K_F8000E
000000010002368c r _ZN3msr4mtrrL8IA32_PATE
0000000100023690 r _ZN3msr3vmxL14IA32_VMX_BASICE
0000000100023694 r _ZN3msr3vmxL22IA32_VMX_PINBASED_CTLSE
0000000100023698 r _ZN3msr3vmxL23IA32_VMX_PROCBASED_CTLSE
000000010002369c r _ZN3msr3vmxL18IA32_VMX_EXIT_CTLSE
00000001000236a0 r _ZN3msr3vmxL19IA32_VMX_ENTRY_CTLSE
00000001000236a4 r _ZN3msr3vmxL13IA32_VMX_MISCE
00000001000236a8 r _ZN3msr3vmxL19IA32_VMX_CR0_FIXED0E
00000001000236ac r _ZN3msr3vmxL19IA32_VMX_CR0_FIXED1E
00000001000236b0 r _ZN3msr3vmxL19IA32_VMX_CR4_FIXED0E
00000001000236b4 r _ZN3msr3vmxL19IA32_VMX_CR4_FIXED1E
00000001000236b8 r _ZN3msr3vmxL18IA32_VMX_VMCS_ENUME
00000001000236bc r _ZN3msr3vmxL24IA32_VMX_PROCBASED_CTLS2E
00000001000236c0 r _ZN3msr3vmxL21IA32_VMX_EPT_VPID_CAPE
00000001000236c4 r _ZN3msr3vmxL27IA32_VMX_TRUE_PINBASED_CTLSE
00000001000236c8 r _ZN3msr3vmxL28IA32_VMX_TRUE_PROCBASED_CTLSE
00000001000236cc r _ZN3msr3vmxL23IA32_VMX_TRUE_EXIT_CTLSE
00000001000236d0 r _ZN3msr3vmxL24IA32_VMX_TRUE_ENTRY_CTLSE
00000001000236d4 r _ZN3msr3vmxL15IA32_VMX_VMFUNCE
00000001000236d8 r _ZN3msr3sgxL21IA32_SGXLEPUBKEYHASH0E
00000001000236dc r _ZN3msr3sgxL21IA32_SGXLEPUBKEYHASH1E
00000001000236e0 r _ZN3msr3sgxL21IA32_SGXLEPUBKEYHASH2E
00000001000236e4 r _ZN3msr3sgxL21IA32_SGXLEPUBKEYHASH3E
00000001000236e8 r _ZN3msr4fredL14IA32_FRED_RSP0E
00000001000236ec r _ZN3msr4fredL14IA32_FRED_RSP1E
00000001000236f0 r _ZN3msr4fredL14IA32_FRED_RSP2E
00000001000236f4 r _ZN3msr4fredL14IA32_FRED_RSP3E
00000001000236f8 r _ZN3msr4fredL17IA32_FRED_STKLVLSE
00000001000236fc r _ZN3msr4fredL14IA32_FRED_SSP1E
0000000100023700 r _ZN3msr4fredL14IA32_FRED_SSP2E
0000000100023704 r _ZN3msr4fredL14IA32_FRED_SSP3E
0000000100023708 r _ZN3msr4fredL16IA32_FRED_CONFIGE
0000000100023710 r _ZN3msr4fred6configL8CSL_MASKE
0000000100023718 r _ZN3msr4fred6configL17RSP_DEC_STEP_MASKE
0000000100023720 r _ZN3msr4fred6configL15INT_STKLVL_MASKE
0000000100023728 r _ZN3msr4fred6configL15ENTRY_PAGE_MASKE
0000000100023730 r _ZN3msrL12IA32_PL0_SSPE
0000000100023734 r _ZN3msr5timerL17IA32_TSC_DEADLINEE
0000000100023738 r _ZN3msr7syscallL16IA32_SYSENTER_CSE
000000010002373c r _ZN3msr7syscallL17IA32_SYSENTER_ESPE
0000000100023740 r _ZN3msr7syscallL17IA32_SYSENTER_EIPE
0000000100023744 r _ZN3msr7syscallL9IA32_STARE
0000000100023748 r _ZN3msr7syscallL10IA32_LSTARE
000000010002374c r _ZN3msr7syscallL10IA32_FMASKE
0000000100023750 r _ZN3msr7syscallL12IA32_FS_BASEE
0000000100023754 r _ZN3msr7syscallL12IA32_GS_BASEE
0000000100023758 r _ZN3msr7syscallL19IA32_KERNEL_GS_BASEE
000000010002375c r _ZN3msr7syscallL12IA32_TSC_AUXE
0000000100023760 r _ZL10empty_kurd
0000000100023768 r _ZN10level_codeL7INVALIDE
0000000100023769 r _ZN10level_codeL4INFOE
000000010002376a r _ZN10level_codeL6NOTICEE
000000010002376b r _ZN10level_codeL7WARNINGE
000000010002376c r _ZN10level_codeL5ERRORE
000000010002376d r _ZN10level_codeL5FATALE
000000010002376e r _ZN11module_codeL7INVALIDE
000000010002376f r _ZN11module_codeL6MEMORYE
0000000100023770 r _ZN11module_codeL9SCHEDULERE
0000000100023771 r _ZN11module_codeL9INTERRUPTE
0000000100023772 r _ZN11module_codeL8FIRMWAREE
0000000100023773 r _ZN11module_codeL3VFSE
0000000100023774 r _ZN11module_codeL3VMME
0000000100023775 r _ZN11module_codeL5INFRAE
0000000100023776 r _ZN11module_codeL6DEVICEE
0000000100023777 r _ZN11module_codeL12DEVICES_COREE
0000000100023778 r _ZN11module_codeL14HARDWARE_DEBUGE
0000000100023779 r _ZN11module_codeL15USER_KERNEL_ABIE
000000010002377a r _ZN11module_codeL4TIMEE
000000010002377b r _ZN11module_codeL5PANICE
000000010002377c r _ZN11result_codeL7SUCCESSE
000000010002377e r _ZN11result_codeL23SUCCESS_BUT_SIDE_EFFECTE
0000000100023780 r _ZN11result_codeL15PARTIAL_SUCCESSE
0000000100023782 r _ZN11result_codeL4FAILE
0000000100023784 r _ZN11result_codeL5RETRYE
0000000100023786 r _ZN11result_codeL5FATALE
0000000100023788 r _ZN10err_domainL7INVALIDE
0000000100023789 r _ZN10err_domainL11CORE_MODULEE
000000010002378a r _ZN10err_domainL4ARCHE
000000010002378b r _ZN10err_domainL4USERE
000000010002378c r _ZN10err_domainL10HYPERVISORE
000000010002378d r _ZN10err_domainL11OUT_MODULESE
000000010002378e r _ZN10err_domainL11FILE_SYSTEME
000000010002378f r _ZN10err_domainL8HARDWAREE
0000000100023790 r _ZL6LOCKED
0000000100023791 r _ZL8UNLOCKED
0000000100023798 r _ZL10PAGE_DIRTY
00000001000237a0 r _ZL11PAGE_LOCKED
00000001000237a8 r _ZL14PAGE_WRITEBACK
00000001000237b0 r _ZL13PAGE_UPTODATE
00000001000237b8 r _ZL13PAGE_SWAPPING
00000001000237c0 r _ZL15PAGE_REFERENCED
00000001000237c8 r _ZL11PAGE_ACTIVE
00000001000237d0 r _ZL12PAGE_RECLAIM
00000001000237d8 r _ZL25MAX_PHYADDR_1GB_PGS_COUNT
00000001000237e0 r _ZL18DEFAULT_PAT_CONFIG
00000001000237e8 r _ZL16KSPACE_RW_ACCESS
00000001000237ea r _ZL17KSPACE_RWX_ACCESS
00000001000237ec r _ZL19KSPACE_RW_UC_ACCESS
00000001000237ee r _ZL16KSPACE_RX_ACCESS
00000001000237f0 r _ZL15KSPACE_R_ACCESS
00000001000237f2 r _ZL20KSPACE_RWX_NG_ACCESS
00000001000237f4 r _ZL19KSPACE_RW_WC_ACCESS
00000001000237f6 r _ZL13default_flags
0000000100023800 r _ZL24BUDDY_ALLOC_DEFAULT_FLAG
0000000100023810 r _ZL22BUDDY_ALLOC_ALWAYS_TRY
0000000100023820 r _ZL20BUDDY_ALLOC_DOWN_4GB
0000000100023830 V _ZTV28BuddyControlBlock_foundation
0000000100023878 r _ZL10empty_kurd
0000000100023880 r _ZN10level_codeL7INVALIDE
0000000100023881 r _ZN10level_codeL4INFOE
0000000100023882 r _ZN10level_codeL6NOTICEE
0000000100023883 r _ZN10level_codeL7WARNINGE
0000000100023884 r _ZN10level_codeL5ERRORE
0000000100023885 r _ZN10level_codeL5FATALE
0000000100023886 r _ZN11module_codeL7INVALIDE
0000000100023887 r _ZN11module_codeL6MEMORYE
0000000100023888 r _ZN11module_codeL9SCHEDULERE
0000000100023889 r _ZN11module_codeL9INTERRUPTE
000000010002388a r _ZN11module_codeL8FIRMWAREE
000000010002388b r _ZN11module_codeL3VFSE
000000010002388c r _ZN11module_codeL3VMME
000000010002388d r _ZN11module_codeL5INFRAE
000000010002388e r _ZN11module_codeL6DEVICEE
000000010002388f r _ZN11module_codeL12DEVICES_COREE
0000000100023890 r _ZN11module_codeL14HARDWARE_DEBUGE
0000000100023891 r _ZN11module_codeL15USER_KERNEL_ABIE
0000000100023892 r _ZN11module_codeL4TIMEE
0000000100023893 r _ZN11module_codeL5PANICE
0000000100023894 r _ZN11result_codeL7SUCCESSE
0000000100023896 r _ZN11result_codeL23SUCCESS_BUT_SIDE_EFFECTE
0000000100023898 r _ZN11result_codeL15PARTIAL_SUCCESSE
000000010002389a r _ZN11result_codeL4FAILE
000000010002389c r _ZN11result_codeL5RETRYE
000000010002389e r _ZN11result_codeL5FATALE
00000001000238a0 r _ZN10err_domainL7INVALIDE
00000001000238a1 r _ZN10err_domainL11CORE_MODULEE
00000001000238a2 r _ZN10err_domainL4ARCHE
00000001000238a3 r _ZN10err_domainL4USERE
00000001000238a4 r _ZN10err_domainL10HYPERVISORE
00000001000238a5 r _ZN10err_domainL11OUT_MODULESE
00000001000238a6 r _ZN10err_domainL11FILE_SYSTEME
00000001000238a7 r _ZN10err_domainL8HARDWAREE
00000001000238c0 r _ZL10empty_kurd
00000001000238c8 r _ZN10level_codeL7INVALIDE
00000001000238c9 r _ZN10level_codeL4INFOE
00000001000238ca r _ZN10level_codeL6NOTICEE
00000001000238cb r _ZN10level_codeL7WARNINGE
00000001000238cc r _ZN10level_codeL5ERRORE
00000001000238cd r _ZN10level_codeL5FATALE
00000001000238ce r _ZN11module_codeL7INVALIDE
00000001000238cf r _ZN11module_codeL6MEMORYE
00000001000238d0 r _ZN11module_codeL9SCHEDULERE
00000001000238d1 r _ZN11module_codeL9INTERRUPTE
00000001000238d2 r _ZN11module_codeL8FIRMWAREE
00000001000238d3 r _ZN11module_codeL3VFSE
00000001000238d4 r _ZN11module_codeL3VMME
00000001000238d5 r _ZN11module_codeL5INFRAE
00000001000238d6 r _ZN11module_codeL6DEVICEE
00000001000238d7 r _ZN11module_codeL12DEVICES_COREE
00000001000238d8 r _ZN11module_codeL14HARDWARE_DEBUGE
00000001000238d9 r _ZN11module_codeL15USER_KERNEL_ABIE
00000001000238da r _ZN11module_codeL4TIMEE
00000001000238db r _ZN11module_codeL5PANICE
00000001000238dc r _ZN11result_codeL7SUCCESSE
00000001000238de r _ZN11result_codeL23SUCCESS_BUT_SIDE_EFFECTE
00000001000238e0 r _ZN11result_codeL15PARTIAL_SUCCESSE
00000001000238e2 r _ZN11result_codeL4FAILE
00000001000238e4 r _ZN11result_codeL5RETRYE
00000001000238e6 r _ZN11result_codeL5FATALE
00000001000238e8 r _ZN10err_domainL7INVALIDE
00000001000238e9 r _ZN10err_domainL11CORE_MODULEE
00000001000238ea r _ZN10err_domainL4ARCHE
00000001000238eb r _ZN10err_domainL4USERE
00000001000238ec r _ZN10err_domainL10HYPERVISORE
00000001000238ed r _ZN10err_domainL11OUT_MODULESE
00000001000238ee r _ZN10err_domainL11FILE_SYSTEME
00000001000238ef r _ZN10err_domainL8HARDWAREE
00000001000238f0 r _ZL6LOCKED
00000001000238f1 r _ZL8UNLOCKED
00000001000238f8 r _ZL10PAGE_DIRTY
0000000100023900 r _ZL11PAGE_LOCKED
0000000100023908 r _ZL14PAGE_WRITEBACK
0000000100023910 r _ZL13PAGE_UPTODATE
0000000100023918 r _ZL13PAGE_SWAPPING
0000000100023920 r _ZL15PAGE_REFERENCED
0000000100023928 r _ZL11PAGE_ACTIVE
0000000100023930 r _ZL12PAGE_RECLAIM
0000000100023938 r _ZL25MAX_PHYADDR_1GB_PGS_COUNT
0000000100023940 r _ZL18DEFAULT_PAT_CONFIG
0000000100023948 r _ZL16KSPACE_RW_ACCESS
000000010002394a r _ZL17KSPACE_RWX_ACCESS
000000010002394c r _ZL19KSPACE_RW_UC_ACCESS
000000010002394e r _ZL16KSPACE_RX_ACCESS
0000000100023950 r _ZL15KSPACE_R_ACCESS
0000000100023952 r _ZL20KSPACE_RWX_NG_ACCESS
0000000100023954 r _ZL19KSPACE_RW_WC_ACCESS
0000000100023956 r _ZL13default_flags
0000000100023960 r _ZL24BUDDY_ALLOC_DEFAULT_FLAG
0000000100023970 r _ZL22BUDDY_ALLOC_ALWAYS_TRY
0000000100023980 r _ZL20BUDDY_ALLOC_DOWN_4GB
0000000100023990 r _ZL33PASS_THROUGH_DEVICE_GRAPHICS_INFO
0000000100023994 r _ZL32VM_ID_architecture_agnostic_base
0000000100023998 r _ZL20VM_ID_BSP_INIT_STACK
00000001000239a0 r _ZL19BSP_INIT_STACK_SIZE
00000001000239a8 r _ZL25BSP_INIT_STACK_ALIGN_LOG2
00000001000239ac r _ZL16VM_ID_FIRST_HEAP
00000001000239b0 r _ZL21FIRST_HEAP_SIZE_CONST
00000001000239b8 r _ZL21FIRST_HEAP_ALIGN_LOG2
00000001000239bc r _ZL23VM_ID_FIRST_HEAP_BITMAP
00000001000239c0 r _ZL22FIRST_HEAP_BITMAP_SIZE
00000001000239c8 r _ZL28FIRST_HEAP_BITMAP_ALIGN_LOG2
00000001000239cc r _ZL15VM_ID_LOGBUFFER
00000001000239d0 r _ZL14LOGBUFFER_SIZE
00000001000239d8 r _ZL20LOGBUFFER_ALIGN_LOG2
00000001000239dc r _ZL14VM_ID_KSYMBOLS
00000001000239e0 r _ZL13VM_ID_MEM_MAP
00000001000239e4 r _ZL18VM_ID_BCBS_BITMAPS
00000001000239e8 r _ZL18MEM_MAP_ALIGN_LOG2
00000001000239ec r _ZL20VM_ID_UP_KSPACE_PDPT
00000001000239f0 r _ZL20VM_ID_GRAPHIC_BUFFER
00000001000239f8 r _ZL19UP_KSPACE_PDPT_SIZE
0000000100023a00 r _ZL25UP_KSPACE_PDPT_ALIGN_LOG2
0000000100023a04 r _ZL15VM_ID_HPET_MMIO
0000000100023a08 r _ZN23COREHARDWARES_LOCATIONSL27LOCATION_CODE_GOP_PRIMITIVEE
0000000100023a09 r _ZN23COREHARDWARES_LOCATIONS28GOP_PRIMITIVE_DRIVERS_EVENTSL4INITE
0000000100023a0a r _ZN23COREHARDWARES_LOCATIONS28GOP_PRIMITIVE_DRIVERS_EVENTS12INIT_RESULTS12FAIL_REASONSL21PARAM_METAINF_NULLPTRE
0000000100023a0c r _ZN23COREHARDWARES_LOCATIONS28GOP_PRIMITIVE_DRIVERS_EVENTS12INIT_RESULTS12FAIL_REASONSL9BAD_PARAME
0000000100023a0e r _ZN23COREHARDWARES_LOCATIONS28GOP_PRIMITIVE_DRIVERS_EVENTS12INIT_RESULTS12FAIL_REASONSL13ALLREADE_INITE
0000000100023a10 r _ZN23COREHARDWARES_LOCATIONSL22LOCATION_CODE_INIT_GOPE
0000000100023a11 r _ZN23COREHARDWARES_LOCATIONS15INIT_GOP_EVENTSL4INITE
0000000100023a12 r _ZN23COREHARDWARES_LOCATIONS15INIT_GOP_EVENTS12INIT_RESULTS12FAIL_REASONSL21PARAM_METAINF_NULLPTRE
0000000100023a14 r _ZN23COREHARDWARES_LOCATIONS15INIT_GOP_EVENTS12INIT_RESULTS12FAIL_REASONSL9BAD_PARAME
0000000100023a16 r _ZN23COREHARDWARES_LOCATIONS15INIT_GOP_EVENTS12INIT_RESULTS12FAIL_REASONSL13ALLREADE_INITE
0000000100023a18 r _ZN23COREHARDWARES_LOCATIONS15INIT_GOP_EVENTS12INIT_RESULTS12FAIL_REASONSL20MODIFY_ACCESS_FAILEDE
0000000100023a20 r _ZL15PAGE_SIZE_IN_LV
0000000100023a60 r _ZL16PAGE_OFFSET_MASK
0000000100023a88 r _ZL17Max_huge_pg_index
0000000100023a90 r _ZN22lineaddr_index_filtersL17PT_INDEX_MASK_lv0E
0000000100023a98 r _ZN22lineaddr_index_filtersL17PD_INDEX_MASK_lv1E
0000000100023aa0 r _ZN22lineaddr_index_filtersL19PDPT_INDEX_MASK_lv2E
0000000100023aa8 r _ZN22lineaddr_index_filtersL19PML4_INDEX_MASK_lv3E
0000000100023ab0 r _ZN22lineaddr_index_filtersL19PML5_INDEX_MASK_lv4E
0000000100023ab8 r _ZL15PHYS_ADDR_WIDTH
0000000100023ac0 r _ZL14PHYS_ADDR_MASK
0000000100023ac8 r _ZN14PageTableEntryL5P_BITE
0000000100023ad0 r _ZN14PageTableEntryL6RW_BITE
0000000100023ad8 r _ZN14PageTableEntryL6US_BITE
0000000100023ae0 r _ZN14PageTableEntryL7PWT_BITE
0000000100023ae8 r _ZN14PageTableEntryL7PCD_BITE
0000000100023af0 r _ZN14PageTableEntryL5A_BITE
0000000100023af8 r _ZN14PageTableEntryL6XD_BITE
0000000100023b00 r _ZN14PageTableEntryL6P_MASKE
0000000100023b08 r _ZN14PageTableEntryL7RW_MASKE
0000000100023b10 r _ZN14PageTableEntryL7US_MASKE
0000000100023b18 r _ZN14PageTableEntryL8PWT_MASKE
0000000100023b20 r _ZN14PageTableEntryL8PCD_MASKE
0000000100023b28 r _ZN14PageTableEntryL6A_MASKE
0000000100023b30 r _ZN14PageTableEntryL7XD_MASKE
0000000100023b38 r _ZN5PML5EL5R_BITE
0000000100023b40 r _ZN5PML5EL6PS_BITE
0000000100023b48 r _ZN5PML5EL6R_MASKE
0000000100023b50 r _ZN5PML5EL7PS_MASKE
0000000100023b58 r _ZN5PML5EL11ADDR_OFFSETE
0000000100023b60 r _ZN5PML5EL9ADDR_BITSE
0000000100023b68 r _ZN5PML5EL9ADDR_MASKE
0000000100023b70 r _ZN5PML4EL5R_BITE
0000000100023b78 r _ZN5PML4EL6PS_BITE
0000000100023b80 r _ZN5PML4EL6R_MASKE
0000000100023b88 r _ZN5PML4EL7PS_MASKE
0000000100023b90 r _ZN5PML4EL11ADDR_OFFSETE
0000000100023b98 r _ZN5PML4EL9ADDR_BITSE
0000000100023ba0 r _ZN5PML4EL9ADDR_MASKE
0000000100023ba8 r _ZN5PDPTEL5D_BITE
0000000100023bb0 r _ZN5PDPTEL6PS_BITE
0000000100023bb8 r _ZN5PDPTEL5G_BITE
0000000100023bc0 r _ZN5PDPTEL5R_BITE
0000000100023bc8 r _ZN5PDPTEL7PAT_BITE
0000000100023bd0 r _ZN5PDPTEL7PK_BITSE
0000000100023bd8 r _ZN5PDPTEL6D_MASKE
0000000100023be0 r _ZN5PDPTEL7PS_MASKE
0000000100023be8 r _ZN5PDPTEL6G_MASKE
0000000100023bf0 r _ZN5PDPTEL6R_MASKE
0000000100023bf8 r _ZN5PDPTEL8PAT_MASKE
0000000100023c00 r _ZN5PDPTEL7PK_MASKE
0000000100023c08 r _ZN5PDPTEL14ADDR_PD_OFFSETE
0000000100023c10 r _ZN5PDPTEL12ADDR_PD_BITSE
0000000100023c18 r _ZN5PDPTEL12ADDR_PD_MASKE
0000000100023c20 r _ZN5PDPTEL15ADDR_1GB_OFFSETE
0000000100023c28 r _ZN5PDPTEL13ADDR_1GB_BITSE
0000000100023c30 r _ZN5PDPTEL13ADDR_1GB_MASKE
0000000100023c38 r _ZN3PDEL5D_BITE
0000000100023c40 r _ZN3PDEL6PS_BITE
0000000100023c48 r _ZN3PDEL5G_BITE
0000000100023c50 r _ZN3PDEL5R_BITE
0000000100023c58 r _ZN3PDEL7PAT_BITE
0000000100023c60 r _ZN3PDEL7PK_BITSE
0000000100023c68 r _ZN3PDEL6D_MASKE
0000000100023c70 r _ZN3PDEL7PS_MASKE
0000000100023c78 r _ZN3PDEL6G_MASKE
0000000100023c80 r _ZN3PDEL6R_MASKE
0000000100023c88 r _ZN3PDEL8PAT_MASKE
0000000100023c90 r _ZN3PDEL7PK_MASKE
0000000100023c98 r _ZN3PDEL14ADDR_PT_OFFSETE
0000000100023ca0 r _ZN3PDEL12ADDR_PT_BITSE
0000000100023ca8 r _ZN3PDEL12ADDR_PT_MASKE
0000000100023cb0 r _ZN3PDEL15ADDR_2MB_OFFSETE
0000000100023cb8 r _ZN3PDEL13ADDR_2MB_BITSE
0000000100023cc0 r _ZN3PDEL13ADDR_2MB_MASKE
0000000100023cc8 r _ZN3PTEL5D_BITE
0000000100023cd0 r _ZN3PTEL7PAT_BITE
0000000100023cd8 r _ZN3PTEL5G_BITE
0000000100023ce0 r _ZN3PTEL5R_BITE
0000000100023ce8 r _ZN3PTEL7PK_BITSE
0000000100023cf0 r _ZN3PTEL6D_MASKE
0000000100023cf8 r _ZN3PTEL8PAT_MASKE
0000000100023d00 r _ZN3PTEL6G_MASKE
0000000100023d08 r _ZN3PTEL6R_MASKE
0000000100023d10 r _ZN3PTEL7PK_MASKE
0000000100023d18 r _ZN3PTEL11ADDR_OFFSETE
0000000100023d20 r _ZN3PTEL9ADDR_BITSE
0000000100023d28 r _ZN3PTEL9ADDR_MASKE
0000000100023d30 r _ZL13ENTRY_PRESENT
0000000100023d31 r _ZL17ENTRY_PRESENT_NOT
0000000100023d32 r _ZL17RWBIT_WRITE_ALLOW
0000000100023d33 r _ZL21RWBIT_WRITE_ALLOW_NOT
0000000100023d34 r _ZL16KERNE_BIT_KERNEL
0000000100023d35 r _ZL20KERNE_BIT_KERNEL_NOT
0000000100023d36 r _ZL17XD_BIT_EXECUTABLE
0000000100023d37 r _ZL21XD_BIT_EXECUTABLE_NOT
0000000100023d38 r _ZL20MAX_PROCESSORS_COUNT
0000000100023d3c r _ZN18MEMMODULE_LOCAIONSL7INVALIDE
0000000100023d3d r _ZN18MEMMODULE_LOCAIONSL25LOCATION_CODE_BASE_MEMMGRE
0000000100023d3e r _ZN18MEMMODULE_LOCAIONSL29LOCATION_CODE_PHYMEM_ACCESSORE
0000000100023d3f r _ZN18MEMMODULE_LOCAIONSL28LOCATION_CODE_KSPACE_MAP_MGRE
0000000100023d40 r _ZN18MEMMODULE_LOCAIONSL25LOCATION_CODE_ADDRESSPACEE
0000000100023d41 r _ZN18MEMMODULE_LOCAIONSL26LOCATION_CODE_OUT_SURFACESE
0000000100023d42 r _ZN18MEMMODULE_LOCAIONSL25LOCATION_CODE_KPOOLMEMMGRE
0000000100023d43 r _ZN18MEMMODULE_LOCAIONS18KPOOLMEMMGR_EVENTSL15EVENT_CODE_INITE
0000000100023d44 r _ZN18MEMMODULE_LOCAIONS18KPOOLMEMMGR_EVENTSL16EVENT_CODE_ALLOCE
0000000100023d46 r _ZN18MEMMODULE_LOCAIONS18KPOOLMEMMGR_EVENTS13ALLOC_RESULTS11FAIL_RESONSL28REASON_CODE_NO_AVALIABLE_MEME
0000000100023d48 r _ZN18MEMMODULE_LOCAIONS18KPOOLMEMMGR_EVENTS13ALLOC_RESULTS11FAIL_RESONSL24REASON_CODE_SIZE_IS_ZEROE
0000000100023d4a r _ZN18MEMMODULE_LOCAIONS18KPOOLMEMMGR_EVENTSL18EVENT_CODE_REALLOCE
0000000100023d4c r _ZN18MEMMODULE_LOCAIONS18KPOOLMEMMGR_EVENTS15REALLOC_RESULTS11FAIL_RESONSL31REASON_CODE_DEMAND_SIZE_IS_ZEROE
0000000100023d4e r _ZN18MEMMODULE_LOCAIONS18KPOOLMEMMGR_EVENTS15REALLOC_RESULTS11FAIL_RESONSL31REASON_CODE_PTR_NOT_IN_ANY_HEAPE
0000000100023d50 r _ZN18MEMMODULE_LOCAIONS18KPOOLMEMMGR_EVENTS15REALLOC_RESULTS11FAIL_RESONSL28REASON_CODE_NO_AVALIABLE_MEME
0000000100023d52 r _ZN18MEMMODULE_LOCAIONS18KPOOLMEMMGR_EVENTSL34EVENT_CODE_PER_PROCESSOR_HEAP_INITE
0000000100023d54 r _ZN18MEMMODULE_LOCAIONS18KPOOLMEMMGR_EVENTS31PER_PROCESSOR_HEAP_INIT_RESULTS11FAIL_RESONSL27REASON_CODE_ALREADY_ENABLEDE
0000000100023d56 r _ZN18MEMMODULE_LOCAIONS18KPOOLMEMMGR_EVENTS31PER_PROCESSOR_HEAP_INIT_RESULTS11FAIL_RESONSL31REASON_CODE_BAD_PROCESSOR_COUNTE
0000000100023d58 r _ZN18MEMMODULE_LOCAIONS18KPOOLMEMMGR_EVENTS31PER_PROCESSOR_HEAP_INIT_RESULTS11FAIL_RESONSL26REASON_CODE_NO_VADDR_SPACEE
0000000100023d5a r _ZN18MEMMODULE_LOCAIONS18KPOOLMEMMGR_EVENTS31PER_PROCESSOR_HEAP_INIT_RESULTS11FAIL_RESONSL23REASON_CODE_VM_ADD_FAILE
0000000100023d5c r _ZN18MEMMODULE_LOCAIONS18KPOOLMEMMGR_EVENTS31PER_PROCESSOR_HEAP_INIT_RESULTS11FAIL_RESONSL28REASON_CODE_IDX_OUT_OF_RANGEE
0000000100023d5e r _ZN18MEMMODULE_LOCAIONS18KPOOLMEMMGR_EVENTS31PER_PROCESSOR_HEAP_INIT_RESULTS11FAIL_RESONSL31REASON_CODE_HEAP_ALREADY_EXISTSE
0000000100023d60 r _ZN18MEMMODULE_LOCAIONS18KPOOLMEMMGR_EVENTS31PER_PROCESSOR_HEAP_INIT_RESULTS11FAIL_RESONSL26REASON_CODE_HEAP_NOT_EXISTE
0000000100023d62 r _ZN18MEMMODULE_LOCAIONSL32LOCATION_CODE_KPOOLMEMMGR_HCB_V3E
0000000100023d63 r _ZN18MEMMODULE_LOCAIONS25KPOOLMEMMGR_HCB_V3_EVENTSL17EVENT_CODE_ONLINEE
0000000100023d64 r _ZN18MEMMODULE_LOCAIONS25KPOOLMEMMGR_HCB_V3_EVENTSL18EVENT_CODE_OFFLINEE
0000000100023d65 r _ZN18MEMMODULE_LOCAIONS25KPOOLMEMMGR_HCB_V3_EVENTSL16EVENT_CODE_ALLOCE
0000000100023d66 r _ZN18MEMMODULE_LOCAIONS25KPOOLMEMMGR_HCB_V3_EVENTSL15EVENT_CODE_FREEE
0000000100023d67 r _ZN18MEMMODULE_LOCAIONS25KPOOLMEMMGR_HCB_V3_EVENTSL18EVENT_CODE_REALLOCE
0000000100023d68 r _ZN18MEMMODULE_LOCAIONS25KPOOLMEMMGR_HCB_V3_EVENTSL25EVENT_CODE_INTERNAL_ALLOCE
0000000100023d69 r _ZN18MEMMODULE_LOCAIONS25KPOOLMEMMGR_HCB_V3_EVENTSL24EVENT_CODE_INTERNAL_FREEE
0000000100023d6a r _ZN18MEMMODULE_LOCAIONS25KPOOLMEMMGR_HCB_V3_EVENTSL16EVENT_CODE_CLEARE
0000000100023d6c r _ZN18MEMMODULE_LOCAIONS25KPOOLMEMMGR_HCB_V3_EVENTS19COMMON_FAIL_REASONSL20REASON_CODE_BAD_ADDRE
0000000100023d6e r _ZN18MEMMODULE_LOCAIONS25KPOOLMEMMGR_HCB_V3_EVENTS19COMMON_FAIL_REASONSL30REASON_CODE_ADDR_NOT_THIS_HEAPE
0000000100023d70 r _ZN18MEMMODULE_LOCAIONS25KPOOLMEMMGR_HCB_V3_EVENTS20COMMON_FATAL_REASONSL30REASON_CODE_METADATA_DESTROYEDE
0000000100023d72 r _ZN18MEMMODULE_LOCAIONS25KPOOLMEMMGR_HCB_V3_EVENTS22INTERNAL_ALLOC_RESULTS11FAIL_RESONSL30REASON_CODE_NO_AVALIABLE_BUDDYE
0000000100023d74 r _ZN18MEMMODULE_LOCAIONS25KPOOLMEMMGR_HCB_V3_EVENTS13ALLOC_RESULTS12FAIL_REASONSL24REASON_CODE_SIZE_IS_ZEROE
0000000100023d76 r _ZN18MEMMODULE_LOCAIONS25KPOOLMEMMGR_HCB_V3_EVENTS13ALLOC_RESULTS12FAIL_REASONSL26REASON_CODE_SIZE_TOO_LARGEE
0000000100023d78 r _ZN18MEMMODULE_LOCAIONS25KPOOLMEMMGR_HCB_V3_EVENTS12FREE_RESULTS13FATAL_REASONSL18DOUBLE_FREE_DETECTE
0000000100023d7a r _ZN18MEMMODULE_LOCAIONS25KPOOLMEMMGR_HCB_V3_EVENTS12FREE_RESULTS13FATAL_REASONSL22MERGE_BUT_ALREADY_FREEE
0000000100023d80 r _ZL14HCB_evict_span
0000000100023d88 r _ZL23HCB_evictor_sleep_cycle
0000000100023d90 r _ZN13PAGE_TBALE_LVL4LV_4E
0000000100023d91 r _ZN13PAGE_TBALE_LVL4LV_5E
0000000100023d92 r _ZL17KERNEL_SPACE_PCID
0000000100023d94 r _ZN18MEMMODULE_LOCAIONS18ADDRESSPACE_EVENTSL15EVENT_CODE_INITE
0000000100023d95 r _ZN18MEMMODULE_LOCAIONS18ADDRESSPACE_EVENTSL25EVENT_CODE_ENABLE_VMENTRYE
0000000100023d96 r _ZN18MEMMODULE_LOCAIONS18ADDRESSPACE_EVENTSL26EVENT_CODE_DISABLE_VMENTRYE
0000000100023d97 r _ZN18MEMMODULE_LOCAIONS18ADDRESSPACE_EVENTSL22EVENT_CODE_TRAN_TO_PHYE
0000000100023d98 r _ZN18MEMMODULE_LOCAIONS18ADDRESSPACE_EVENTSL25EVENT_CODE_INVALIDATE_TLBE
0000000100023d99 r _ZN18MEMMODULE_LOCAIONS18ADDRESSPACE_EVENTSL51EVENT_CODE_BUILD_INDENTITY_MAP_ONLY_ON_gKERNELSPACEE
0000000100023d9a r _ZN18MEMMODULE_LOCAIONS18ADDRESSPACE_EVENTSL19EVENT_CODE_UNREGISTE
0000000100023d9c r _ZN18MEMMODULE_LOCAIONS18ADDRESSPACE_EVENTS22ENABLE_VMENTRY_RESULTS12FAIL_REASONSL40REASON_CODE_VMENTRY_congruence_vlidationE
0000000100023d9e r _ZN18MEMMODULE_LOCAIONS18ADDRESSPACE_EVENTS22ENABLE_VMENTRY_RESULTS12FAIL_REASONSL23REASON_CODE_BAD_VMENTRYE
0000000100023da0 r _ZN18MEMMODULE_LOCAIONS18ADDRESSPACE_EVENTS22ENABLE_VMENTRY_RESULTS12FAIL_REASONSL34REASON_CODE_BAD_VMENTRY_CANT_SPLITE
0000000100023da2 r _ZN18MEMMODULE_LOCAIONS18ADDRESSPACE_EVENTS22ENABLE_VMENTRY_RESULTS12FAIL_REASONSL34REASON_CODE_NOT_SUPPORT_LV5_PAGINGE
0000000100023da4 r _ZN18MEMMODULE_LOCAIONS18ADDRESSPACE_EVENTS22ENABLE_VMENTRY_RESULTS13FATAL_REASONSL44REASON_CODE_TRY_TO_GET_SUB_PAGE_IN_ATOM_PAGEE
0000000100023da6 r _ZN18MEMMODULE_LOCAIONS18ADDRESSPACE_EVENTS22ENABLE_VMENTRY_RESULTS13FATAL_REASONSL26REASON_CODE_PAGES_SET_FALTE
0000000100023da8 r _ZN18MEMMODULE_LOCAIONS18ADDRESSPACE_EVENTS22ENABLE_VMENTRY_RESULTS13FATAL_REASONSL29REASON_CODE_INVALID_PAGE_SIZEE
0000000100023daa r _ZN18MEMMODULE_LOCAIONS18ADDRESSPACE_EVENTS22ENABLE_VMENTRY_RESULTS24SUCCESS_BUT_SIDE_AFFECTSL23REASON_CODE_MAP_LOW_16KE
0000000100023dac r _ZN18MEMMODULE_LOCAIONS18ADDRESSPACE_EVENTS24TRAN_TO_PHY_RESULTS_CODE12FAIL_REASONSL31REASON_CODE_NOT_ALLOW_KSPACE_VAE
0000000100023dae r _ZN18MEMMODULE_LOCAIONS18ADDRESSPACE_EVENTS24TRAN_TO_PHY_RESULTS_CODE12FAIL_REASONSL29REASON_CODE_NOT_PRESENT_ENTRYE
0000000100023db0 r _ZN18MEMMODULE_LOCAIONS18ADDRESSPACE_EVENTS24TRAN_TO_PHY_RESULTS_CODE12FAIL_REASONSL34REASON_CODE_NOT_SUPPORT_LV5_PAGINGE
0000000100023db2 r _ZN18MEMMODULE_LOCAIONS18ADDRESSPACE_EVENTS23DISABLE_VMENTRY_RESULTS12FAIL_REASONSL35REASON_CODE_INVALID_PAGETABLE_ENTRYE
0000000100023db4 r _ZN18MEMMODULE_LOCAIONS18ADDRESSPACE_EVENTS23DISABLE_VMENTRY_RESULTS12FAIL_REASONSL63REASON_CODE_BAD_VMENTRY_TRY_TO_MAP_LOW_MEM_WHO_NOT_gKernelSpaceE
0000000100023db6 r _ZN18MEMMODULE_LOCAIONS18ADDRESSPACE_EVENTS23DISABLE_VMENTRY_RESULTS12FAIL_REASONSL23REASON_CODE_BAD_VMENTRYE
0000000100023db8 r _ZN18MEMMODULE_LOCAIONS18ADDRESSPACE_EVENTS23DISABLE_VMENTRY_RESULTS12FAIL_REASONSL34REASON_CODE_BAD_VMENTRY_CANT_SPLITE
0000000100023dba r _ZN18MEMMODULE_LOCAIONS18ADDRESSPACE_EVENTS23DISABLE_VMENTRY_RESULTS12FAIL_REASONSL34REASON_CODE_NOT_SUPPORT_LV5_PAGINGE
0000000100023dbc r _ZN18MEMMODULE_LOCAIONS18ADDRESSPACE_EVENTS23DISABLE_VMENTRY_RESULTS13FATAL_REASONSL44REASON_CODE_TRY_TO_GET_SUB_PAGE_IN_ATOM_PAGEE
0000000100023dbe r _ZN18MEMMODULE_LOCAIONS18ADDRESSPACE_EVENTS23DISABLE_VMENTRY_RESULTS13FATAL_REASONSL26REASON_CODE_PAGES_SET_FALTE
0000000100023dc0 r _ZN18MEMMODULE_LOCAIONS18ADDRESSPACE_EVENTS23DISABLE_VMENTRY_RESULTS13FATAL_REASONSL29REASON_CODE_INVALID_PAGE_SIZEE
0000000100023dc2 r _ZN18MEMMODULE_LOCAIONS18ADDRESSPACE_EVENTS23DISABLE_VMENTRY_RESULTS13FATAL_REASONSL51REASON_CODE_TRY_TO_GET_SUB_PAGE_OF_NOT_PRESENT_PAGEE
0000000100023dc4 r _ZN18MEMMODULE_LOCAIONS18ADDRESSPACE_EVENTS23DISABLE_VMENTRY_RESULTS13FATAL_REASONSL39REASON_CODE_TRY_TO_CLEAR_UNPRESENT_PAGEE
0000000100023dc6 r _ZN18MEMMODULE_LOCAIONS18ADDRESSPACE_EVENTS23DISABLE_VMENTRY_RESULTS13FATAL_REASONSL61REASON_CODE_CONSISTENCY_VIOLATION_WHEN_CLEAR_PAGE_TABLE_ENTRYE
0000000100023dc8 r _ZN18MEMMODULE_LOCAIONS18ADDRESSPACE_EVENTS23DISABLE_VMENTRY_RESULTS13FATAL_REASONSL33REASON_CODE_OTHER_PAGES_SET_FATALE
0000000100023dca r _ZN18MEMMODULE_LOCAIONS18ADDRESSPACE_EVENTS22INVALIDATE_TLB_RESULTS12FAIL_REASONSL24REASON_CODE_BAD_VM_ENTRYE
0000000100023dcc r _ZN18MEMMODULE_LOCAIONS18ADDRESSPACE_EVENTS22INVALIDATE_TLB_RESULTS13FATAL_REASONSL29REASON_CODE_INVALID_PAGE_SIZEE
0000000100023dce r _ZN18MEMMODULE_LOCAIONS18ADDRESSPACE_EVENTS40BUILD_INDENTITY_MAP_ONLY_ON_gKERNELSPACE12FAIL_REASONSL28REASON_CODE_NOT_gKERNELSPACEE
0000000100023dd0 r _ZN18MEMMODULE_LOCAIONSL43LOCATION_CODE_KSPACE_MAP_MGR_VMENTRY_RBTREEE
0000000100023dd1 r _ZN18MEMMODULE_LOCAIONS20KSPACE_MAPPER_EVENTSL15EVENT_CODE_INITE
0000000100023dd2 r _ZN18MEMMODULE_LOCAIONS20KSPACE_MAPPER_EVENTS12INIT_RESULTS12FAIL_REASONSL31USER_TEST_KERNEL_IMAGE_SET_FAILE
0000000100023dd4 r _ZN18MEMMODULE_LOCAIONS20KSPACE_MAPPER_EVENTS12INIT_RESULTS12FAIL_REASONSL36USER_TEST_KERNEL_IMAGE_BAD_ELF_MAGICE
0000000100023dd6 r _ZN18MEMMODULE_LOCAIONS20KSPACE_MAPPER_EVENTSL25EVENT_CODE_ENABLE_VMENTRYE
0000000100023dd7 r _ZN18MEMMODULE_LOCAIONS20KSPACE_MAPPER_EVENTSL26EVENT_CODE_DISABLE_VMENTRYE
0000000100023dd8 r _ZN18MEMMODULE_LOCAIONS20KSPACE_MAPPER_EVENTSL28EVENT_CODE_TRAN_TO_PHY_ENTRYE
0000000100023dda r _ZN18MEMMODULE_LOCAIONS20KSPACE_MAPPER_EVENTS30TRAN_TO_PHY_ENTRY_RESULTS_CODE12FAIL_REASONSL29REASON_CODE_NOT_PRESENT_ENTRYE
0000000100023ddc r _ZN18MEMMODULE_LOCAIONS20KSPACE_MAPPER_EVENTS30TRAN_TO_PHY_ENTRY_RESULTS_CODE12FAIL_REASONSL34REASON_CODE_NOT_SUPPORT_LV5_PAGINGE
0000000100023dde r _ZN18MEMMODULE_LOCAIONS20KSPACE_MAPPER_EVENTS30TRAN_TO_PHY_ENTRY_RESULTS_CODE13FATAL_REASONSL28REASON_CODE_UNREACHABLE_CODEE
0000000100023de0 r _ZN18MEMMODULE_LOCAIONS20KSPACE_MAPPER_EVENTSL25EVENT_CODE_INVALIDATE_TLBE
0000000100023de2 r _ZN18MEMMODULE_LOCAIONS20KSPACE_MAPPER_EVENTS22INVALIDATE_TLB_RESULTS12FAIL_REASONSL35SHARED_INFO_PACKAGE_NOT_INITILAIZEDE
0000000100023de4 r _ZN18MEMMODULE_LOCAIONS20KSPACE_MAPPER_EVENTSL19EVENT_CODE_UNREGISTE
0000000100023de6 r _ZN18MEMMODULE_LOCAIONS20KSPACE_MAPPER_EVENTS22ENABLE_VMENTRY_RESULTS12FAIL_REASONSL40REASON_CODE_VMENTRY_congruence_vlidationE
0000000100023de8 r _ZN18MEMMODULE_LOCAIONS20KSPACE_MAPPER_EVENTS22ENABLE_VMENTRY_RESULTS12FAIL_REASONSL23REASON_CODE_BAD_VMENTRYE
0000000100023dea r _ZN18MEMMODULE_LOCAIONS20KSPACE_MAPPER_EVENTS22ENABLE_VMENTRY_RESULTS12FAIL_REASONSL34REASON_CODE_NOT_SUPPORT_LV5_PAGINGE
0000000100023dec r _ZN18MEMMODULE_LOCAIONS20KSPACE_MAPPER_EVENTS22ENABLE_VMENTRY_RESULTS13FATAL_REASONSL31REASON_CODE_INVALIDE_PAGES_SIZEE
0000000100023dee r _ZN18MEMMODULE_LOCAIONS20KSPACE_MAPPER_EVENTS23DISABLE_VMENTRY_RESULTS12FAIL_REASONSL23REASON_CODE_BAD_VMENTRYE
0000000100023df0 r _ZN18MEMMODULE_LOCAIONS20KSPACE_MAPPER_EVENTS23DISABLE_VMENTRY_RESULTS13FATAL_REASONSL31REASON_CODE_INVALIDE_PAGES_SIZEE
0000000100023df2 r _ZN18MEMMODULE_LOCAIONS20KSPACE_MAPPER_EVENTS23DISABLE_VMENTRY_RESULTS13FATAL_REASONSL42REASON_CODE_BROADCAST_TLB_SHUTDOWN_TIMEOUTE
0000000100023df4 r _ZN18MEMMODULE_LOCAIONS20KSPACE_MAPPER_EVENTS23DISABLE_VMENTRY_RESULTS13FATAL_REASONSL36REASON_CODE_INVALID_CONGRUENCE_LEVELE
0000000100023df6 r _ZN18MEMMODULE_LOCAIONS20KSPACE_MAPPER_EVENTS22INVALIDATE_TLB_RESULTS12FAIL_REASONSL24REASON_CODE_BAD_VM_ENTRYE
0000000100023df8 r _ZN18MEMMODULE_LOCAIONS20KSPACE_MAPPER_EVENTS22INVALIDATE_TLB_RESULTS13FATAL_REASONSL29REASON_CODE_INVALID_PAGE_SIZEE
0000000100023dfa r _ZN18MEMMODULE_LOCAIONS20KSPACE_MAPPER_EVENTS40BUILD_INDENTITY_MAP_ONLY_ON_gKERNELSPACE12FAIL_REASONSL28REASON_CODE_NOT_gKERNELSPACEE
0000000100023dfc r _ZN18MEMMODULE_LOCAIONS20KSPACE_MAPPER_EVENTSL20EVENT_CODE_PAGES_SETE
0000000100023dfe r _ZN18MEMMODULE_LOCAIONS20KSPACE_MAPPER_EVENTS22PAGES_SET_RESULTS_CODE12FAIL_REASONSL21REASON_CODE_BAD_COUNTE
0000000100023e00 r _ZN18MEMMODULE_LOCAIONS20KSPACE_MAPPER_EVENTS22PAGES_SET_RESULTS_CODE12FAIL_REASONSL44REASON_CODE_COUNT_AND_BASEINDEX_OUT_OF_RANGEE
0000000100023e02 r _ZN18MEMMODULE_LOCAIONS20KSPACE_MAPPER_EVENTS22PAGES_SET_RESULTS_CODE12FAIL_REASONSL28REASON_CODE_BASE_NOT_ALIGNEDE
0000000100023e04 r _ZN18MEMMODULE_LOCAIONS20KSPACE_MAPPER_EVENTS22PAGES_SET_RESULTS_CODE13FATAL_REASONSL35REASON_CODE_HUGE_PDPTE_WHEN_GET_SUBE
0000000100023e06 r _ZN18MEMMODULE_LOCAIONS20KSPACE_MAPPER_EVENTS22PAGES_SET_RESULTS_CODE13FATAL_REASONSL33REASON_CODE_HUGE_PDE_WHEN_GET_SUBE
0000000100023e08 r _ZN18MEMMODULE_LOCAIONS20KSPACE_MAPPER_EVENTSL22EVENT_CODE_PAGES_CLEARE
0000000100023e0a r _ZN18MEMMODULE_LOCAIONS20KSPACE_MAPPER_EVENTS24PAGES_CLEAR_RESULTS_CODE12FAIL_REASONSL21REASON_CODE_BAD_COUNTE
0000000100023e0c r _ZN18MEMMODULE_LOCAIONS20KSPACE_MAPPER_EVENTS24PAGES_CLEAR_RESULTS_CODE12FAIL_REASONSL44REASON_CODE_COUNT_AND_BASEINDEX_OUT_OF_RANGEE
0000000100023e0e r _ZN18MEMMODULE_LOCAIONS20KSPACE_MAPPER_EVENTS24PAGES_CLEAR_RESULTS_CODE12FAIL_REASONSL28REASON_CODE_BASE_NOT_ALIGNEDE
0000000100023e10 r _ZN18MEMMODULE_LOCAIONS20KSPACE_MAPPER_EVENTS24PAGES_CLEAR_RESULTS_CODE13FATAL_REASONSL41REASON_CODE_HUGE_PDPTE_SUBTABLE_NOT_EXISTE
0000000100023e12 r _ZN18MEMMODULE_LOCAIONS20KSPACE_MAPPER_EVENTS24PAGES_CLEAR_RESULTS_CODE13FATAL_REASONSL39REASON_CODE_HUGE_PDE_SUBTABLE_NOT_EXISTE
0000000100023e14 r _ZN18MEMMODULE_LOCAIONS20KSPACE_MAPPER_EVENTS24PAGES_CLEAR_RESULTS_CODE13FATAL_REASONSL31REASON_CODE_HUGE_PDPTE_UNTIMELYE
0000000100023e16 r _ZN18MEMMODULE_LOCAIONS20KSPACE_MAPPER_EVENTS24PAGES_CLEAR_RESULTS_CODE13FATAL_REASONSL32REASON_CODE_HUGE_PDPTE_NOT_EXISTE
0000000100023e18 r _ZN18MEMMODULE_LOCAIONS20KSPACE_MAPPER_EVENTS24PAGES_CLEAR_RESULTS_CODE13FATAL_REASONSL29REASON_CODE_HUGE_PDE_UNTIMELYE
0000000100023e1a r _ZN18MEMMODULE_LOCAIONS20KSPACE_MAPPER_EVENTS24PAGES_CLEAR_RESULTS_CODE13FATAL_REASONSL30REASON_CODE_HUGE_PDE_NOT_EXISTE
0000000100023e1c r _ZN18MEMMODULE_LOCAIONS20KSPACE_MAPPER_EVENTSL30EVENT_CODE_SEG_TO_INFO_PACKAGEE
0000000100023e1d r _ZN18MEMMODULE_LOCAIONS20KSPACE_MAPPER_EVENTSL28EVENT_CODE_VM_SEARCH_BY_ADDRE
0000000100023e1e r _ZN18MEMMODULE_LOCAIONS20KSPACE_MAPPER_EVENTS25VM_SEARCH_BY_ADDR_RESULTS12FAIL_REASONSL21REASON_CODE_NOT_FOUNDE
0000000100023e20 r _ZN18MEMMODULE_LOCAIONSL43LOCATION_CODE_KSPACE_MAP_MGR_PGS_PAGE_TABLEE
0000000100023e28 r _ZN12_GLOBAL__N_1L9kPageSizeE
0000000100023e38 r _ZL10empty_kurd
0000000100023e40 r _ZN10level_codeL7INVALIDE
0000000100023e41 r _ZN10level_codeL4INFOE
0000000100023e42 r _ZN10level_codeL6NOTICEE
0000000100023e43 r _ZN10level_codeL7WARNINGE
0000000100023e44 r _ZN10level_codeL5ERRORE
0000000100023e45 r _ZN10level_codeL5FATALE
0000000100023e46 r _ZN11module_codeL7INVALIDE
0000000100023e47 r _ZN11module_codeL6MEMORYE
0000000100023e48 r _ZN11module_codeL9SCHEDULERE
0000000100023e49 r _ZN11module_codeL9INTERRUPTE
0000000100023e4a r _ZN11module_codeL8FIRMWAREE
0000000100023e4b r _ZN11module_codeL3VFSE
0000000100023e4c r _ZN11module_codeL3VMME
0000000100023e4d r _ZN11module_codeL5INFRAE
0000000100023e4e r _ZN11module_codeL6DEVICEE
0000000100023e4f r _ZN11module_codeL12DEVICES_COREE
0000000100023e50 r _ZN11module_codeL14HARDWARE_DEBUGE
0000000100023e51 r _ZN11module_codeL15USER_KERNEL_ABIE
0000000100023e52 r _ZN11module_codeL4TIMEE
0000000100023e53 r _ZN11module_codeL5PANICE
0000000100023e54 r _ZN11result_codeL7SUCCESSE
0000000100023e56 r _ZN11result_codeL23SUCCESS_BUT_SIDE_EFFECTE
0000000100023e58 r _ZN11result_codeL15PARTIAL_SUCCESSE
0000000100023e5a r _ZN11result_codeL4FAILE
0000000100023e5c r _ZN11result_codeL5RETRYE
0000000100023e5e r _ZN11result_codeL5FATALE
0000000100023e60 r _ZN10err_domainL7INVALIDE
0000000100023e61 r _ZN10err_domainL11CORE_MODULEE
0000000100023e62 r _ZN10err_domainL4ARCHE
0000000100023e63 r _ZN10err_domainL4USERE
0000000100023e64 r _ZN10err_domainL10HYPERVISORE
0000000100023e65 r _ZN10err_domainL11OUT_MODULESE
0000000100023e66 r _ZN10err_domainL11FILE_SYSTEME
0000000100023e67 r _ZN10err_domainL8HARDWAREE
0000000100023e80 r _ZL10empty_kurd
0000000100023e88 r _ZN10level_codeL7INVALIDE
0000000100023e89 r _ZN10level_codeL4INFOE
0000000100023e8a r _ZN10level_codeL6NOTICEE
0000000100023e8b r _ZN10level_codeL7WARNINGE
0000000100023e8c r _ZN10level_codeL5ERRORE
0000000100023e8d r _ZN10level_codeL5FATALE
0000000100023e8e r _ZN11module_codeL7INVALIDE
0000000100023e8f r _ZN11module_codeL6MEMORYE
0000000100023e90 r _ZN11module_codeL9SCHEDULERE
0000000100023e91 r _ZN11module_codeL9INTERRUPTE
0000000100023e92 r _ZN11module_codeL8FIRMWAREE
0000000100023e93 r _ZN11module_codeL3VFSE
0000000100023e94 r _ZN11module_codeL3VMME
0000000100023e95 r _ZN11module_codeL5INFRAE
0000000100023e96 r _ZN11module_codeL6DEVICEE
0000000100023e97 r _ZN11module_codeL12DEVICES_COREE
0000000100023e98 r _ZN11module_codeL14HARDWARE_DEBUGE
0000000100023e99 r _ZN11module_codeL15USER_KERNEL_ABIE
0000000100023e9a r _ZN11module_codeL4TIMEE
0000000100023e9b r _ZN11module_codeL5PANICE
0000000100023e9c r _ZN11result_codeL7SUCCESSE
0000000100023e9e r _ZN11result_codeL23SUCCESS_BUT_SIDE_EFFECTE
0000000100023ea0 r _ZN11result_codeL15PARTIAL_SUCCESSE
0000000100023ea2 r _ZN11result_codeL4FAILE
0000000100023ea4 r _ZN11result_codeL5RETRYE
0000000100023ea6 r _ZN11result_codeL5FATALE
0000000100023ea8 r _ZN10err_domainL7INVALIDE
0000000100023ea9 r _ZN10err_domainL11CORE_MODULEE
0000000100023eaa r _ZN10err_domainL4ARCHE
0000000100023eab r _ZN10err_domainL4USERE
0000000100023eac r _ZN10err_domainL10HYPERVISORE
0000000100023ead r _ZN10err_domainL11OUT_MODULESE
0000000100023eae r _ZN10err_domainL11FILE_SYSTEME
0000000100023eaf r _ZN10err_domainL8HARDWAREE
0000000100023eb0 r _ZL6LOCKED
0000000100023eb1 r _ZL8UNLOCKED
0000000100023eb8 r _ZL10PAGE_DIRTY
0000000100023ec0 r _ZL11PAGE_LOCKED
0000000100023ec8 r _ZL14PAGE_WRITEBACK
0000000100023ed0 r _ZL13PAGE_UPTODATE
0000000100023ed8 r _ZL13PAGE_SWAPPING
0000000100023ee0 r _ZL15PAGE_REFERENCED
0000000100023ee8 r _ZL11PAGE_ACTIVE
0000000100023ef0 r _ZL12PAGE_RECLAIM
0000000100023ef8 r _ZL25MAX_PHYADDR_1GB_PGS_COUNT
0000000100023f00 r _ZL18DEFAULT_PAT_CONFIG
0000000100023f08 r _ZL16KSPACE_RW_ACCESS
0000000100023f0a r _ZL17KSPACE_RWX_ACCESS
0000000100023f0c r _ZL19KSPACE_RW_UC_ACCESS
0000000100023f0e r _ZL16KSPACE_RX_ACCESS
0000000100023f10 r _ZL15KSPACE_R_ACCESS
0000000100023f12 r _ZL20KSPACE_RWX_NG_ACCESS
0000000100023f14 r _ZL19KSPACE_RW_WC_ACCESS
0000000100023f16 r _ZL13default_flags
0000000100023f20 r _ZL24BUDDY_ALLOC_DEFAULT_FLAG
0000000100023f30 r _ZL22BUDDY_ALLOC_ALWAYS_TRY
0000000100023f40 r _ZL20BUDDY_ALLOC_DOWN_4GB
0000000100023f50 r _ZL33PASS_THROUGH_DEVICE_GRAPHICS_INFO
0000000100023f54 r _ZL32VM_ID_architecture_agnostic_base
0000000100023f58 r _ZL20VM_ID_BSP_INIT_STACK
0000000100023f60 r _ZL19BSP_INIT_STACK_SIZE
0000000100023f68 r _ZL25BSP_INIT_STACK_ALIGN_LOG2
0000000100023f6c r _ZL16VM_ID_FIRST_HEAP
0000000100023f70 r _ZL21FIRST_HEAP_SIZE_CONST
0000000100023f78 r _ZL21FIRST_HEAP_ALIGN_LOG2
0000000100023f7c r _ZL23VM_ID_FIRST_HEAP_BITMAP
0000000100023f80 r _ZL22FIRST_HEAP_BITMAP_SIZE
0000000100023f88 r _ZL28FIRST_HEAP_BITMAP_ALIGN_LOG2
0000000100023f8c r _ZL15VM_ID_LOGBUFFER
0000000100023f90 r _ZL14LOGBUFFER_SIZE
0000000100023f98 r _ZL20LOGBUFFER_ALIGN_LOG2
0000000100023f9c r _ZL14VM_ID_KSYMBOLS
0000000100023fa0 r _ZL13VM_ID_MEM_MAP
0000000100023fa4 r _ZL18VM_ID_BCBS_BITMAPS
0000000100023fa8 r _ZL18MEM_MAP_ALIGN_LOG2
0000000100023fac r _ZL20VM_ID_UP_KSPACE_PDPT
0000000100023fb0 r _ZL20VM_ID_GRAPHIC_BUFFER
0000000100023fb8 r _ZL19UP_KSPACE_PDPT_SIZE
0000000100023fc0 r _ZL25UP_KSPACE_PDPT_ALIGN_LOG2
0000000100023fc4 r _ZL15VM_ID_HPET_MMIO
0000000100023fc8 r _ZN23COREHARDWARES_LOCATIONSL27LOCATION_CODE_GOP_PRIMITIVEE
0000000100023fc9 r _ZN23COREHARDWARES_LOCATIONS28GOP_PRIMITIVE_DRIVERS_EVENTSL4INITE
0000000100023fca r _ZN23COREHARDWARES_LOCATIONS28GOP_PRIMITIVE_DRIVERS_EVENTS12INIT_RESULTS12FAIL_REASONSL21PARAM_METAINF_NULLPTRE
0000000100023fcc r _ZN23COREHARDWARES_LOCATIONS28GOP_PRIMITIVE_DRIVERS_EVENTS12INIT_RESULTS12FAIL_REASONSL9BAD_PARAME
0000000100023fce r _ZN23COREHARDWARES_LOCATIONS28GOP_PRIMITIVE_DRIVERS_EVENTS12INIT_RESULTS12FAIL_REASONSL13ALLREADE_INITE
0000000100023fd0 r _ZN23COREHARDWARES_LOCATIONSL22LOCATION_CODE_INIT_GOPE
0000000100023fd1 r _ZN23COREHARDWARES_LOCATIONS15INIT_GOP_EVENTSL4INITE
0000000100023fd2 r _ZN23COREHARDWARES_LOCATIONS15INIT_GOP_EVENTS12INIT_RESULTS12FAIL_REASONSL21PARAM_METAINF_NULLPTRE
0000000100023fd4 r _ZN23COREHARDWARES_LOCATIONS15INIT_GOP_EVENTS12INIT_RESULTS12FAIL_REASONSL9BAD_PARAME
0000000100023fd6 r _ZN23COREHARDWARES_LOCATIONS15INIT_GOP_EVENTS12INIT_RESULTS12FAIL_REASONSL13ALLREADE_INITE
0000000100023fd8 r _ZN23COREHARDWARES_LOCATIONS15INIT_GOP_EVENTS12INIT_RESULTS12FAIL_REASONSL20MODIFY_ACCESS_FAILEDE
0000000100023fda r _ZN28infrastructure_location_codeL30location_code_init_textconsoleE
0000000100023fdb r _ZN28infrastructure_location_code23init_textconsole_eventsL22textconsole_event_initE
0000000100023fdc r _ZN28infrastructure_location_code23init_textconsole_events12init_results12fail_reasonsL19font_bitmap_is_nullE
0000000100023fdd r _ZN28infrastructure_location_code23init_textconsole_events12init_results12fail_reasonsL13gfx_not_readyE
0000000100023fde r _ZN28infrastructure_location_code23init_textconsole_events12init_results12fail_reasonsL13bad_cell_sizeE
0000000100023fdf r _ZN28infrastructure_location_code23init_textconsole_events12init_results12fail_reasonsL9zero_gridE
0000000100023fe0 r _ZN28infrastructure_location_code23init_textconsole_events12init_results12fail_reasonsL12already_initE
0000000100024000 r _ZL13ter16x32_data
0000000100028000 r _ZZN16init_textconsole7PutCharEcE9kTabWidth
0000000100028010 r _ZL6LOCKED
0000000100028011 r _ZL8UNLOCKED
0000000100028018 r _ZL10empty_kurd
0000000100028020 r _ZN10level_codeL7INVALIDE
0000000100028021 r _ZN10level_codeL4INFOE
0000000100028022 r _ZN10level_codeL6NOTICEE
0000000100028023 r _ZN10level_codeL7WARNINGE
0000000100028024 r _ZN10level_codeL5ERRORE
0000000100028025 r _ZN10level_codeL5FATALE
0000000100028026 r _ZN11module_codeL7INVALIDE
0000000100028027 r _ZN11module_codeL6MEMORYE
0000000100028028 r _ZN11module_codeL9SCHEDULERE
0000000100028029 r _ZN11module_codeL9INTERRUPTE
000000010002802a r _ZN11module_codeL8FIRMWAREE
000000010002802b r _ZN11module_codeL3VFSE
000000010002802c r _ZN11module_codeL3VMME
000000010002802d r _ZN11module_codeL5INFRAE
000000010002802e r _ZN11module_codeL6DEVICEE
000000010002802f r _ZN11module_codeL12DEVICES_COREE
0000000100028030 r _ZN11module_codeL14HARDWARE_DEBUGE
0000000100028031 r _ZN11module_codeL15USER_KERNEL_ABIE
0000000100028032 r _ZN11module_codeL4TIMEE
0000000100028033 r _ZN11module_codeL5PANICE
0000000100028034 r _ZN11result_codeL7SUCCESSE
0000000100028036 r _ZN11result_codeL23SUCCESS_BUT_SIDE_EFFECTE
0000000100028038 r _ZN11result_codeL15PARTIAL_SUCCESSE
000000010002803a r _ZN11result_codeL4FAILE
000000010002803c r _ZN11result_codeL5RETRYE
000000010002803e r _ZN11result_codeL5FATALE
0000000100028040 r _ZN10err_domainL7INVALIDE
0000000100028041 r _ZN10err_domainL11CORE_MODULEE
0000000100028042 r _ZN10err_domainL4ARCHE
0000000100028043 r _ZN10err_domainL4USERE
0000000100028044 r _ZN10err_domainL10HYPERVISORE
0000000100028045 r _ZN10err_domainL11OUT_MODULESE
0000000100028046 r _ZN10err_domainL11FILE_SYSTEME
0000000100028047 r _ZN10err_domainL8HARDWAREE
0000000100028048 r _ZN18MEMMODULE_LOCAIONSL7INVALIDE
0000000100028049 r _ZN18MEMMODULE_LOCAIONSL25LOCATION_CODE_BASE_MEMMGRE
000000010002804a r _ZN18MEMMODULE_LOCAIONSL29LOCATION_CODE_PHYMEM_ACCESSORE
000000010002804b r _ZN18MEMMODULE_LOCAIONSL28LOCATION_CODE_KSPACE_MAP_MGRE
000000010002804c r _ZN18MEMMODULE_LOCAIONSL25LOCATION_CODE_ADDRESSPACEE
000000010002804d r _ZN18MEMMODULE_LOCAIONSL26LOCATION_CODE_OUT_SURFACESE
0000000100028050 r _ZL10PAGE_DIRTY
0000000100028058 r _ZL11PAGE_LOCKED
0000000100028060 r _ZL14PAGE_WRITEBACK
0000000100028068 r _ZL13PAGE_UPTODATE
0000000100028070 r _ZL13PAGE_SWAPPING
0000000100028078 r _ZL15PAGE_REFERENCED
0000000100028080 r _ZL11PAGE_ACTIVE
0000000100028088 r _ZL12PAGE_RECLAIM
0000000100028090 r _ZL25MAX_PHYADDR_1GB_PGS_COUNT
0000000100028098 r _ZL18DEFAULT_PAT_CONFIG
00000001000280a0 r _ZL16KSPACE_RW_ACCESS
00000001000280a2 r _ZL17KSPACE_RWX_ACCESS
00000001000280a4 r _ZL19KSPACE_RW_UC_ACCESS
00000001000280a6 r _ZL16KSPACE_RX_ACCESS
00000001000280a8 r _ZL15KSPACE_R_ACCESS
00000001000280aa r _ZL20KSPACE_RWX_NG_ACCESS
00000001000280ac r _ZL19KSPACE_RW_WC_ACCESS
00000001000280ae r _ZL13default_flags
00000001000280b0 r _ZL24BUDDY_ALLOC_DEFAULT_FLAG
00000001000280c0 r _ZL22BUDDY_ALLOC_ALWAYS_TRY
00000001000280d0 r _ZL20BUDDY_ALLOC_DOWN_4GB
00000001000280e0 r _ZL33PASS_THROUGH_DEVICE_GRAPHICS_INFO
00000001000280e4 r _ZL32VM_ID_architecture_agnostic_base
00000001000280e8 r _ZL20VM_ID_BSP_INIT_STACK
00000001000280f0 r _ZL19BSP_INIT_STACK_SIZE
00000001000280f8 r _ZL25BSP_INIT_STACK_ALIGN_LOG2
00000001000280fc r _ZL16VM_ID_FIRST_HEAP
0000000100028100 r _ZL21FIRST_HEAP_SIZE_CONST
0000000100028108 r _ZL21FIRST_HEAP_ALIGN_LOG2
000000010002810c r _ZL23VM_ID_FIRST_HEAP_BITMAP
0000000100028110 r _ZL22FIRST_HEAP_BITMAP_SIZE
0000000100028118 r _ZL28FIRST_HEAP_BITMAP_ALIGN_LOG2
000000010002811c r _ZL15VM_ID_LOGBUFFER
0000000100028120 r _ZL14LOGBUFFER_SIZE
0000000100028128 r _ZL20LOGBUFFER_ALIGN_LOG2
000000010002812c r _ZL14VM_ID_KSYMBOLS
0000000100028130 r _ZL13VM_ID_MEM_MAP
0000000100028134 r _ZL18VM_ID_BCBS_BITMAPS
0000000100028138 r _ZL18MEM_MAP_ALIGN_LOG2
000000010002813c r _ZL20VM_ID_UP_KSPACE_PDPT
0000000100028140 r _ZL20VM_ID_GRAPHIC_BUFFER
0000000100028148 r _ZL19UP_KSPACE_PDPT_SIZE
0000000100028150 r _ZL25UP_KSPACE_PDPT_ALIGN_LOG2
0000000100028154 r _ZL15VM_ID_HPET_MMIO
0000000100028158 r _ZN18MEMMODULE_LOCAIONSL25LOCATION_CODE_KPOOLMEMMGRE
0000000100028159 r _ZN18MEMMODULE_LOCAIONS18KPOOLMEMMGR_EVENTSL15EVENT_CODE_INITE
000000010002815a r _ZN18MEMMODULE_LOCAIONS18KPOOLMEMMGR_EVENTSL16EVENT_CODE_ALLOCE
000000010002815c r _ZN18MEMMODULE_LOCAIONS18KPOOLMEMMGR_EVENTS13ALLOC_RESULTS11FAIL_RESONSL28REASON_CODE_NO_AVALIABLE_MEME
000000010002815e r _ZN18MEMMODULE_LOCAIONS18KPOOLMEMMGR_EVENTS13ALLOC_RESULTS11FAIL_RESONSL24REASON_CODE_SIZE_IS_ZEROE
0000000100028160 r _ZN18MEMMODULE_LOCAIONS18KPOOLMEMMGR_EVENTSL18EVENT_CODE_REALLOCE
0000000100028162 r _ZN18MEMMODULE_LOCAIONS18KPOOLMEMMGR_EVENTS15REALLOC_RESULTS11FAIL_RESONSL31REASON_CODE_DEMAND_SIZE_IS_ZEROE
0000000100028164 r _ZN18MEMMODULE_LOCAIONS18KPOOLMEMMGR_EVENTS15REALLOC_RESULTS11FAIL_RESONSL31REASON_CODE_PTR_NOT_IN_ANY_HEAPE
0000000100028166 r _ZN18MEMMODULE_LOCAIONS18KPOOLMEMMGR_EVENTS15REALLOC_RESULTS11FAIL_RESONSL28REASON_CODE_NO_AVALIABLE_MEME
0000000100028168 r _ZN18MEMMODULE_LOCAIONS18KPOOLMEMMGR_EVENTSL34EVENT_CODE_PER_PROCESSOR_HEAP_INITE
000000010002816a r _ZN18MEMMODULE_LOCAIONS18KPOOLMEMMGR_EVENTS31PER_PROCESSOR_HEAP_INIT_RESULTS11FAIL_RESONSL27REASON_CODE_ALREADY_ENABLEDE
000000010002816c r _ZN18MEMMODULE_LOCAIONS18KPOOLMEMMGR_EVENTS31PER_PROCESSOR_HEAP_INIT_RESULTS11FAIL_RESONSL31REASON_CODE_BAD_PROCESSOR_COUNTE
000000010002816e r _ZN18MEMMODULE_LOCAIONS18KPOOLMEMMGR_EVENTS31PER_PROCESSOR_HEAP_INIT_RESULTS11FAIL_RESONSL26REASON_CODE_NO_VADDR_SPACEE
0000000100028170 r _ZN18MEMMODULE_LOCAIONS18KPOOLMEMMGR_EVENTS31PER_PROCESSOR_HEAP_INIT_RESULTS11FAIL_RESONSL23REASON_CODE_VM_ADD_FAILE
0000000100028172 r _ZN18MEMMODULE_LOCAIONS18KPOOLMEMMGR_EVENTS31PER_PROCESSOR_HEAP_INIT_RESULTS11FAIL_RESONSL28REASON_CODE_IDX_OUT_OF_RANGEE
0000000100028174 r _ZN18MEMMODULE_LOCAIONS18KPOOLMEMMGR_EVENTS31PER_PROCESSOR_HEAP_INIT_RESULTS11FAIL_RESONSL31REASON_CODE_HEAP_ALREADY_EXISTSE
0000000100028176 r _ZN18MEMMODULE_LOCAIONS18KPOOLMEMMGR_EVENTS31PER_PROCESSOR_HEAP_INIT_RESULTS11FAIL_RESONSL26REASON_CODE_HEAP_NOT_EXISTE
0000000100028178 r _ZN18MEMMODULE_LOCAIONSL32LOCATION_CODE_KPOOLMEMMGR_HCB_V3E
0000000100028179 r _ZN18MEMMODULE_LOCAIONS25KPOOLMEMMGR_HCB_V3_EVENTSL17EVENT_CODE_ONLINEE
000000010002817a r _ZN18MEMMODULE_LOCAIONS25KPOOLMEMMGR_HCB_V3_EVENTSL18EVENT_CODE_OFFLINEE
000000010002817b r _ZN18MEMMODULE_LOCAIONS25KPOOLMEMMGR_HCB_V3_EVENTSL16EVENT_CODE_ALLOCE
000000010002817c r _ZN18MEMMODULE_LOCAIONS25KPOOLMEMMGR_HCB_V3_EVENTSL15EVENT_CODE_FREEE
000000010002817d r _ZN18MEMMODULE_LOCAIONS25KPOOLMEMMGR_HCB_V3_EVENTSL18EVENT_CODE_REALLOCE
000000010002817e r _ZN18MEMMODULE_LOCAIONS25KPOOLMEMMGR_HCB_V3_EVENTSL25EVENT_CODE_INTERNAL_ALLOCE
000000010002817f r _ZN18MEMMODULE_LOCAIONS25KPOOLMEMMGR_HCB_V3_EVENTSL24EVENT_CODE_INTERNAL_FREEE
0000000100028180 r _ZN18MEMMODULE_LOCAIONS25KPOOLMEMMGR_HCB_V3_EVENTSL16EVENT_CODE_CLEARE
0000000100028182 r _ZN18MEMMODULE_LOCAIONS25KPOOLMEMMGR_HCB_V3_EVENTS19COMMON_FAIL_REASONSL20REASON_CODE_BAD_ADDRE
0000000100028184 r _ZN18MEMMODULE_LOCAIONS25KPOOLMEMMGR_HCB_V3_EVENTS19COMMON_FAIL_REASONSL30REASON_CODE_ADDR_NOT_THIS_HEAPE
0000000100028186 r _ZN18MEMMODULE_LOCAIONS25KPOOLMEMMGR_HCB_V3_EVENTS20COMMON_FATAL_REASONSL30REASON_CODE_METADATA_DESTROYEDE
0000000100028188 r _ZN18MEMMODULE_LOCAIONS25KPOOLMEMMGR_HCB_V3_EVENTS22INTERNAL_ALLOC_RESULTS11FAIL_RESONSL30REASON_CODE_NO_AVALIABLE_BUDDYE
000000010002818a r _ZN18MEMMODULE_LOCAIONS25KPOOLMEMMGR_HCB_V3_EVENTS13ALLOC_RESULTS12FAIL_REASONSL24REASON_CODE_SIZE_IS_ZEROE
000000010002818c r _ZN18MEMMODULE_LOCAIONS25KPOOLMEMMGR_HCB_V3_EVENTS13ALLOC_RESULTS12FAIL_REASONSL26REASON_CODE_SIZE_TOO_LARGEE
000000010002818e r _ZN18MEMMODULE_LOCAIONS25KPOOLMEMMGR_HCB_V3_EVENTS12FREE_RESULTS13FATAL_REASONSL18DOUBLE_FREE_DETECTE
0000000100028190 r _ZN18MEMMODULE_LOCAIONS25KPOOLMEMMGR_HCB_V3_EVENTS12FREE_RESULTS13FATAL_REASONSL22MERGE_BUT_ALREADY_FREEE
0000000100028198 r _ZL14HCB_evict_span
00000001000281a0 r _ZL23HCB_evictor_sleep_cycle
0000000100028430 r _ZL10empty_kurd
0000000100028438 r _ZN10level_codeL7INVALIDE
0000000100028439 r _ZN10level_codeL4INFOE
000000010002843a r _ZN10level_codeL6NOTICEE
000000010002843b r _ZN10level_codeL7WARNINGE
000000010002843c r _ZN10level_codeL5ERRORE
000000010002843d r _ZN10level_codeL5FATALE
000000010002843e r _ZN11module_codeL7INVALIDE
000000010002843f r _ZN11module_codeL6MEMORYE
0000000100028440 r _ZN11module_codeL9SCHEDULERE
0000000100028441 r _ZN11module_codeL9INTERRUPTE
0000000100028442 r _ZN11module_codeL8FIRMWAREE
0000000100028443 r _ZN11module_codeL3VFSE
0000000100028444 r _ZN11module_codeL3VMME
0000000100028445 r _ZN11module_codeL5INFRAE
0000000100028446 r _ZN11module_codeL6DEVICEE
0000000100028447 r _ZN11module_codeL12DEVICES_COREE
0000000100028448 r _ZN11module_codeL14HARDWARE_DEBUGE
0000000100028449 r _ZN11module_codeL15USER_KERNEL_ABIE
000000010002844a r _ZN11module_codeL4TIMEE
000000010002844b r _ZN11module_codeL5PANICE
000000010002844c r _ZN11result_codeL7SUCCESSE
000000010002844e r _ZN11result_codeL23SUCCESS_BUT_SIDE_EFFECTE
0000000100028450 r _ZN11result_codeL15PARTIAL_SUCCESSE
0000000100028452 r _ZN11result_codeL4FAILE
0000000100028454 r _ZN11result_codeL5RETRYE
0000000100028456 r _ZN11result_codeL5FATALE
0000000100028458 r _ZN10err_domainL7INVALIDE
0000000100028459 r _ZN10err_domainL11CORE_MODULEE
000000010002845a r _ZN10err_domainL4ARCHE
000000010002845b r _ZN10err_domainL4USERE
000000010002845c r _ZN10err_domainL10HYPERVISORE
000000010002845d r _ZN10err_domainL11OUT_MODULESE
000000010002845e r _ZN10err_domainL11FILE_SYSTEME
000000010002845f r _ZN10err_domainL8HARDWAREE
0000000100028460 r _ZL6LOCKED
0000000100028461 r _ZL8UNLOCKED
0000000100028468 r _ZL10PAGE_DIRTY
0000000100028470 r _ZL11PAGE_LOCKED
0000000100028478 r _ZL14PAGE_WRITEBACK
0000000100028480 r _ZL13PAGE_UPTODATE
0000000100028488 r _ZL13PAGE_SWAPPING
0000000100028490 r _ZL15PAGE_REFERENCED
0000000100028498 r _ZL11PAGE_ACTIVE
00000001000284a0 r _ZL12PAGE_RECLAIM
00000001000284a8 r _ZL25MAX_PHYADDR_1GB_PGS_COUNT
00000001000284b0 r _ZL18DEFAULT_PAT_CONFIG
00000001000284b8 r _ZL16KSPACE_RW_ACCESS
00000001000284ba r _ZL17KSPACE_RWX_ACCESS
00000001000284bc r _ZL19KSPACE_RW_UC_ACCESS
00000001000284be r _ZL16KSPACE_RX_ACCESS
00000001000284c0 r _ZL15KSPACE_R_ACCESS
00000001000284c2 r _ZL20KSPACE_RWX_NG_ACCESS
00000001000284c4 r _ZL19KSPACE_RW_WC_ACCESS
00000001000284c6 r _ZL13default_flags
00000001000284d0 r _ZL24BUDDY_ALLOC_DEFAULT_FLAG
00000001000284e0 r _ZL22BUDDY_ALLOC_ALWAYS_TRY
00000001000284f0 r _ZL20BUDDY_ALLOC_DOWN_4GB
0000000100028500 r _ZL33PASS_THROUGH_DEVICE_GRAPHICS_INFO
0000000100028504 r _ZL32VM_ID_architecture_agnostic_base
0000000100028508 r _ZL20VM_ID_BSP_INIT_STACK
0000000100028510 r _ZL19BSP_INIT_STACK_SIZE
0000000100028518 r _ZL25BSP_INIT_STACK_ALIGN_LOG2
000000010002851c r _ZL16VM_ID_FIRST_HEAP
0000000100028520 r _ZL21FIRST_HEAP_SIZE_CONST
0000000100028528 r _ZL21FIRST_HEAP_ALIGN_LOG2
000000010002852c r _ZL23VM_ID_FIRST_HEAP_BITMAP
0000000100028530 r _ZL22FIRST_HEAP_BITMAP_SIZE
0000000100028538 r _ZL28FIRST_HEAP_BITMAP_ALIGN_LOG2
000000010002853c r _ZL15VM_ID_LOGBUFFER
0000000100028540 r _ZL14LOGBUFFER_SIZE
0000000100028548 r _ZL20LOGBUFFER_ALIGN_LOG2
000000010002854c r _ZL14VM_ID_KSYMBOLS
0000000100028550 r _ZL13VM_ID_MEM_MAP
0000000100028554 r _ZL18VM_ID_BCBS_BITMAPS
0000000100028558 r _ZL18MEM_MAP_ALIGN_LOG2
000000010002855c r _ZL20VM_ID_UP_KSPACE_PDPT
0000000100028560 r _ZL20VM_ID_GRAPHIC_BUFFER
0000000100028568 r _ZL19UP_KSPACE_PDPT_SIZE
0000000100028570 r _ZL25UP_KSPACE_PDPT_ALIGN_LOG2
0000000100028574 r _ZL15VM_ID_HPET_MMIO
0000000100028578 r _ZN18MEMMODULE_LOCAIONSL7INVALIDE
0000000100028579 r _ZN18MEMMODULE_LOCAIONSL25LOCATION_CODE_BASE_MEMMGRE
000000010002857a r _ZN18MEMMODULE_LOCAIONSL29LOCATION_CODE_PHYMEM_ACCESSORE
000000010002857b r _ZN18MEMMODULE_LOCAIONSL28LOCATION_CODE_KSPACE_MAP_MGRE
000000010002857c r _ZN18MEMMODULE_LOCAIONSL25LOCATION_CODE_ADDRESSPACEE
000000010002857d r _ZN18MEMMODULE_LOCAIONSL26LOCATION_CODE_OUT_SURFACESE
000000010002857e r _ZN18MEMMODULE_LOCAIONSL25LOCATION_CODE_KPOOLMEMMGRE
000000010002857f r _ZN18MEMMODULE_LOCAIONS18KPOOLMEMMGR_EVENTSL15EVENT_CODE_INITE
0000000100028580 r _ZN18MEMMODULE_LOCAIONS18KPOOLMEMMGR_EVENTSL16EVENT_CODE_ALLOCE
0000000100028582 r _ZN18MEMMODULE_LOCAIONS18KPOOLMEMMGR_EVENTS13ALLOC_RESULTS11FAIL_RESONSL28REASON_CODE_NO_AVALIABLE_MEME
0000000100028584 r _ZN18MEMMODULE_LOCAIONS18KPOOLMEMMGR_EVENTS13ALLOC_RESULTS11FAIL_RESONSL24REASON_CODE_SIZE_IS_ZEROE
0000000100028586 r _ZN18MEMMODULE_LOCAIONS18KPOOLMEMMGR_EVENTSL18EVENT_CODE_REALLOCE
0000000100028588 r _ZN18MEMMODULE_LOCAIONS18KPOOLMEMMGR_EVENTS15REALLOC_RESULTS11FAIL_RESONSL31REASON_CODE_DEMAND_SIZE_IS_ZEROE
000000010002858a r _ZN18MEMMODULE_LOCAIONS18KPOOLMEMMGR_EVENTS15REALLOC_RESULTS11FAIL_RESONSL31REASON_CODE_PTR_NOT_IN_ANY_HEAPE
000000010002858c r _ZN18MEMMODULE_LOCAIONS18KPOOLMEMMGR_EVENTS15REALLOC_RESULTS11FAIL_RESONSL28REASON_CODE_NO_AVALIABLE_MEME
000000010002858e r _ZN18MEMMODULE_LOCAIONS18KPOOLMEMMGR_EVENTSL34EVENT_CODE_PER_PROCESSOR_HEAP_INITE
0000000100028590 r _ZN18MEMMODULE_LOCAIONS18KPOOLMEMMGR_EVENTS31PER_PROCESSOR_HEAP_INIT_RESULTS11FAIL_RESONSL27REASON_CODE_ALREADY_ENABLEDE
0000000100028592 r _ZN18MEMMODULE_LOCAIONS18KPOOLMEMMGR_EVENTS31PER_PROCESSOR_HEAP_INIT_RESULTS11FAIL_RESONSL31REASON_CODE_BAD_PROCESSOR_COUNTE
0000000100028594 r _ZN18MEMMODULE_LOCAIONS18KPOOLMEMMGR_EVENTS31PER_PROCESSOR_HEAP_INIT_RESULTS11FAIL_RESONSL26REASON_CODE_NO_VADDR_SPACEE
0000000100028596 r _ZN18MEMMODULE_LOCAIONS18KPOOLMEMMGR_EVENTS31PER_PROCESSOR_HEAP_INIT_RESULTS11FAIL_RESONSL23REASON_CODE_VM_ADD_FAILE
0000000100028598 r _ZN18MEMMODULE_LOCAIONS18KPOOLMEMMGR_EVENTS31PER_PROCESSOR_HEAP_INIT_RESULTS11FAIL_RESONSL28REASON_CODE_IDX_OUT_OF_RANGEE
000000010002859a r _ZN18MEMMODULE_LOCAIONS18KPOOLMEMMGR_EVENTS31PER_PROCESSOR_HEAP_INIT_RESULTS11FAIL_RESONSL31REASON_CODE_HEAP_ALREADY_EXISTSE
000000010002859c r _ZN18MEMMODULE_LOCAIONS18KPOOLMEMMGR_EVENTS31PER_PROCESSOR_HEAP_INIT_RESULTS11FAIL_RESONSL26REASON_CODE_HEAP_NOT_EXISTE
000000010002859e r _ZN18MEMMODULE_LOCAIONSL32LOCATION_CODE_KPOOLMEMMGR_HCB_V3E
000000010002859f r _ZN18MEMMODULE_LOCAIONS25KPOOLMEMMGR_HCB_V3_EVENTSL17EVENT_CODE_ONLINEE
00000001000285a0 r _ZN18MEMMODULE_LOCAIONS25KPOOLMEMMGR_HCB_V3_EVENTSL18EVENT_CODE_OFFLINEE
00000001000285a1 r _ZN18MEMMODULE_LOCAIONS25KPOOLMEMMGR_HCB_V3_EVENTSL16EVENT_CODE_ALLOCE
00000001000285a2 r _ZN18MEMMODULE_LOCAIONS25KPOOLMEMMGR_HCB_V3_EVENTSL15EVENT_CODE_FREEE
00000001000285a3 r _ZN18MEMMODULE_LOCAIONS25KPOOLMEMMGR_HCB_V3_EVENTSL18EVENT_CODE_REALLOCE
00000001000285a4 r _ZN18MEMMODULE_LOCAIONS25KPOOLMEMMGR_HCB_V3_EVENTSL25EVENT_CODE_INTERNAL_ALLOCE
00000001000285a5 r _ZN18MEMMODULE_LOCAIONS25KPOOLMEMMGR_HCB_V3_EVENTSL24EVENT_CODE_INTERNAL_FREEE
00000001000285a6 r _ZN18MEMMODULE_LOCAIONS25KPOOLMEMMGR_HCB_V3_EVENTSL16EVENT_CODE_CLEARE
00000001000285a8 r _ZN18MEMMODULE_LOCAIONS25KPOOLMEMMGR_HCB_V3_EVENTS19COMMON_FAIL_REASONSL20REASON_CODE_BAD_ADDRE
00000001000285aa r _ZN18MEMMODULE_LOCAIONS25KPOOLMEMMGR_HCB_V3_EVENTS19COMMON_FAIL_REASONSL30REASON_CODE_ADDR_NOT_THIS_HEAPE
00000001000285ac r _ZN18MEMMODULE_LOCAIONS25KPOOLMEMMGR_HCB_V3_EVENTS20COMMON_FATAL_REASONSL30REASON_CODE_METADATA_DESTROYEDE
00000001000285ae r _ZN18MEMMODULE_LOCAIONS25KPOOLMEMMGR_HCB_V3_EVENTS22INTERNAL_ALLOC_RESULTS11FAIL_RESONSL30REASON_CODE_NO_AVALIABLE_BUDDYE
00000001000285b0 r _ZN18MEMMODULE_LOCAIONS25KPOOLMEMMGR_HCB_V3_EVENTS13ALLOC_RESULTS12FAIL_REASONSL24REASON_CODE_SIZE_IS_ZEROE
00000001000285b2 r _ZN18MEMMODULE_LOCAIONS25KPOOLMEMMGR_HCB_V3_EVENTS13ALLOC_RESULTS12FAIL_REASONSL26REASON_CODE_SIZE_TOO_LARGEE
00000001000285b4 r _ZN18MEMMODULE_LOCAIONS25KPOOLMEMMGR_HCB_V3_EVENTS12FREE_RESULTS13FATAL_REASONSL18DOUBLE_FREE_DETECTE
00000001000285b6 r _ZN18MEMMODULE_LOCAIONS25KPOOLMEMMGR_HCB_V3_EVENTS12FREE_RESULTS13FATAL_REASONSL22MERGE_BUT_ALREADY_FREEE
00000001000285b8 r _ZL14HCB_evict_span
00000001000285c0 r _ZL23HCB_evictor_sleep_cycle
0000000100028838 r _ZL15INITRAMFS_MAGIC
0000000100028840 r _ZL7version
0000000100028850 r _ZL10empty_kurd
0000000100028858 r _ZN10level_codeL7INVALIDE
0000000100028859 r _ZN10level_codeL4INFOE
000000010002885a r _ZN10level_codeL6NOTICEE
000000010002885b r _ZN10level_codeL7WARNINGE
000000010002885c r _ZN10level_codeL5ERRORE
000000010002885d r _ZN10level_codeL5FATALE
000000010002885e r _ZN11module_codeL7INVALIDE
000000010002885f r _ZN11module_codeL6MEMORYE
0000000100028860 r _ZN11module_codeL9SCHEDULERE
0000000100028861 r _ZN11module_codeL9INTERRUPTE
0000000100028862 r _ZN11module_codeL8FIRMWAREE
0000000100028863 r _ZN11module_codeL3VFSE
0000000100028864 r _ZN11module_codeL3VMME
0000000100028865 r _ZN11module_codeL5INFRAE
0000000100028866 r _ZN11module_codeL6DEVICEE
0000000100028867 r _ZN11module_codeL12DEVICES_COREE
0000000100028868 r _ZN11module_codeL14HARDWARE_DEBUGE
0000000100028869 r _ZN11module_codeL15USER_KERNEL_ABIE
000000010002886a r _ZN11module_codeL4TIMEE
000000010002886b r _ZN11module_codeL5PANICE
000000010002886c r _ZN11result_codeL7SUCCESSE
000000010002886e r _ZN11result_codeL23SUCCESS_BUT_SIDE_EFFECTE
0000000100028870 r _ZN11result_codeL15PARTIAL_SUCCESSE
0000000100028872 r _ZN11result_codeL4FAILE
0000000100028874 r _ZN11result_codeL5RETRYE
0000000100028876 r _ZN11result_codeL5FATALE
0000000100028878 r _ZN10err_domainL7INVALIDE
0000000100028879 r _ZN10err_domainL11CORE_MODULEE
000000010002887a r _ZN10err_domainL4ARCHE
000000010002887b r _ZN10err_domainL4USERE
000000010002887c r _ZN10err_domainL10HYPERVISORE
000000010002887d r _ZN10err_domainL11OUT_MODULESE
000000010002887e r _ZN10err_domainL11FILE_SYSTEME
000000010002887f r _ZN10err_domainL8HARDWAREE
0000000100028880 r _ZL16panic_will_magic
0000000100028888 r _ZL18panic_will_version
0000000100028890 r _ZL18x86_64_arch_spcify
0000000100028898 r _ZL29default_panic_behaviors_flags
000000010002889c r _ZL6LOCKED
000000010002889d r _ZL8UNLOCKED
00000001000288a0 r _ZL10PAGE_DIRTY
00000001000288a8 r _ZL11PAGE_LOCKED
00000001000288b0 r _ZL14PAGE_WRITEBACK
00000001000288b8 r _ZL13PAGE_UPTODATE
00000001000288c0 r _ZL13PAGE_SWAPPING
00000001000288c8 r _ZL15PAGE_REFERENCED
00000001000288d0 r _ZL11PAGE_ACTIVE
00000001000288d8 r _ZL12PAGE_RECLAIM
00000001000288e0 r _ZL25MAX_PHYADDR_1GB_PGS_COUNT
00000001000288e8 r _ZL18DEFAULT_PAT_CONFIG
00000001000288f0 r _ZL16KSPACE_RW_ACCESS
00000001000288f2 r _ZL17KSPACE_RWX_ACCESS
00000001000288f4 r _ZL19KSPACE_RW_UC_ACCESS
00000001000288f6 r _ZL16KSPACE_RX_ACCESS
00000001000288f8 r _ZL15KSPACE_R_ACCESS
00000001000288fa r _ZL20KSPACE_RWX_NG_ACCESS
00000001000288fc r _ZL19KSPACE_RW_WC_ACCESS
00000001000288fe r _ZL13default_flags
0000000100028900 r _ZL24BUDDY_ALLOC_DEFAULT_FLAG
0000000100028910 r _ZL22BUDDY_ALLOC_ALWAYS_TRY
0000000100028920 r _ZL20BUDDY_ALLOC_DOWN_4GB
0000000100028930 r _ZL33PASS_THROUGH_DEVICE_GRAPHICS_INFO
0000000100028934 r _ZL32VM_ID_architecture_agnostic_base
0000000100028938 r _ZL20VM_ID_BSP_INIT_STACK
0000000100028940 r _ZL19BSP_INIT_STACK_SIZE
0000000100028948 r _ZL25BSP_INIT_STACK_ALIGN_LOG2
000000010002894c r _ZL16VM_ID_FIRST_HEAP
0000000100028950 r _ZL21FIRST_HEAP_SIZE_CONST
0000000100028958 r _ZL21FIRST_HEAP_ALIGN_LOG2
000000010002895c r _ZL23VM_ID_FIRST_HEAP_BITMAP
0000000100028960 r _ZL22FIRST_HEAP_BITMAP_SIZE
0000000100028968 r _ZL28FIRST_HEAP_BITMAP_ALIGN_LOG2
000000010002896c r _ZL15VM_ID_LOGBUFFER
0000000100028970 r _ZL14LOGBUFFER_SIZE
0000000100028978 r _ZL20LOGBUFFER_ALIGN_LOG2
000000010002897c r _ZL14VM_ID_KSYMBOLS
0000000100028980 r _ZL13VM_ID_MEM_MAP
0000000100028984 r _ZL18VM_ID_BCBS_BITMAPS
0000000100028988 r _ZL18MEM_MAP_ALIGN_LOG2
000000010002898c r _ZL20VM_ID_UP_KSPACE_PDPT
0000000100028990 r _ZL20VM_ID_GRAPHIC_BUFFER
0000000100028998 r _ZL19UP_KSPACE_PDPT_SIZE
00000001000289a0 r _ZL25UP_KSPACE_PDPT_ALIGN_LOG2
00000001000289a4 r _ZL15VM_ID_HPET_MMIO
00000001000289a8 r _ZN3msrL9IA32_EFERE
00000001000289ac r _ZN3msr4apicL14IA32_APIC_BASEE
00000001000289b0 r _ZN3msr4apicL14IA32_X2APIC_IDE
00000001000289b4 r _ZN3msr4apicL19IA32_X2APIC_VERSIONE
00000001000289b8 r _ZN3msr4apicL15IA32_X2APIC_TPRE
00000001000289bc r _ZN3msr4apicL15IA32_X2APIC_PPRE
00000001000289c0 r _ZN3msr4apicL15IA32_X2APIC_EOIE
00000001000289c4 r _ZN3msr4apicL15IA32_X2APIC_LDRE
00000001000289c8 r _ZN3msr4apicL15IA32_X2APIC_SVRE
00000001000289cc r _ZN3msr4apicL16IA32_X2APIC_ISR0E
00000001000289d0 r _ZN3msr4apicL16IA32_X2APIC_ISR1E
00000001000289d4 r _ZN3msr4apicL16IA32_X2APIC_ISR2E
00000001000289d8 r _ZN3msr4apicL16IA32_X2APIC_ISR3E
00000001000289dc r _ZN3msr4apicL16IA32_X2APIC_ISR4E
00000001000289e0 r _ZN3msr4apicL16IA32_X2APIC_ISR5E
00000001000289e4 r _ZN3msr4apicL16IA32_X2APIC_ISR6E
00000001000289e8 r _ZN3msr4apicL16IA32_X2APIC_ISR7E
00000001000289ec r _ZN3msr4apicL16IA32_X2APIC_TMR0E
00000001000289f0 r _ZN3msr4apicL16IA32_X2APIC_TMR1E
00000001000289f4 r _ZN3msr4apicL16IA32_X2APIC_TMR2E
00000001000289f8 r _ZN3msr4apicL16IA32_X2APIC_TMR3E
00000001000289fc r _ZN3msr4apicL16IA32_X2APIC_TMR4E
0000000100028a00 r _ZN3msr4apicL16IA32_X2APIC_TMR5E
0000000100028a04 r _ZN3msr4apicL16IA32_X2APIC_TMR6E
0000000100028a08 r _ZN3msr4apicL16IA32_X2APIC_TMR7E
0000000100028a0c r _ZN3msr4apicL16IA32_X2APIC_IRR0E
0000000100028a10 r _ZN3msr4apicL16IA32_X2APIC_IRR1E
0000000100028a14 r _ZN3msr4apicL16IA32_X2APIC_IRR2E
0000000100028a18 r _ZN3msr4apicL16IA32_X2APIC_IRR3E
0000000100028a1c r _ZN3msr4apicL16IA32_X2APIC_IRR4E
0000000100028a20 r _ZN3msr4apicL16IA32_X2APIC_IRR5E
0000000100028a24 r _ZN3msr4apicL16IA32_X2APIC_IRR6E
0000000100028a28 r _ZN3msr4apicL16IA32_X2APIC_IRR7E
0000000100028a2c r _ZN3msr4apicL15IA32_X2APIC_ESRE
0000000100028a30 r _ZN3msr4apicL20IA32_X2APIC_LVT_CMCIE
0000000100028a34 r _ZN3msr4apicL15IA32_X2APIC_ICRE
0000000100028a38 r _ZN3msr4apicL21IA32_X2APIC_LVT_TIMERE
0000000100028a3c r _ZN3msr4apicL23IA32_X2APIC_LVT_THERMALE
0000000100028a40 r _ZN3msr4apicL19IA32_X2APIC_LVT_PMIE
0000000100028a44 r _ZN3msr4apicL21IA32_X2APIC_LVT_LINT0E
0000000100028a48 r _ZN3msr4apicL21IA32_X2APIC_LVT_LINT1E
0000000100028a4c r _ZN3msr4apicL21IA32_X2APIC_LVT_ERRORE
0000000100028a50 r _ZN3msr4apicL31IA32_X2APIC_TIMER_INITIAL_COUNTE
0000000100028a54 r _ZN3msr4apicL31IA32_X2APIC_TIMER_CURRENT_COUNTE
0000000100028a58 r _ZN3msr4apicL31IA32_X2APIC_TIMER_DIVIDE_CONFIGE
0000000100028a5c r _ZN3msr4apicL20IA32_X2APIC_SELF_IPIE
0000000100028a60 r _ZN3msr6systemL20IA32_FEATURE_CONTROLE
0000000100028a64 r _ZN3msr6systemL8IA32_TSCE
0000000100028a68 r _ZN3msr6systemL16IA32_PLATFORM_IDE
0000000100028a6c r _ZN3msr6systemL19IA32_EBL_CR_POWERONE
0000000100028a70 r _ZN3msr6systemL21IA32_EBC_FREQUENCY_IDE
0000000100028a74 r _ZN3msr5debugL13IA32_DEBUGCTLE
0000000100028a78 r _ZN3msr5debugL21IA32_LASTBRANCHFROMIPE
0000000100028a7c r _ZN3msr5debugL19IA32_LASTBRANCHTOIPE
0000000100028a80 r _ZN3msr5debugL18IA32_LASTINTFROMIPE
0000000100028a84 r _ZN3msr5debugL16IA32_LASTINTTOIPE
0000000100028a88 r _ZN3msr11performanceL10IA32_MPERFE
0000000100028a8c r _ZN3msr11performanceL10IA32_APERFE
0000000100028a90 r _ZN3msr11performanceL16IA32_PERF_STATUSE
0000000100028a94 r _ZN3msr11performanceL13IA32_PERF_CTLE
0000000100028a98 r _ZN3msr16power_managementL21IA32_CLOCK_MODULATIONE
0000000100028a9c r _ZN3msr16power_managementL20IA32_THERM_INTERRUPTE
0000000100028aa0 r _ZN3msr16power_managementL17IA32_THERM_STATUSE
0000000100028aa4 r _ZN3msr16power_managementL16IA32_MISC_ENABLEE
0000000100028aa8 r _ZN3msr4mtrrL13IA32_MTRR_CAPE
0000000100028aac r _ZN3msr4mtrrL18IA32_MTRR_DEF_TYPEE
0000000100028ab0 r _ZN3msr4mtrrL19IA32_MTRR_PHYSBASE0E
0000000100028ab4 r _ZN3msr4mtrrL19IA32_MTRR_PHYSMASK0E
0000000100028ab8 r _ZN3msr4mtrrL19IA32_MTRR_PHYSBASE1E
0000000100028abc r _ZN3msr4mtrrL19IA32_MTRR_PHYSMASK1E
0000000100028ac0 r _ZN3msr4mtrrL19IA32_MTRR_PHYSBASE2E
0000000100028ac4 r _ZN3msr4mtrrL19IA32_MTRR_PHYSMASK2E
0000000100028ac8 r _ZN3msr4mtrrL19IA32_MTRR_PHYSBASE3E
0000000100028acc r _ZN3msr4mtrrL19IA32_MTRR_PHYSMASK3E
0000000100028ad0 r _ZN3msr4mtrrL19IA32_MTRR_PHYSBASE4E
0000000100028ad4 r _ZN3msr4mtrrL19IA32_MTRR_PHYSMASK4E
0000000100028ad8 r _ZN3msr4mtrrL19IA32_MTRR_PHYSBASE5E
0000000100028adc r _ZN3msr4mtrrL19IA32_MTRR_PHYSMASK5E
0000000100028ae0 r _ZN3msr4mtrrL19IA32_MTRR_PHYSBASE6E
0000000100028ae4 r _ZN3msr4mtrrL19IA32_MTRR_PHYSMASK6E
0000000100028ae8 r _ZN3msr4mtrrL19IA32_MTRR_PHYSBASE7E
0000000100028aec r _ZN3msr4mtrrL19IA32_MTRR_PHYSMASK7E
0000000100028af0 r _ZN3msr4mtrrL19IA32_MTRR_PHYSBASE8E
0000000100028af4 r _ZN3msr4mtrrL19IA32_MTRR_PHYSMASK8E
0000000100028af8 r _ZN3msr4mtrrL19IA32_MTRR_PHYSBASE9E
0000000100028afc r _ZN3msr4mtrrL19IA32_MTRR_PHYSMASK9E
0000000100028b00 r _ZN3msr4mtrrL22IA32_MTRR_FIX64K_00000E
0000000100028b04 r _ZN3msr4mtrrL22IA32_MTRR_FIX16K_80000E
0000000100028b08 r _ZN3msr4mtrrL22IA32_MTRR_FIX16K_A0000E
0000000100028b0c r _ZN3msr4mtrrL21IA32_MTRR_FIX4K_C0000E
0000000100028b10 r _ZN3msr4mtrrL21IA32_MTRR_FIX4K_C8000E
0000000100028b14 r _ZN3msr4mtrrL21IA32_MTRR_FIX4K_D0000E
0000000100028b18 r _ZN3msr4mtrrL21IA32_MTRR_FIX4K_D8000E
0000000100028b1c r _ZN3msr4mtrrL21IA32_MTRR_FIX4K_E0000E
0000000100028b20 r _ZN3msr4mtrrL21IA32_MTRR_FIX4K_E8000E
0000000100028b24 r _ZN3msr4mtrrL21IA32_MTRR_FIX4K_F0000E
0000000100028b28 r _ZN3msr4mtrrL21IA32_MTRR_FIX4K_F8000E
0000000100028b2c r _ZN3msr4mtrrL8IA32_PATE
0000000100028b30 r _ZN3msr3vmxL14IA32_VMX_BASICE
0000000100028b34 r _ZN3msr3vmxL22IA32_VMX_PINBASED_CTLSE
0000000100028b38 r _ZN3msr3vmxL23IA32_VMX_PROCBASED_CTLSE
0000000100028b3c r _ZN3msr3vmxL18IA32_VMX_EXIT_CTLSE
0000000100028b40 r _ZN3msr3vmxL19IA32_VMX_ENTRY_CTLSE
0000000100028b44 r _ZN3msr3vmxL13IA32_VMX_MISCE
0000000100028b48 r _ZN3msr3vmxL19IA32_VMX_CR0_FIXED0E
0000000100028b4c r _ZN3msr3vmxL19IA32_VMX_CR0_FIXED1E
0000000100028b50 r _ZN3msr3vmxL19IA32_VMX_CR4_FIXED0E
0000000100028b54 r _ZN3msr3vmxL19IA32_VMX_CR4_FIXED1E
0000000100028b58 r _ZN3msr3vmxL18IA32_VMX_VMCS_ENUME
0000000100028b5c r _ZN3msr3vmxL24IA32_VMX_PROCBASED_CTLS2E
0000000100028b60 r _ZN3msr3vmxL21IA32_VMX_EPT_VPID_CAPE
0000000100028b64 r _ZN3msr3vmxL27IA32_VMX_TRUE_PINBASED_CTLSE
0000000100028b68 r _ZN3msr3vmxL28IA32_VMX_TRUE_PROCBASED_CTLSE
0000000100028b6c r _ZN3msr3vmxL23IA32_VMX_TRUE_EXIT_CTLSE
0000000100028b70 r _ZN3msr3vmxL24IA32_VMX_TRUE_ENTRY_CTLSE
0000000100028b74 r _ZN3msr3vmxL15IA32_VMX_VMFUNCE
0000000100028b78 r _ZN3msr3sgxL21IA32_SGXLEPUBKEYHASH0E
0000000100028b7c r _ZN3msr3sgxL21IA32_SGXLEPUBKEYHASH1E
0000000100028b80 r _ZN3msr3sgxL21IA32_SGXLEPUBKEYHASH2E
0000000100028b84 r _ZN3msr3sgxL21IA32_SGXLEPUBKEYHASH3E
0000000100028b88 r _ZN3msr4fredL14IA32_FRED_RSP0E
0000000100028b8c r _ZN3msr4fredL14IA32_FRED_RSP1E
0000000100028b90 r _ZN3msr4fredL14IA32_FRED_RSP2E
0000000100028b94 r _ZN3msr4fredL14IA32_FRED_RSP3E
0000000100028b98 r _ZN3msr4fredL17IA32_FRED_STKLVLSE
0000000100028b9c r _ZN3msr4fredL14IA32_FRED_SSP1E
0000000100028ba0 r _ZN3msr4fredL14IA32_FRED_SSP2E
0000000100028ba4 r _ZN3msr4fredL14IA32_FRED_SSP3E
0000000100028ba8 r _ZN3msr4fredL16IA32_FRED_CONFIGE
0000000100028bb0 r _ZN3msr4fred6configL8CSL_MASKE
0000000100028bb8 r _ZN3msr4fred6configL17RSP_DEC_STEP_MASKE
0000000100028bc0 r _ZN3msr4fred6configL15INT_STKLVL_MASKE
0000000100028bc8 r _ZN3msr4fred6configL15ENTRY_PAGE_MASKE
0000000100028bd0 r _ZN3msrL12IA32_PL0_SSPE
0000000100028bd4 r _ZN3msr5timerL17IA32_TSC_DEADLINEE
0000000100028bd8 r _ZN3msr7syscallL16IA32_SYSENTER_CSE
0000000100028bdc r _ZN3msr7syscallL17IA32_SYSENTER_ESPE
0000000100028be0 r _ZN3msr7syscallL17IA32_SYSENTER_EIPE
0000000100028be4 r _ZN3msr7syscallL9IA32_STARE
0000000100028be8 r _ZN3msr7syscallL10IA32_LSTARE
0000000100028bec r _ZN3msr7syscallL10IA32_FMASKE
0000000100028bf0 r _ZN3msr7syscallL12IA32_FS_BASEE
0000000100028bf4 r _ZN3msr7syscallL12IA32_GS_BASEE
0000000100028bf8 r _ZN3msr7syscallL19IA32_KERNEL_GS_BASEE
0000000100028bfc r _ZN3msr7syscallL12IA32_TSC_AUXE
0000000100028c00 r _ZN14x86_exceptionsL12DIVIDE_ERRORE
0000000100028c01 r _ZN14x86_exceptionsL5DEBUGE
0000000100028c02 r _ZN14x86_exceptionsL3NMIE
0000000100028c03 r _ZN14x86_exceptionsL10BREAKPOINTE
0000000100028c04 r _ZN14x86_exceptionsL8OVERFLOWE
0000000100028c05 r _ZN14x86_exceptionsL20BOUND_RANGE_EXCEEDEDE
0000000100028c06 r _ZN14x86_exceptionsL14INVALID_OPCODEE
0000000100028c07 r _ZN14x86_exceptionsL20DEVICE_NOT_AVAILABLEE
0000000100028c08 r _ZN14x86_exceptionsL12DOUBLE_FAULTE
0000000100028c09 r _ZN14x86_exceptionsL27COPROCESSOR_SEGMENT_OVERRUNE
0000000100028c0a r _ZN14x86_exceptionsL11INVALID_TSSE
0000000100028c0b r _ZN14x86_exceptionsL19SEGMENT_NOT_PRESENTE
0000000100028c0c r _ZN14x86_exceptionsL19STACK_SEGMENT_FAULTE
0000000100028c0d r _ZN14x86_exceptionsL24GENERAL_PROTECTION_FAULTE
0000000100028c0e r _ZN14x86_exceptionsL10PAGE_FAULTE
0000000100028c0f r _ZN14x86_exceptionsL13X87_FPU_ERRORE
0000000100028c10 r _ZN14x86_exceptionsL15ALIGNMENT_CHECKE
0000000100028c11 r _ZN14x86_exceptionsL13MACHINE_CHECKE
0000000100028c12 r _ZN14x86_exceptionsL29SIMD_FLOATING_POINT_EXCEPTIONE
0000000100028c13 r _ZN14x86_exceptionsL24VIRTUALIZATION_EXCEPTIONE
0000000100028c14 r _ZN14x86_exceptionsL28CONTROL_PROTECTION_EXCEPTIONE
0000000100028c15 r _ZN21x86_softinterrupt_abiL9ASM_PANICE
0000000100028c16 r _ZN21x86_softinterrupt_abiL12KTHREAD_CALLE
0000000100028c17 r _ZN21x86_softinterrupt_abiL14USER_ABI_ENTERE
0000000100028c18 r _ZN8ipi_vecsL11IPI_RUNAWAYE
0000000100028c19 r _ZN8ipi_vecsL14IPI_RETURNABLEE
0000000100028c1a r _ZN8ipi_vecsL8IPI_HALTE
0000000100028c1b r _ZN8ipi_vecsL11IPI_RESCHEDE
0000000100028c1c r _ZL18SUPRIOUS_INTERRUPT
0000000100028c20 r _ZL11ARCH_x86_64
0000000100028c28 r _ZL30TOKEN_FLAG_MASK_TOKEN_SCHEDULE
0000000100028c30 r _ZN6x2apic8ESR_BITSL19SEND_CHECKSUM_ERRORE
0000000100028c31 r _ZN6x2apic8ESR_BITSL22RECEIVE_CHECKSUM_ERRORE
0000000100028c32 r _ZN6x2apic8ESR_BITSL17SEND_ACCEPT_ERRORE
0000000100028c33 r _ZN6x2apic8ESR_BITSL20RECEIVE_ACCEPT_ERRORE
0000000100028c34 r _ZN6x2apic8ESR_BITSL16REDIRECTABLE_IPIE
0000000100028c35 r _ZN6x2apic8ESR_BITSL19SEND_ILLEGAL_VECTORE
0000000100028c36 r _ZN6x2apic8ESR_BITSL22RECEIVE_ILLEGAL_VECTORE
0000000100028c37 r _ZN6x2apic8ESR_BITSL21ILLEGAL_REGISTER_ADDRE
0000000100028c38 r _ZN6x2apic8ESR_BITSL14RESERVED_STARTE
0000000100028c39 r _ZN6x2apic8ESR_BITSL12RESERVED_ENDE
0000000100028c3c r _ZN6x2apic9ESR_MASKSL19SEND_CHECKSUM_ERRORE
0000000100028c40 r _ZN6x2apic9ESR_MASKSL22RECEIVE_CHECKSUM_ERRORE
0000000100028c44 r _ZN6x2apic9ESR_MASKSL17SEND_ACCEPT_ERRORE
0000000100028c48 r _ZN6x2apic9ESR_MASKSL20RECEIVE_ACCEPT_ERRORE
0000000100028c4c r _ZN6x2apic9ESR_MASKSL16REDIRECTABLE_IPIE
0000000100028c50 r _ZN6x2apic9ESR_MASKSL19SEND_ILLEGAL_VECTORE
0000000100028c54 r _ZN6x2apic9ESR_MASKSL22RECEIVE_ILLEGAL_VECTORE
0000000100028c58 r _ZN6x2apic9ESR_MASKSL21ILLEGAL_REGISTER_ADDRE
0000000100028c5c r _ZN6x2apic9ESR_MASKSL13RESERVED_MASKE
0000000100028c60 r _ZN6x2apic9ESR_MASKSL16ERROR_FLAGS_MASKE
0000000100028c64 r _ZN6x2apic9ESR_MASKSL15CHECKSUM_ERRORSE
0000000100028c68 r _ZN6x2apic9ESR_MASKSL13ACCEPT_ERRORSE
0000000100028c6c r _ZN6x2apic9ESR_MASKSL21ILLEGAL_VECTOR_ERRORSE
0000000100028c70 r _ZN6x2apic9ESR_MASKSL15ALL_ERROR_FLAGSE
0000000100028c78 r _ZN6x2apicL12ddline_timerE
0000000100028c80 r _ZN31INTERRUPT_SUB_MODULES_LOCATIONSL24LOCATION_CODE_PROCESSORSE
0000000100028c81 r _ZN31INTERRUPT_SUB_MODULES_LOCATIONSL13loc_processorE
0000000100028c82 r _ZN18MEMMODULE_LOCAIONSL7INVALIDE
0000000100028c83 r _ZN18MEMMODULE_LOCAIONSL25LOCATION_CODE_BASE_MEMMGRE
0000000100028c84 r _ZN18MEMMODULE_LOCAIONSL29LOCATION_CODE_PHYMEM_ACCESSORE
0000000100028c85 r _ZN18MEMMODULE_LOCAIONSL28LOCATION_CODE_KSPACE_MAP_MGRE
0000000100028c86 r _ZN18MEMMODULE_LOCAIONSL25LOCATION_CODE_ADDRESSPACEE
0000000100028c87 r _ZN18MEMMODULE_LOCAIONSL26LOCATION_CODE_OUT_SURFACESE
0000000100028c88 r _ZN18MEMMODULE_LOCAIONSL25LOCATION_CODE_KPOOLMEMMGRE
0000000100028c89 r _ZN18MEMMODULE_LOCAIONS18KPOOLMEMMGR_EVENTSL15EVENT_CODE_INITE
0000000100028c8a r _ZN18MEMMODULE_LOCAIONS18KPOOLMEMMGR_EVENTSL16EVENT_CODE_ALLOCE
0000000100028c8c r _ZN18MEMMODULE_LOCAIONS18KPOOLMEMMGR_EVENTS13ALLOC_RESULTS11FAIL_RESONSL28REASON_CODE_NO_AVALIABLE_MEME
0000000100028c8e r _ZN18MEMMODULE_LOCAIONS18KPOOLMEMMGR_EVENTS13ALLOC_RESULTS11FAIL_RESONSL24REASON_CODE_SIZE_IS_ZEROE
0000000100028c90 r _ZN18MEMMODULE_LOCAIONS18KPOOLMEMMGR_EVENTSL18EVENT_CODE_REALLOCE
0000000100028c92 r _ZN18MEMMODULE_LOCAIONS18KPOOLMEMMGR_EVENTS15REALLOC_RESULTS11FAIL_RESONSL31REASON_CODE_DEMAND_SIZE_IS_ZEROE
0000000100028c94 r _ZN18MEMMODULE_LOCAIONS18KPOOLMEMMGR_EVENTS15REALLOC_RESULTS11FAIL_RESONSL31REASON_CODE_PTR_NOT_IN_ANY_HEAPE
0000000100028c96 r _ZN18MEMMODULE_LOCAIONS18KPOOLMEMMGR_EVENTS15REALLOC_RESULTS11FAIL_RESONSL28REASON_CODE_NO_AVALIABLE_MEME
0000000100028c98 r _ZN18MEMMODULE_LOCAIONS18KPOOLMEMMGR_EVENTSL34EVENT_CODE_PER_PROCESSOR_HEAP_INITE
0000000100028c9a r _ZN18MEMMODULE_LOCAIONS18KPOOLMEMMGR_EVENTS31PER_PROCESSOR_HEAP_INIT_RESULTS11FAIL_RESONSL27REASON_CODE_ALREADY_ENABLEDE
0000000100028c9c r _ZN18MEMMODULE_LOCAIONS18KPOOLMEMMGR_EVENTS31PER_PROCESSOR_HEAP_INIT_RESULTS11FAIL_RESONSL31REASON_CODE_BAD_PROCESSOR_COUNTE
0000000100028c9e r _ZN18MEMMODULE_LOCAIONS18KPOOLMEMMGR_EVENTS31PER_PROCESSOR_HEAP_INIT_RESULTS11FAIL_RESONSL26REASON_CODE_NO_VADDR_SPACEE
0000000100028ca0 r _ZN18MEMMODULE_LOCAIONS18KPOOLMEMMGR_EVENTS31PER_PROCESSOR_HEAP_INIT_RESULTS11FAIL_RESONSL23REASON_CODE_VM_ADD_FAILE
0000000100028ca2 r _ZN18MEMMODULE_LOCAIONS18KPOOLMEMMGR_EVENTS31PER_PROCESSOR_HEAP_INIT_RESULTS11FAIL_RESONSL28REASON_CODE_IDX_OUT_OF_RANGEE
0000000100028ca4 r _ZN18MEMMODULE_LOCAIONS18KPOOLMEMMGR_EVENTS31PER_PROCESSOR_HEAP_INIT_RESULTS11FAIL_RESONSL31REASON_CODE_HEAP_ALREADY_EXISTSE
0000000100028ca6 r _ZN18MEMMODULE_LOCAIONS18KPOOLMEMMGR_EVENTS31PER_PROCESSOR_HEAP_INIT_RESULTS11FAIL_RESONSL26REASON_CODE_HEAP_NOT_EXISTE
0000000100028ca8 r _ZN18MEMMODULE_LOCAIONSL32LOCATION_CODE_KPOOLMEMMGR_HCB_V3E
0000000100028ca9 r _ZN18MEMMODULE_LOCAIONS25KPOOLMEMMGR_HCB_V3_EVENTSL17EVENT_CODE_ONLINEE
0000000100028caa r _ZN18MEMMODULE_LOCAIONS25KPOOLMEMMGR_HCB_V3_EVENTSL18EVENT_CODE_OFFLINEE
0000000100028cab r _ZN18MEMMODULE_LOCAIONS25KPOOLMEMMGR_HCB_V3_EVENTSL16EVENT_CODE_ALLOCE
0000000100028cac r _ZN18MEMMODULE_LOCAIONS25KPOOLMEMMGR_HCB_V3_EVENTSL15EVENT_CODE_FREEE
0000000100028cad r _ZN18MEMMODULE_LOCAIONS25KPOOLMEMMGR_HCB_V3_EVENTSL18EVENT_CODE_REALLOCE
0000000100028cae r _ZN18MEMMODULE_LOCAIONS25KPOOLMEMMGR_HCB_V3_EVENTSL25EVENT_CODE_INTERNAL_ALLOCE
0000000100028caf r _ZN18MEMMODULE_LOCAIONS25KPOOLMEMMGR_HCB_V3_EVENTSL24EVENT_CODE_INTERNAL_FREEE
0000000100028cb0 r _ZN18MEMMODULE_LOCAIONS25KPOOLMEMMGR_HCB_V3_EVENTSL16EVENT_CODE_CLEARE
0000000100028cb2 r _ZN18MEMMODULE_LOCAIONS25KPOOLMEMMGR_HCB_V3_EVENTS19COMMON_FAIL_REASONSL20REASON_CODE_BAD_ADDRE
0000000100028cb4 r _ZN18MEMMODULE_LOCAIONS25KPOOLMEMMGR_HCB_V3_EVENTS19COMMON_FAIL_REASONSL30REASON_CODE_ADDR_NOT_THIS_HEAPE
0000000100028cb6 r _ZN18MEMMODULE_LOCAIONS25KPOOLMEMMGR_HCB_V3_EVENTS20COMMON_FATAL_REASONSL30REASON_CODE_METADATA_DESTROYEDE
0000000100028cb8 r _ZN18MEMMODULE_LOCAIONS25KPOOLMEMMGR_HCB_V3_EVENTS22INTERNAL_ALLOC_RESULTS11FAIL_RESONSL30REASON_CODE_NO_AVALIABLE_BUDDYE
0000000100028cba r _ZN18MEMMODULE_LOCAIONS25KPOOLMEMMGR_HCB_V3_EVENTS13ALLOC_RESULTS12FAIL_REASONSL24REASON_CODE_SIZE_IS_ZEROE
0000000100028cbc r _ZN18MEMMODULE_LOCAIONS25KPOOLMEMMGR_HCB_V3_EVENTS13ALLOC_RESULTS12FAIL_REASONSL26REASON_CODE_SIZE_TOO_LARGEE
0000000100028cbe r _ZN18MEMMODULE_LOCAIONS25KPOOLMEMMGR_HCB_V3_EVENTS12FREE_RESULTS13FATAL_REASONSL18DOUBLE_FREE_DETECTE
0000000100028cc0 r _ZN18MEMMODULE_LOCAIONS25KPOOLMEMMGR_HCB_V3_EVENTS12FREE_RESULTS13FATAL_REASONSL22MERGE_BUT_ALREADY_FREEE
0000000100028cc8 r _ZL14HCB_evict_span
0000000100028cd0 r _ZL23HCB_evictor_sleep_cycle
0000000100028cd8 r _ZN8gdtentryL17execute_only_typeE
0000000100028cd9 r _ZN8gdtentryL15read_write_typeE
0000000100028cda r _ZN31INTERRUPT_SUB_MODULES_LOCATIONS21PROCESSORS_EVENT_CODEL25EVENT_CODE_RUNTIME_RESGISE
0000000100028cdb r _ZN31INTERRUPT_SUB_MODULES_LOCATIONS21PROCESSORS_EVENT_CODEL19EVENT_CODE_APS_INITE
0000000100028cdc r _ZN31INTERRUPT_SUB_MODULES_LOCATIONS21PROCESSORS_EVENT_CODE21APS_INIT_RESULTS_CODE17RETRY_REASON_CODEL43RETRY_REASON_CODE_DEPENDIES_NOT_INITIALIZEDE
0000000100028cde r _ZN31INTERRUPT_SUB_MODULES_LOCATIONS21PROCESSORS_EVENT_CODE21APS_INIT_RESULTS_CODE20PARTIAL_SUCCESS_CODEL42PARTIAL_SUCCESS_CODE_SOME_APS_IPI_TIME_OUTE
0000000100028cdf r _ZN31INTERRUPT_SUB_MODULES_LOCATIONS21PROCESSORS_EVENT_CODE21APS_INIT_RESULTS_CODE12FATAL_REASONL13AP_STAGE_FAILE
0000000100028ce0 r _ZL18kspace_DS_SS_entry
0000000100028ce8 r _ZL15kspace_CS_entry
0000000100028cf0 r _ZL21userspace_DS_SS_entry
0000000100028cf8 r _ZL18userspace_CS_entry
0000000100028d00 r _ZL10base0_mask
0000000100028d08 r _ZL10base1_mask
0000000100028d10 r _ZL10base2_mask
0000000100028d18 r _ZL10base3_mask
0000000100028d20 r _ZL13gdt_headcount
0000000100028d24 r _ZL23GS_SLOT_MAX_ENTRY_COUNT
0000000100028d28 r _ZL26STACK_PROTECTOR_CANARY_IDX
0000000100028d29 r _ZL8K_cs_idx
0000000100028d2a r _ZL11K_ds_ss_idx
0000000100028d2b r _ZL8U_cs_idx
0000000100028d2c r _ZL11U_ds_ss_idx
0000000100028d30 r _ZL14RSP0_STACKSIZE
0000000100028d34 r _ZL12DF_STACKSIZE
0000000100028d38 r _ZL12MC_STACKSIZE
0000000100028d3c r _ZL13NMI_STACKSIZE
0000000100028d40 r _ZL16BP_DBG_STACKSIZE
0000000100028d44 r _ZL16total_stack_size
0000000100028d48 r _ZL18L_PROCESSOR_GS_IDX
0000000100028f60 r _ZL10empty_kurd
0000000100028f68 r _ZN10level_codeL7INVALIDE
0000000100028f69 r _ZN10level_codeL4INFOE
0000000100028f6a r _ZN10level_codeL6NOTICEE
0000000100028f6b r _ZN10level_codeL7WARNINGE
0000000100028f6c r _ZN10level_codeL5ERRORE
0000000100028f6d r _ZN10level_codeL5FATALE
0000000100028f6e r _ZN11module_codeL7INVALIDE
0000000100028f6f r _ZN11module_codeL6MEMORYE
0000000100028f70 r _ZN11module_codeL9SCHEDULERE
0000000100028f71 r _ZN11module_codeL9INTERRUPTE
0000000100028f72 r _ZN11module_codeL8FIRMWAREE
0000000100028f73 r _ZN11module_codeL3VFSE
0000000100028f74 r _ZN11module_codeL3VMME
0000000100028f75 r _ZN11module_codeL5INFRAE
0000000100028f76 r _ZN11module_codeL6DEVICEE
0000000100028f77 r _ZN11module_codeL12DEVICES_COREE
0000000100028f78 r _ZN11module_codeL14HARDWARE_DEBUGE
0000000100028f79 r _ZN11module_codeL15USER_KERNEL_ABIE
0000000100028f7a r _ZN11module_codeL4TIMEE
0000000100028f7b r _ZN11module_codeL5PANICE
0000000100028f7c r _ZN11result_codeL7SUCCESSE
0000000100028f7e r _ZN11result_codeL23SUCCESS_BUT_SIDE_EFFECTE
0000000100028f80 r _ZN11result_codeL15PARTIAL_SUCCESSE
0000000100028f82 r _ZN11result_codeL4FAILE
0000000100028f84 r _ZN11result_codeL5RETRYE
0000000100028f86 r _ZN11result_codeL5FATALE
0000000100028f88 r _ZN10err_domainL7INVALIDE
0000000100028f89 r _ZN10err_domainL11CORE_MODULEE
0000000100028f8a r _ZN10err_domainL4ARCHE
0000000100028f8b r _ZN10err_domainL4USERE
0000000100028f8c r _ZN10err_domainL10HYPERVISORE
0000000100028f8d r _ZN10err_domainL11OUT_MODULESE
0000000100028f8e r _ZN10err_domainL11FILE_SYSTEME
0000000100028f8f r _ZN10err_domainL8HARDWAREE
0000000100028f90 r _ZL6LOCKED
0000000100028f91 r _ZL8UNLOCKED
0000000100028f98 r _ZL10PAGE_DIRTY
0000000100028fa0 r _ZL11PAGE_LOCKED
0000000100028fa8 r _ZL14PAGE_WRITEBACK
0000000100028fb0 r _ZL13PAGE_UPTODATE
0000000100028fb8 r _ZL13PAGE_SWAPPING
0000000100028fc0 r _ZL15PAGE_REFERENCED
0000000100028fc8 r _ZL11PAGE_ACTIVE
0000000100028fd0 r _ZL12PAGE_RECLAIM
0000000100028fd8 r _ZL25MAX_PHYADDR_1GB_PGS_COUNT
0000000100028fe0 r _ZL18DEFAULT_PAT_CONFIG
0000000100028fe8 r _ZL16KSPACE_RW_ACCESS
0000000100028fea r _ZL17KSPACE_RWX_ACCESS
0000000100028fec r _ZL19KSPACE_RW_UC_ACCESS
0000000100028fee r _ZL16KSPACE_RX_ACCESS
0000000100028ff0 r _ZL15KSPACE_R_ACCESS
0000000100028ff2 r _ZL20KSPACE_RWX_NG_ACCESS
0000000100028ff4 r _ZL19KSPACE_RW_WC_ACCESS
0000000100028ff6 r _ZL13default_flags
0000000100029000 r _ZL24BUDDY_ALLOC_DEFAULT_FLAG
0000000100029010 r _ZL22BUDDY_ALLOC_ALWAYS_TRY
0000000100029020 r _ZL20BUDDY_ALLOC_DOWN_4GB
0000000100029030 r _ZL33PASS_THROUGH_DEVICE_GRAPHICS_INFO
0000000100029034 r _ZL32VM_ID_architecture_agnostic_base
0000000100029038 r _ZL20VM_ID_BSP_INIT_STACK
0000000100029040 r _ZL19BSP_INIT_STACK_SIZE
0000000100029048 r _ZL25BSP_INIT_STACK_ALIGN_LOG2
000000010002904c r _ZL16VM_ID_FIRST_HEAP
0000000100029050 r _ZL21FIRST_HEAP_SIZE_CONST
0000000100029058 r _ZL21FIRST_HEAP_ALIGN_LOG2
000000010002905c r _ZL23VM_ID_FIRST_HEAP_BITMAP
0000000100029060 r _ZL22FIRST_HEAP_BITMAP_SIZE
0000000100029068 r _ZL28FIRST_HEAP_BITMAP_ALIGN_LOG2
000000010002906c r _ZL15VM_ID_LOGBUFFER
0000000100029070 r _ZL14LOGBUFFER_SIZE
0000000100029078 r _ZL20LOGBUFFER_ALIGN_LOG2
000000010002907c r _ZL14VM_ID_KSYMBOLS
0000000100029080 r _ZL13VM_ID_MEM_MAP
0000000100029084 r _ZL18VM_ID_BCBS_BITMAPS
0000000100029088 r _ZL18MEM_MAP_ALIGN_LOG2
000000010002908c r _ZL20VM_ID_UP_KSPACE_PDPT
0000000100029090 r _ZL20VM_ID_GRAPHIC_BUFFER
0000000100029098 r _ZL19UP_KSPACE_PDPT_SIZE
00000001000290a0 r _ZL25UP_KSPACE_PDPT_ALIGN_LOG2
00000001000290a4 r _ZL15VM_ID_HPET_MMIO
00000001000290a8 r _ZN23COREHARDWARES_LOCATIONSL27LOCATION_CODE_GOP_PRIMITIVEE
00000001000290a9 r _ZN23COREHARDWARES_LOCATIONS28GOP_PRIMITIVE_DRIVERS_EVENTSL4INITE
00000001000290aa r _ZN23COREHARDWARES_LOCATIONS28GOP_PRIMITIVE_DRIVERS_EVENTS12INIT_RESULTS12FAIL_REASONSL21PARAM_METAINF_NULLPTRE
00000001000290ac r _ZN23COREHARDWARES_LOCATIONS28GOP_PRIMITIVE_DRIVERS_EVENTS12INIT_RESULTS12FAIL_REASONSL9BAD_PARAME
00000001000290ae r _ZN23COREHARDWARES_LOCATIONS28GOP_PRIMITIVE_DRIVERS_EVENTS12INIT_RESULTS12FAIL_REASONSL13ALLREADE_INITE
00000001000290b0 r _ZN23COREHARDWARES_LOCATIONSL22LOCATION_CODE_INIT_GOPE
00000001000290b1 r _ZN23COREHARDWARES_LOCATIONS15INIT_GOP_EVENTSL4INITE
00000001000290b2 r _ZN23COREHARDWARES_LOCATIONS15INIT_GOP_EVENTS12INIT_RESULTS12FAIL_REASONSL21PARAM_METAINF_NULLPTRE
00000001000290b4 r _ZN23COREHARDWARES_LOCATIONS15INIT_GOP_EVENTS12INIT_RESULTS12FAIL_REASONSL9BAD_PARAME
00000001000290b6 r _ZN23COREHARDWARES_LOCATIONS15INIT_GOP_EVENTS12INIT_RESULTS12FAIL_REASONSL13ALLREADE_INITE
00000001000290b8 r _ZN23COREHARDWARES_LOCATIONS15INIT_GOP_EVENTS12INIT_RESULTS12FAIL_REASONSL20MODIFY_ACCESS_FAILEDE
00000001000290ba r _ZN28infrastructure_location_codeL30location_code_init_textconsoleE
00000001000290bb r _ZN28infrastructure_location_code23init_textconsole_eventsL22textconsole_event_initE
00000001000290bc r _ZN28infrastructure_location_code23init_textconsole_events12init_results12fail_reasonsL19font_bitmap_is_nullE
00000001000290bd r _ZN28infrastructure_location_code23init_textconsole_events12init_results12fail_reasonsL13gfx_not_readyE
00000001000290be r _ZN28infrastructure_location_code23init_textconsole_events12init_results12fail_reasonsL13bad_cell_sizeE
00000001000290bf r _ZN28infrastructure_location_code23init_textconsole_events12init_results12fail_reasonsL9zero_gridE
00000001000290c0 r _ZN28infrastructure_location_code23init_textconsole_events12init_results12fail_reasonsL12already_initE
00000001000290d0 r _ZN12_GLOBAL__N_1L15hex_chars_tableE
0000000100029400 r _ZL28PROCESSOR_RSP0_STACK_BTM_IDX
0000000100029401 r _ZL21PROCESSOR_ID_GS_INDEX
0000000100029402 r _ZL21TIME_COMPLEX_GS_INDEX
0000000100029403 r _ZL35PROCESSOR_NOW_RUNNING_TASK_GS_INDEX
0000000100029404 r _ZL22PROCESSOR_USER_RSP_TMP
0000000100029405 r _ZL20SLOT_IS_SLOT_MAX_IDX
0000000100029408 r _ZL10empty_kurd
0000000100029410 r _ZN10level_codeL7INVALIDE
0000000100029411 r _ZN10level_codeL4INFOE
0000000100029412 r _ZN10level_codeL6NOTICEE
0000000100029413 r _ZN10level_codeL7WARNINGE
0000000100029414 r _ZN10level_codeL5ERRORE
0000000100029415 r _ZN10level_codeL5FATALE
0000000100029416 r _ZN11module_codeL7INVALIDE
0000000100029417 r _ZN11module_codeL6MEMORYE
0000000100029418 r _ZN11module_codeL9SCHEDULERE
0000000100029419 r _ZN11module_codeL9INTERRUPTE
000000010002941a r _ZN11module_codeL8FIRMWAREE
000000010002941b r _ZN11module_codeL3VFSE
000000010002941c r _ZN11module_codeL3VMME
000000010002941d r _ZN11module_codeL5INFRAE
000000010002941e r _ZN11module_codeL6DEVICEE
000000010002941f r _ZN11module_codeL12DEVICES_COREE
0000000100029420 r _ZN11module_codeL14HARDWARE_DEBUGE
0000000100029421 r _ZN11module_codeL15USER_KERNEL_ABIE
0000000100029422 r _ZN11module_codeL4TIMEE
0000000100029423 r _ZN11module_codeL5PANICE
0000000100029424 r _ZN11result_codeL7SUCCESSE
0000000100029426 r _ZN11result_codeL23SUCCESS_BUT_SIDE_EFFECTE
0000000100029428 r _ZN11result_codeL15PARTIAL_SUCCESSE
000000010002942a r _ZN11result_codeL4FAILE
000000010002942c r _ZN11result_codeL5RETRYE
000000010002942e r _ZN11result_codeL5FATALE
0000000100029430 r _ZN10err_domainL7INVALIDE
0000000100029431 r _ZN10err_domainL11CORE_MODULEE
0000000100029432 r _ZN10err_domainL4ARCHE
0000000100029433 r _ZN10err_domainL4USERE
0000000100029434 r _ZN10err_domainL10HYPERVISORE
0000000100029435 r _ZN10err_domainL11OUT_MODULESE
0000000100029436 r _ZN10err_domainL11FILE_SYSTEME
0000000100029437 r _ZN10err_domainL8HARDWAREE
0000000100029438 r _ZL6LOCKED
0000000100029439 r _ZL8UNLOCKED
0000000100029440 r _ZL10PAGE_DIRTY
0000000100029448 r _ZL11PAGE_LOCKED
0000000100029450 r _ZL14PAGE_WRITEBACK
0000000100029458 r _ZL13PAGE_UPTODATE
0000000100029460 r _ZL13PAGE_SWAPPING
0000000100029468 r _ZL15PAGE_REFERENCED
0000000100029470 r _ZL11PAGE_ACTIVE
0000000100029478 r _ZL12PAGE_RECLAIM
0000000100029480 r _ZL25MAX_PHYADDR_1GB_PGS_COUNT
0000000100029488 r _ZL18DEFAULT_PAT_CONFIG
0000000100029490 r _ZL16KSPACE_RW_ACCESS
0000000100029492 r _ZL17KSPACE_RWX_ACCESS
0000000100029494 r _ZL19KSPACE_RW_UC_ACCESS
0000000100029496 r _ZL16KSPACE_RX_ACCESS
0000000100029498 r _ZL15KSPACE_R_ACCESS
000000010002949a r _ZL20KSPACE_RWX_NG_ACCESS
000000010002949c r _ZL19KSPACE_RW_WC_ACCESS
000000010002949e r _ZL13default_flags
00000001000294a0 r _ZL24BUDDY_ALLOC_DEFAULT_FLAG
00000001000294b0 r _ZL22BUDDY_ALLOC_ALWAYS_TRY
00000001000294c0 r _ZL20BUDDY_ALLOC_DOWN_4GB
00000001000294d0 r _ZL10empty_kurd
00000001000294d8 r _ZN10level_codeL7INVALIDE
00000001000294d9 r _ZN10level_codeL4INFOE
00000001000294da r _ZN10level_codeL6NOTICEE
00000001000294db r _ZN10level_codeL7WARNINGE
00000001000294dc r _ZN10level_codeL5ERRORE
00000001000294dd r _ZN10level_codeL5FATALE
00000001000294de r _ZN11module_codeL7INVALIDE
00000001000294df r _ZN11module_codeL6MEMORYE
00000001000294e0 r _ZN11module_codeL9SCHEDULERE
00000001000294e1 r _ZN11module_codeL9INTERRUPTE
00000001000294e2 r _ZN11module_codeL8FIRMWAREE
00000001000294e3 r _ZN11module_codeL3VFSE
00000001000294e4 r _ZN11module_codeL3VMME
00000001000294e5 r _ZN11module_codeL5INFRAE
00000001000294e6 r _ZN11module_codeL6DEVICEE
00000001000294e7 r _ZN11module_codeL12DEVICES_COREE
00000001000294e8 r _ZN11module_codeL14HARDWARE_DEBUGE
00000001000294e9 r _ZN11module_codeL15USER_KERNEL_ABIE
00000001000294ea r _ZN11module_codeL4TIMEE
00000001000294eb r _ZN11module_codeL5PANICE
00000001000294ec r _ZN11result_codeL7SUCCESSE
00000001000294ee r _ZN11result_codeL23SUCCESS_BUT_SIDE_EFFECTE
00000001000294f0 r _ZN11result_codeL15PARTIAL_SUCCESSE
00000001000294f2 r _ZN11result_codeL4FAILE
00000001000294f4 r _ZN11result_codeL5RETRYE
00000001000294f6 r _ZN11result_codeL5FATALE
00000001000294f8 r _ZN10err_domainL7INVALIDE
00000001000294f9 r _ZN10err_domainL11CORE_MODULEE
00000001000294fa r _ZN10err_domainL4ARCHE
00000001000294fb r _ZN10err_domainL4USERE
00000001000294fc r _ZN10err_domainL10HYPERVISORE
00000001000294fd r _ZN10err_domainL11OUT_MODULESE
00000001000294fe r _ZN10err_domainL11FILE_SYSTEME
00000001000294ff r _ZN10err_domainL8HARDWAREE
0000000100029500 r _ZN28infrastructure_location_codeL28LOCATION_CODE_BCB_FOUNDATIONE
0000000100029501 r _ZN28infrastructure_location_code14BCB_foundation20common_fatal_reasonsL15BTREE_VIOLATIONE
0000000100029502 r _ZN28infrastructure_location_code14BCB_foundation20common_fatal_reasonsL20FREE_COUNT_VIOLAITONE
0000000100029503 r _ZN28infrastructure_location_code14BCB_foundation19common_fail_reasonsL18ORDER_OUT_OF_RANGEE
0000000100029504 r _ZN28infrastructure_location_code14BCB_foundation19common_fail_reasonsL15TARGET_NOT_FREEE
0000000100029505 r _ZN28infrastructure_location_code14BCB_foundationL14FIND_CANDIDATEE
0000000100029506 r _ZN28infrastructure_location_code14BCB_foundation22FIND_CANDIDATE_RESULTS12fail_reasonsL17no_more_candidateE
0000000100029507 r _ZN28infrastructure_location_code14BCB_foundationL5SPLITE
0000000100029508 r _ZN28infrastructure_location_code14BCB_foundation22SPLIT_INTERVAL_RESULTS12fail_reasonsL15TARGET_NOT_FREEE
0000000100029509 r _ZN28infrastructure_location_code14BCB_foundationL10OCCUPY_TRYE
000000010002950a r _ZN28infrastructure_location_code14BCB_foundation18OCCUPY_TRY_RESULTS12fail_reasonsL15TARGET_NOT_FREEE
000000010002950b r _ZN28infrastructure_location_code14BCB_foundationL12ORDER_RETURNE
0000000100029510 V _ZTV17BCB_fnd_DeepFirst
0000000100029558 r _ZL10empty_kurd
0000000100029560 r _ZN10level_codeL7INVALIDE
0000000100029561 r _ZN10level_codeL4INFOE
0000000100029562 r _ZN10level_codeL6NOTICEE
0000000100029563 r _ZN10level_codeL7WARNINGE
0000000100029564 r _ZN10level_codeL5ERRORE
0000000100029565 r _ZN10level_codeL5FATALE
0000000100029566 r _ZN11module_codeL7INVALIDE
0000000100029567 r _ZN11module_codeL6MEMORYE
0000000100029568 r _ZN11module_codeL9SCHEDULERE
0000000100029569 r _ZN11module_codeL9INTERRUPTE
000000010002956a r _ZN11module_codeL8FIRMWAREE
000000010002956b r _ZN11module_codeL3VFSE
000000010002956c r _ZN11module_codeL3VMME
000000010002956d r _ZN11module_codeL5INFRAE
000000010002956e r _ZN11module_codeL6DEVICEE
000000010002956f r _ZN11module_codeL12DEVICES_COREE
0000000100029570 r _ZN11module_codeL14HARDWARE_DEBUGE
0000000100029571 r _ZN11module_codeL15USER_KERNEL_ABIE
0000000100029572 r _ZN11module_codeL4TIMEE
0000000100029573 r _ZN11module_codeL5PANICE
0000000100029574 r _ZN11result_codeL7SUCCESSE
0000000100029576 r _ZN11result_codeL23SUCCESS_BUT_SIDE_EFFECTE
0000000100029578 r _ZN11result_codeL15PARTIAL_SUCCESSE
000000010002957a r _ZN11result_codeL4FAILE
000000010002957c r _ZN11result_codeL5RETRYE
000000010002957e r _ZN11result_codeL5FATALE
0000000100029580 r _ZN10err_domainL7INVALIDE
0000000100029581 r _ZN10err_domainL11CORE_MODULEE
0000000100029582 r _ZN10err_domainL4ARCHE
0000000100029583 r _ZN10err_domainL4USERE
0000000100029584 r _ZN10err_domainL10HYPERVISORE
0000000100029585 r _ZN10err_domainL11OUT_MODULESE
0000000100029586 r _ZN10err_domainL11FILE_SYSTEME
0000000100029587 r _ZN10err_domainL8HARDWAREE
0000000100029590 r _ZL10empty_kurd
0000000100029598 r _ZN10level_codeL7INVALIDE
0000000100029599 r _ZN10level_codeL4INFOE
000000010002959a r _ZN10level_codeL6NOTICEE
000000010002959b r _ZN10level_codeL7WARNINGE
000000010002959c r _ZN10level_codeL5ERRORE
000000010002959d r _ZN10level_codeL5FATALE
000000010002959e r _ZN11module_codeL7INVALIDE
000000010002959f r _ZN11module_codeL6MEMORYE
00000001000295a0 r _ZN11module_codeL9SCHEDULERE
00000001000295a1 r _ZN11module_codeL9INTERRUPTE
00000001000295a2 r _ZN11module_codeL8FIRMWAREE
00000001000295a3 r _ZN11module_codeL3VFSE
00000001000295a4 r _ZN11module_codeL3VMME
00000001000295a5 r _ZN11module_codeL5INFRAE
00000001000295a6 r _ZN11module_codeL6DEVICEE
00000001000295a7 r _ZN11module_codeL12DEVICES_COREE
00000001000295a8 r _ZN11module_codeL14HARDWARE_DEBUGE
00000001000295a9 r _ZN11module_codeL15USER_KERNEL_ABIE
00000001000295aa r _ZN11module_codeL4TIMEE
00000001000295ab r _ZN11module_codeL5PANICE
00000001000295ac r _ZN11result_codeL7SUCCESSE
00000001000295ae r _ZN11result_codeL23SUCCESS_BUT_SIDE_EFFECTE
00000001000295b0 r _ZN11result_codeL15PARTIAL_SUCCESSE
00000001000295b2 r _ZN11result_codeL4FAILE
00000001000295b4 r _ZN11result_codeL5RETRYE
00000001000295b6 r _ZN11result_codeL5FATALE
00000001000295b8 r _ZN10err_domainL7INVALIDE
00000001000295b9 r _ZN10err_domainL11CORE_MODULEE
00000001000295ba r _ZN10err_domainL4ARCHE
00000001000295bb r _ZN10err_domainL4USERE
00000001000295bc r _ZN10err_domainL10HYPERVISORE
00000001000295bd r _ZN10err_domainL11OUT_MODULESE
00000001000295be r _ZN10err_domainL11FILE_SYSTEME
00000001000295bf r _ZN10err_domainL8HARDWAREE
00000001000295c0 r _ZL6LOCKED
00000001000295c1 r _ZL8UNLOCKED
00000001000295c8 r _ZL10PAGE_DIRTY
00000001000295d0 r _ZL11PAGE_LOCKED
00000001000295d8 r _ZL14PAGE_WRITEBACK
00000001000295e0 r _ZL13PAGE_UPTODATE
00000001000295e8 r _ZL13PAGE_SWAPPING
00000001000295f0 r _ZL15PAGE_REFERENCED
00000001000295f8 r _ZL11PAGE_ACTIVE
0000000100029600 r _ZL12PAGE_RECLAIM
0000000100029608 r _ZL25MAX_PHYADDR_1GB_PGS_COUNT
0000000100029610 r _ZL18DEFAULT_PAT_CONFIG
0000000100029618 r _ZL16KSPACE_RW_ACCESS
000000010002961a r _ZL17KSPACE_RWX_ACCESS
000000010002961c r _ZL19KSPACE_RW_UC_ACCESS
000000010002961e r _ZL16KSPACE_RX_ACCESS
0000000100029620 r _ZL15KSPACE_R_ACCESS
0000000100029622 r _ZL20KSPACE_RWX_NG_ACCESS
0000000100029624 r _ZL19KSPACE_RW_WC_ACCESS
0000000100029626 r _ZL13default_flags
0000000100029630 r _ZL24BUDDY_ALLOC_DEFAULT_FLAG
0000000100029640 r _ZL22BUDDY_ALLOC_ALWAYS_TRY
0000000100029650 r _ZL20BUDDY_ALLOC_DOWN_4GB
0000000100029660 r _ZN14x86_exceptionsL12DIVIDE_ERRORE
0000000100029661 r _ZN14x86_exceptionsL5DEBUGE
0000000100029662 r _ZN14x86_exceptionsL3NMIE
0000000100029663 r _ZN14x86_exceptionsL10BREAKPOINTE
0000000100029664 r _ZN14x86_exceptionsL8OVERFLOWE
0000000100029665 r _ZN14x86_exceptionsL20BOUND_RANGE_EXCEEDEDE
0000000100029666 r _ZN14x86_exceptionsL14INVALID_OPCODEE
0000000100029667 r _ZN14x86_exceptionsL20DEVICE_NOT_AVAILABLEE
0000000100029668 r _ZN14x86_exceptionsL12DOUBLE_FAULTE
0000000100029669 r _ZN14x86_exceptionsL27COPROCESSOR_SEGMENT_OVERRUNE
000000010002966a r _ZN14x86_exceptionsL11INVALID_TSSE
000000010002966b r _ZN14x86_exceptionsL19SEGMENT_NOT_PRESENTE
000000010002966c r _ZN14x86_exceptionsL19STACK_SEGMENT_FAULTE
000000010002966d r _ZN14x86_exceptionsL24GENERAL_PROTECTION_FAULTE
000000010002966e r _ZN14x86_exceptionsL10PAGE_FAULTE
000000010002966f r _ZN14x86_exceptionsL13X87_FPU_ERRORE
0000000100029670 r _ZN14x86_exceptionsL15ALIGNMENT_CHECKE
0000000100029671 r _ZN14x86_exceptionsL13MACHINE_CHECKE
0000000100029672 r _ZN14x86_exceptionsL29SIMD_FLOATING_POINT_EXCEPTIONE
0000000100029673 r _ZN14x86_exceptionsL24VIRTUALIZATION_EXCEPTIONE
0000000100029674 r _ZN14x86_exceptionsL28CONTROL_PROTECTION_EXCEPTIONE
0000000100029675 r _ZN21x86_softinterrupt_abiL9ASM_PANICE
0000000100029676 r _ZN21x86_softinterrupt_abiL12KTHREAD_CALLE
0000000100029677 r _ZN21x86_softinterrupt_abiL14USER_ABI_ENTERE
0000000100029678 r _ZN8ipi_vecsL11IPI_RUNAWAYE
0000000100029679 r _ZN8ipi_vecsL14IPI_RETURNABLEE
000000010002967a r _ZN8ipi_vecsL8IPI_HALTE
000000010002967b r _ZN8ipi_vecsL11IPI_RESCHEDE
000000010002967c r _ZL18SUPRIOUS_INTERRUPT
0000000100029680 r _ZL11ARCH_x86_64
0000000100029688 r _ZL30TOKEN_FLAG_MASK_TOKEN_SCHEDULE
0000000100029690 r _ZN31INTERRUPT_SUB_MODULES_LOCATIONSL24LOCATION_CODE_PROCESSORSE
0000000100029691 r _ZN31INTERRUPT_SUB_MODULES_LOCATIONSL13loc_processorE
0000000100029692 r _ZN18MEMMODULE_LOCAIONSL7INVALIDE
0000000100029693 r _ZN18MEMMODULE_LOCAIONSL25LOCATION_CODE_BASE_MEMMGRE
0000000100029694 r _ZN18MEMMODULE_LOCAIONSL29LOCATION_CODE_PHYMEM_ACCESSORE
0000000100029695 r _ZN18MEMMODULE_LOCAIONSL28LOCATION_CODE_KSPACE_MAP_MGRE
0000000100029696 r _ZN18MEMMODULE_LOCAIONSL25LOCATION_CODE_ADDRESSPACEE
0000000100029697 r _ZN18MEMMODULE_LOCAIONSL26LOCATION_CODE_OUT_SURFACESE
0000000100029698 r _ZL33PASS_THROUGH_DEVICE_GRAPHICS_INFO
000000010002969c r _ZL32VM_ID_architecture_agnostic_base
00000001000296a0 r _ZL20VM_ID_BSP_INIT_STACK
00000001000296a8 r _ZL19BSP_INIT_STACK_SIZE
00000001000296b0 r _ZL25BSP_INIT_STACK_ALIGN_LOG2
00000001000296b4 r _ZL16VM_ID_FIRST_HEAP
00000001000296b8 r _ZL21FIRST_HEAP_SIZE_CONST
00000001000296c0 r _ZL21FIRST_HEAP_ALIGN_LOG2
00000001000296c4 r _ZL23VM_ID_FIRST_HEAP_BITMAP
00000001000296c8 r _ZL22FIRST_HEAP_BITMAP_SIZE
00000001000296d0 r _ZL28FIRST_HEAP_BITMAP_ALIGN_LOG2
00000001000296d4 r _ZL15VM_ID_LOGBUFFER
00000001000296d8 r _ZL14LOGBUFFER_SIZE
00000001000296e0 r _ZL20LOGBUFFER_ALIGN_LOG2
00000001000296e4 r _ZL14VM_ID_KSYMBOLS
00000001000296e8 r _ZL13VM_ID_MEM_MAP
00000001000296ec r _ZL18VM_ID_BCBS_BITMAPS
00000001000296f0 r _ZL18MEM_MAP_ALIGN_LOG2
00000001000296f4 r _ZL20VM_ID_UP_KSPACE_PDPT
00000001000296f8 r _ZL20VM_ID_GRAPHIC_BUFFER
0000000100029700 r _ZL19UP_KSPACE_PDPT_SIZE
0000000100029708 r _ZL25UP_KSPACE_PDPT_ALIGN_LOG2
000000010002970c r _ZL15VM_ID_HPET_MMIO
0000000100029710 r _ZN18MEMMODULE_LOCAIONSL25LOCATION_CODE_KPOOLMEMMGRE
0000000100029711 r _ZN18MEMMODULE_LOCAIONS18KPOOLMEMMGR_EVENTSL15EVENT_CODE_INITE
0000000100029712 r _ZN18MEMMODULE_LOCAIONS18KPOOLMEMMGR_EVENTSL16EVENT_CODE_ALLOCE
0000000100029714 r _ZN18MEMMODULE_LOCAIONS18KPOOLMEMMGR_EVENTS13ALLOC_RESULTS11FAIL_RESONSL28REASON_CODE_NO_AVALIABLE_MEME
0000000100029716 r _ZN18MEMMODULE_LOCAIONS18KPOOLMEMMGR_EVENTS13ALLOC_RESULTS11FAIL_RESONSL24REASON_CODE_SIZE_IS_ZEROE
0000000100029718 r _ZN18MEMMODULE_LOCAIONS18KPOOLMEMMGR_EVENTSL18EVENT_CODE_REALLOCE
000000010002971a r _ZN18MEMMODULE_LOCAIONS18KPOOLMEMMGR_EVENTS15REALLOC_RESULTS11FAIL_RESONSL31REASON_CODE_DEMAND_SIZE_IS_ZEROE
000000010002971c r _ZN18MEMMODULE_LOCAIONS18KPOOLMEMMGR_EVENTS15REALLOC_RESULTS11FAIL_RESONSL31REASON_CODE_PTR_NOT_IN_ANY_HEAPE
000000010002971e r _ZN18MEMMODULE_LOCAIONS18KPOOLMEMMGR_EVENTS15REALLOC_RESULTS11FAIL_RESONSL28REASON_CODE_NO_AVALIABLE_MEME
0000000100029720 r _ZN18MEMMODULE_LOCAIONS18KPOOLMEMMGR_EVENTSL34EVENT_CODE_PER_PROCESSOR_HEAP_INITE
0000000100029722 r _ZN18MEMMODULE_LOCAIONS18KPOOLMEMMGR_EVENTS31PER_PROCESSOR_HEAP_INIT_RESULTS11FAIL_RESONSL27REASON_CODE_ALREADY_ENABLEDE
0000000100029724 r _ZN18MEMMODULE_LOCAIONS18KPOOLMEMMGR_EVENTS31PER_PROCESSOR_HEAP_INIT_RESULTS11FAIL_RESONSL31REASON_CODE_BAD_PROCESSOR_COUNTE
0000000100029726 r _ZN18MEMMODULE_LOCAIONS18KPOOLMEMMGR_EVENTS31PER_PROCESSOR_HEAP_INIT_RESULTS11FAIL_RESONSL26REASON_CODE_NO_VADDR_SPACEE
0000000100029728 r _ZN18MEMMODULE_LOCAIONS18KPOOLMEMMGR_EVENTS31PER_PROCESSOR_HEAP_INIT_RESULTS11FAIL_RESONSL23REASON_CODE_VM_ADD_FAILE
000000010002972a r _ZN18MEMMODULE_LOCAIONS18KPOOLMEMMGR_EVENTS31PER_PROCESSOR_HEAP_INIT_RESULTS11FAIL_RESONSL28REASON_CODE_IDX_OUT_OF_RANGEE
000000010002972c r _ZN18MEMMODULE_LOCAIONS18KPOOLMEMMGR_EVENTS31PER_PROCESSOR_HEAP_INIT_RESULTS11FAIL_RESONSL31REASON_CODE_HEAP_ALREADY_EXISTSE
000000010002972e r _ZN18MEMMODULE_LOCAIONS18KPOOLMEMMGR_EVENTS31PER_PROCESSOR_HEAP_INIT_RESULTS11FAIL_RESONSL26REASON_CODE_HEAP_NOT_EXISTE
0000000100029730 r _ZN18MEMMODULE_LOCAIONSL32LOCATION_CODE_KPOOLMEMMGR_HCB_V3E
0000000100029731 r _ZN18MEMMODULE_LOCAIONS25KPOOLMEMMGR_HCB_V3_EVENTSL17EVENT_CODE_ONLINEE
0000000100029732 r _ZN18MEMMODULE_LOCAIONS25KPOOLMEMMGR_HCB_V3_EVENTSL18EVENT_CODE_OFFLINEE
0000000100029733 r _ZN18MEMMODULE_LOCAIONS25KPOOLMEMMGR_HCB_V3_EVENTSL16EVENT_CODE_ALLOCE
0000000100029734 r _ZN18MEMMODULE_LOCAIONS25KPOOLMEMMGR_HCB_V3_EVENTSL15EVENT_CODE_FREEE
0000000100029735 r _ZN18MEMMODULE_LOCAIONS25KPOOLMEMMGR_HCB_V3_EVENTSL18EVENT_CODE_REALLOCE
0000000100029736 r _ZN18MEMMODULE_LOCAIONS25KPOOLMEMMGR_HCB_V3_EVENTSL25EVENT_CODE_INTERNAL_ALLOCE
0000000100029737 r _ZN18MEMMODULE_LOCAIONS25KPOOLMEMMGR_HCB_V3_EVENTSL24EVENT_CODE_INTERNAL_FREEE
0000000100029738 r _ZN18MEMMODULE_LOCAIONS25KPOOLMEMMGR_HCB_V3_EVENTSL16EVENT_CODE_CLEARE
000000010002973a r _ZN18MEMMODULE_LOCAIONS25KPOOLMEMMGR_HCB_V3_EVENTS19COMMON_FAIL_REASONSL20REASON_CODE_BAD_ADDRE
000000010002973c r _ZN18MEMMODULE_LOCAIONS25KPOOLMEMMGR_HCB_V3_EVENTS19COMMON_FAIL_REASONSL30REASON_CODE_ADDR_NOT_THIS_HEAPE
000000010002973e r _ZN18MEMMODULE_LOCAIONS25KPOOLMEMMGR_HCB_V3_EVENTS20COMMON_FATAL_REASONSL30REASON_CODE_METADATA_DESTROYEDE
0000000100029740 r _ZN18MEMMODULE_LOCAIONS25KPOOLMEMMGR_HCB_V3_EVENTS22INTERNAL_ALLOC_RESULTS11FAIL_RESONSL30REASON_CODE_NO_AVALIABLE_BUDDYE
0000000100029742 r _ZN18MEMMODULE_LOCAIONS25KPOOLMEMMGR_HCB_V3_EVENTS13ALLOC_RESULTS12FAIL_REASONSL24REASON_CODE_SIZE_IS_ZEROE
0000000100029744 r _ZN18MEMMODULE_LOCAIONS25KPOOLMEMMGR_HCB_V3_EVENTS13ALLOC_RESULTS12FAIL_REASONSL26REASON_CODE_SIZE_TOO_LARGEE
0000000100029746 r _ZN18MEMMODULE_LOCAIONS25KPOOLMEMMGR_HCB_V3_EVENTS12FREE_RESULTS13FATAL_REASONSL18DOUBLE_FREE_DETECTE
0000000100029748 r _ZN18MEMMODULE_LOCAIONS25KPOOLMEMMGR_HCB_V3_EVENTS12FREE_RESULTS13FATAL_REASONSL22MERGE_BUT_ALREADY_FREEE
0000000100029750 r _ZL14HCB_evict_span
0000000100029758 r _ZL23HCB_evictor_sleep_cycle
0000000100029760 r _ZN8gdtentryL17execute_only_typeE
0000000100029761 r _ZN8gdtentryL15read_write_typeE
0000000100029762 r _ZN31INTERRUPT_SUB_MODULES_LOCATIONS21PROCESSORS_EVENT_CODEL25EVENT_CODE_RUNTIME_RESGISE
0000000100029763 r _ZN31INTERRUPT_SUB_MODULES_LOCATIONS21PROCESSORS_EVENT_CODEL19EVENT_CODE_APS_INITE
0000000100029764 r _ZN31INTERRUPT_SUB_MODULES_LOCATIONS21PROCESSORS_EVENT_CODE21APS_INIT_RESULTS_CODE17RETRY_REASON_CODEL43RETRY_REASON_CODE_DEPENDIES_NOT_INITIALIZEDE
0000000100029766 r _ZN31INTERRUPT_SUB_MODULES_LOCATIONS21PROCESSORS_EVENT_CODE21APS_INIT_RESULTS_CODE20PARTIAL_SUCCESS_CODEL42PARTIAL_SUCCESS_CODE_SOME_APS_IPI_TIME_OUTE
0000000100029767 r _ZN31INTERRUPT_SUB_MODULES_LOCATIONS21PROCESSORS_EVENT_CODE21APS_INIT_RESULTS_CODE12FATAL_REASONL13AP_STAGE_FAILE
0000000100029768 r _ZL18kspace_DS_SS_entry
0000000100029770 r _ZL15kspace_CS_entry
0000000100029778 r _ZL21userspace_DS_SS_entry
0000000100029780 r _ZL18userspace_CS_entry
0000000100029788 r _ZL10base0_mask
0000000100029790 r _ZL10base1_mask
0000000100029798 r _ZL10base2_mask
00000001000297a0 r _ZL10base3_mask
00000001000297a8 r _ZL13gdt_headcount
00000001000297ac r _ZL23GS_SLOT_MAX_ENTRY_COUNT
00000001000297b0 r _ZL26STACK_PROTECTOR_CANARY_IDX
00000001000297b1 r _ZL8K_cs_idx
00000001000297b2 r _ZL11K_ds_ss_idx
00000001000297b3 r _ZL8U_cs_idx
00000001000297b4 r _ZL11U_ds_ss_idx
00000001000297b8 r _ZL14RSP0_STACKSIZE
00000001000297bc r _ZL12DF_STACKSIZE
00000001000297c0 r _ZL12MC_STACKSIZE
00000001000297c4 r _ZL13NMI_STACKSIZE
00000001000297c8 r _ZL16BP_DBG_STACKSIZE
00000001000297cc r _ZL16total_stack_size
00000001000297d0 r _ZL18L_PROCESSOR_GS_IDX
00000001000297d8 r _ZL14XSAVE_SIZE_MAX
00000001000297e0 r _ZL13RSP0_BASE_OFF
00000001000297e8 r _ZL13IST1_BASE_OFF
00000001000297f0 r _ZL13IST2_BASE_OFF
00000001000297f8 r _ZL13IST3_BASE_OFF
0000000100029800 r _ZL13IST4_BASE_OFF
0000000100029808 r _ZL8RED_ZONE
0000000100029810 r _ZL15RSP0_BOTTOM_OFF
0000000100029818 r _ZL15IST1_BOTTOM_OFF
0000000100029820 r _ZL15IST2_BOTTOM_OFF
0000000100029828 r _ZL15IST3_BOTTOM_OFF
0000000100029830 r _ZL15IST4_BOTTOM_OFF
0000000100029838 r _ZL17GS_COMPLEX_STRIDE
0000000100029840 r _ZL28PROCESSOR_RSP0_STACK_BTM_IDX
0000000100029841 r _ZL21PROCESSOR_ID_GS_INDEX
0000000100029842 r _ZL21TIME_COMPLEX_GS_INDEX
0000000100029843 r _ZL35PROCESSOR_NOW_RUNNING_TASK_GS_INDEX
0000000100029844 r _ZL22PROCESSOR_USER_RSP_TMP
0000000100029845 r _ZL20SLOT_IS_SLOT_MAX_IDX
0000000100029848 r _ZN3msrL9IA32_EFERE
000000010002984c r _ZN3msr4apicL14IA32_APIC_BASEE
0000000100029850 r _ZN3msr4apicL14IA32_X2APIC_IDE
0000000100029854 r _ZN3msr4apicL19IA32_X2APIC_VERSIONE
0000000100029858 r _ZN3msr4apicL15IA32_X2APIC_TPRE
000000010002985c r _ZN3msr4apicL15IA32_X2APIC_PPRE
0000000100029860 r _ZN3msr4apicL15IA32_X2APIC_EOIE
0000000100029864 r _ZN3msr4apicL15IA32_X2APIC_LDRE
0000000100029868 r _ZN3msr4apicL15IA32_X2APIC_SVRE
000000010002986c r _ZN3msr4apicL16IA32_X2APIC_ISR0E
0000000100029870 r _ZN3msr4apicL16IA32_X2APIC_ISR1E
0000000100029874 r _ZN3msr4apicL16IA32_X2APIC_ISR2E
0000000100029878 r _ZN3msr4apicL16IA32_X2APIC_ISR3E
000000010002987c r _ZN3msr4apicL16IA32_X2APIC_ISR4E
0000000100029880 r _ZN3msr4apicL16IA32_X2APIC_ISR5E
0000000100029884 r _ZN3msr4apicL16IA32_X2APIC_ISR6E
0000000100029888 r _ZN3msr4apicL16IA32_X2APIC_ISR7E
000000010002988c r _ZN3msr4apicL16IA32_X2APIC_TMR0E
0000000100029890 r _ZN3msr4apicL16IA32_X2APIC_TMR1E
0000000100029894 r _ZN3msr4apicL16IA32_X2APIC_TMR2E
0000000100029898 r _ZN3msr4apicL16IA32_X2APIC_TMR3E
000000010002989c r _ZN3msr4apicL16IA32_X2APIC_TMR4E
00000001000298a0 r _ZN3msr4apicL16IA32_X2APIC_TMR5E
00000001000298a4 r _ZN3msr4apicL16IA32_X2APIC_TMR6E
00000001000298a8 r _ZN3msr4apicL16IA32_X2APIC_TMR7E
00000001000298ac r _ZN3msr4apicL16IA32_X2APIC_IRR0E
00000001000298b0 r _ZN3msr4apicL16IA32_X2APIC_IRR1E
00000001000298b4 r _ZN3msr4apicL16IA32_X2APIC_IRR2E
00000001000298b8 r _ZN3msr4apicL16IA32_X2APIC_IRR3E
00000001000298bc r _ZN3msr4apicL16IA32_X2APIC_IRR4E
00000001000298c0 r _ZN3msr4apicL16IA32_X2APIC_IRR5E
00000001000298c4 r _ZN3msr4apicL16IA32_X2APIC_IRR6E
00000001000298c8 r _ZN3msr4apicL16IA32_X2APIC_IRR7E
00000001000298cc r _ZN3msr4apicL15IA32_X2APIC_ESRE
00000001000298d0 r _ZN3msr4apicL20IA32_X2APIC_LVT_CMCIE
00000001000298d4 r _ZN3msr4apicL15IA32_X2APIC_ICRE
00000001000298d8 r _ZN3msr4apicL21IA32_X2APIC_LVT_TIMERE
00000001000298dc r _ZN3msr4apicL23IA32_X2APIC_LVT_THERMALE
00000001000298e0 r _ZN3msr4apicL19IA32_X2APIC_LVT_PMIE
00000001000298e4 r _ZN3msr4apicL21IA32_X2APIC_LVT_LINT0E
00000001000298e8 r _ZN3msr4apicL21IA32_X2APIC_LVT_LINT1E
00000001000298ec r _ZN3msr4apicL21IA32_X2APIC_LVT_ERRORE
00000001000298f0 r _ZN3msr4apicL31IA32_X2APIC_TIMER_INITIAL_COUNTE
00000001000298f4 r _ZN3msr4apicL31IA32_X2APIC_TIMER_CURRENT_COUNTE
00000001000298f8 r _ZN3msr4apicL31IA32_X2APIC_TIMER_DIVIDE_CONFIGE
00000001000298fc r _ZN3msr4apicL20IA32_X2APIC_SELF_IPIE
0000000100029900 r _ZN3msr6systemL20IA32_FEATURE_CONTROLE
0000000100029904 r _ZN3msr6systemL8IA32_TSCE
0000000100029908 r _ZN3msr6systemL16IA32_PLATFORM_IDE
000000010002990c r _ZN3msr6systemL19IA32_EBL_CR_POWERONE
0000000100029910 r _ZN3msr6systemL21IA32_EBC_FREQUENCY_IDE
0000000100029914 r _ZN3msr5debugL13IA32_DEBUGCTLE
0000000100029918 r _ZN3msr5debugL21IA32_LASTBRANCHFROMIPE
000000010002991c r _ZN3msr5debugL19IA32_LASTBRANCHTOIPE
0000000100029920 r _ZN3msr5debugL18IA32_LASTINTFROMIPE
0000000100029924 r _ZN3msr5debugL16IA32_LASTINTTOIPE
0000000100029928 r _ZN3msr11performanceL10IA32_MPERFE
000000010002992c r _ZN3msr11performanceL10IA32_APERFE
0000000100029930 r _ZN3msr11performanceL16IA32_PERF_STATUSE
0000000100029934 r _ZN3msr11performanceL13IA32_PERF_CTLE
0000000100029938 r _ZN3msr16power_managementL21IA32_CLOCK_MODULATIONE
000000010002993c r _ZN3msr16power_managementL20IA32_THERM_INTERRUPTE
0000000100029940 r _ZN3msr16power_managementL17IA32_THERM_STATUSE
0000000100029944 r _ZN3msr16power_managementL16IA32_MISC_ENABLEE
0000000100029948 r _ZN3msr4mtrrL13IA32_MTRR_CAPE
000000010002994c r _ZN3msr4mtrrL18IA32_MTRR_DEF_TYPEE
0000000100029950 r _ZN3msr4mtrrL19IA32_MTRR_PHYSBASE0E
0000000100029954 r _ZN3msr4mtrrL19IA32_MTRR_PHYSMASK0E
0000000100029958 r _ZN3msr4mtrrL19IA32_MTRR_PHYSBASE1E
000000010002995c r _ZN3msr4mtrrL19IA32_MTRR_PHYSMASK1E
0000000100029960 r _ZN3msr4mtrrL19IA32_MTRR_PHYSBASE2E
0000000100029964 r _ZN3msr4mtrrL19IA32_MTRR_PHYSMASK2E
0000000100029968 r _ZN3msr4mtrrL19IA32_MTRR_PHYSBASE3E
000000010002996c r _ZN3msr4mtrrL19IA32_MTRR_PHYSMASK3E
0000000100029970 r _ZN3msr4mtrrL19IA32_MTRR_PHYSBASE4E
0000000100029974 r _ZN3msr4mtrrL19IA32_MTRR_PHYSMASK4E
0000000100029978 r _ZN3msr4mtrrL19IA32_MTRR_PHYSBASE5E
000000010002997c r _ZN3msr4mtrrL19IA32_MTRR_PHYSMASK5E
0000000100029980 r _ZN3msr4mtrrL19IA32_MTRR_PHYSBASE6E
0000000100029984 r _ZN3msr4mtrrL19IA32_MTRR_PHYSMASK6E
0000000100029988 r _ZN3msr4mtrrL19IA32_MTRR_PHYSBASE7E
000000010002998c r _ZN3msr4mtrrL19IA32_MTRR_PHYSMASK7E
0000000100029990 r _ZN3msr4mtrrL19IA32_MTRR_PHYSBASE8E
0000000100029994 r _ZN3msr4mtrrL19IA32_MTRR_PHYSMASK8E
0000000100029998 r _ZN3msr4mtrrL19IA32_MTRR_PHYSBASE9E
000000010002999c r _ZN3msr4mtrrL19IA32_MTRR_PHYSMASK9E
00000001000299a0 r _ZN3msr4mtrrL22IA32_MTRR_FIX64K_00000E
00000001000299a4 r _ZN3msr4mtrrL22IA32_MTRR_FIX16K_80000E
00000001000299a8 r _ZN3msr4mtrrL22IA32_MTRR_FIX16K_A0000E
00000001000299ac r _ZN3msr4mtrrL21IA32_MTRR_FIX4K_C0000E
00000001000299b0 r _ZN3msr4mtrrL21IA32_MTRR_FIX4K_C8000E
00000001000299b4 r _ZN3msr4mtrrL21IA32_MTRR_FIX4K_D0000E
00000001000299b8 r _ZN3msr4mtrrL21IA32_MTRR_FIX4K_D8000E
00000001000299bc r _ZN3msr4mtrrL21IA32_MTRR_FIX4K_E0000E
00000001000299c0 r _ZN3msr4mtrrL21IA32_MTRR_FIX4K_E8000E
00000001000299c4 r _ZN3msr4mtrrL21IA32_MTRR_FIX4K_F0000E
00000001000299c8 r _ZN3msr4mtrrL21IA32_MTRR_FIX4K_F8000E
00000001000299cc r _ZN3msr4mtrrL8IA32_PATE
00000001000299d0 r _ZN3msr3vmxL14IA32_VMX_BASICE
00000001000299d4 r _ZN3msr3vmxL22IA32_VMX_PINBASED_CTLSE
00000001000299d8 r _ZN3msr3vmxL23IA32_VMX_PROCBASED_CTLSE
00000001000299dc r _ZN3msr3vmxL18IA32_VMX_EXIT_CTLSE
00000001000299e0 r _ZN3msr3vmxL19IA32_VMX_ENTRY_CTLSE
00000001000299e4 r _ZN3msr3vmxL13IA32_VMX_MISCE
00000001000299e8 r _ZN3msr3vmxL19IA32_VMX_CR0_FIXED0E
00000001000299ec r _ZN3msr3vmxL19IA32_VMX_CR0_FIXED1E
00000001000299f0 r _ZN3msr3vmxL19IA32_VMX_CR4_FIXED0E
00000001000299f4 r _ZN3msr3vmxL19IA32_VMX_CR4_FIXED1E
00000001000299f8 r _ZN3msr3vmxL18IA32_VMX_VMCS_ENUME
00000001000299fc r _ZN3msr3vmxL24IA32_VMX_PROCBASED_CTLS2E
0000000100029a00 r _ZN3msr3vmxL21IA32_VMX_EPT_VPID_CAPE
0000000100029a04 r _ZN3msr3vmxL27IA32_VMX_TRUE_PINBASED_CTLSE
0000000100029a08 r _ZN3msr3vmxL28IA32_VMX_TRUE_PROCBASED_CTLSE
0000000100029a0c r _ZN3msr3vmxL23IA32_VMX_TRUE_EXIT_CTLSE
0000000100029a10 r _ZN3msr3vmxL24IA32_VMX_TRUE_ENTRY_CTLSE
0000000100029a14 r _ZN3msr3vmxL15IA32_VMX_VMFUNCE
0000000100029a18 r _ZN3msr3sgxL21IA32_SGXLEPUBKEYHASH0E
0000000100029a1c r _ZN3msr3sgxL21IA32_SGXLEPUBKEYHASH1E
0000000100029a20 r _ZN3msr3sgxL21IA32_SGXLEPUBKEYHASH2E
0000000100029a24 r _ZN3msr3sgxL21IA32_SGXLEPUBKEYHASH3E
0000000100029a28 r _ZN3msr4fredL14IA32_FRED_RSP0E
0000000100029a2c r _ZN3msr4fredL14IA32_FRED_RSP1E
0000000100029a30 r _ZN3msr4fredL14IA32_FRED_RSP2E
0000000100029a34 r _ZN3msr4fredL14IA32_FRED_RSP3E
0000000100029a38 r _ZN3msr4fredL17IA32_FRED_STKLVLSE
0000000100029a3c r _ZN3msr4fredL14IA32_FRED_SSP1E
0000000100029a40 r _ZN3msr4fredL14IA32_FRED_SSP2E
0000000100029a44 r _ZN3msr4fredL14IA32_FRED_SSP3E
0000000100029a48 r _ZN3msr4fredL16IA32_FRED_CONFIGE
0000000100029a50 r _ZN3msr4fred6configL8CSL_MASKE
0000000100029a58 r _ZN3msr4fred6configL17RSP_DEC_STEP_MASKE
0000000100029a60 r _ZN3msr4fred6configL15INT_STKLVL_MASKE
0000000100029a68 r _ZN3msr4fred6configL15ENTRY_PAGE_MASKE
0000000100029a70 r _ZN3msrL12IA32_PL0_SSPE
0000000100029a74 r _ZN3msr5timerL17IA32_TSC_DEADLINEE
0000000100029a78 r _ZN3msr7syscallL16IA32_SYSENTER_CSE
0000000100029a7c r _ZN3msr7syscallL17IA32_SYSENTER_ESPE
0000000100029a80 r _ZN3msr7syscallL17IA32_SYSENTER_EIPE
0000000100029a84 r _ZN3msr7syscallL9IA32_STARE
0000000100029a88 r _ZN3msr7syscallL10IA32_LSTARE
0000000100029a8c r _ZN3msr7syscallL10IA32_FMASKE
0000000100029a90 r _ZN3msr7syscallL12IA32_FS_BASEE
0000000100029a94 r _ZN3msr7syscallL12IA32_GS_BASEE
0000000100029a98 r _ZN3msr7syscallL19IA32_KERNEL_GS_BASEE
0000000100029a9c r _ZN3msr7syscallL12IA32_TSC_AUXE
0000000100029aa0 r _ZL10empty_kurd
0000000100029aa8 r _ZN10level_codeL7INVALIDE
0000000100029aa9 r _ZN10level_codeL4INFOE
0000000100029aaa r _ZN10level_codeL6NOTICEE
0000000100029aab r _ZN10level_codeL7WARNINGE
0000000100029aac r _ZN10level_codeL5ERRORE
0000000100029aad r _ZN10level_codeL5FATALE
0000000100029aae r _ZN11module_codeL7INVALIDE
0000000100029aaf r _ZN11module_codeL6MEMORYE
0000000100029ab0 r _ZN11module_codeL9SCHEDULERE
0000000100029ab1 r _ZN11module_codeL9INTERRUPTE
0000000100029ab2 r _ZN11module_codeL8FIRMWAREE
0000000100029ab3 r _ZN11module_codeL3VFSE
0000000100029ab4 r _ZN11module_codeL3VMME
0000000100029ab5 r _ZN11module_codeL5INFRAE
0000000100029ab6 r _ZN11module_codeL6DEVICEE
0000000100029ab7 r _ZN11module_codeL12DEVICES_COREE
0000000100029ab8 r _ZN11module_codeL14HARDWARE_DEBUGE
0000000100029ab9 r _ZN11module_codeL15USER_KERNEL_ABIE
0000000100029aba r _ZN11module_codeL4TIMEE
0000000100029abb r _ZN11module_codeL5PANICE
0000000100029abc r _ZN11result_codeL7SUCCESSE
0000000100029abe r _ZN11result_codeL23SUCCESS_BUT_SIDE_EFFECTE
0000000100029ac0 r _ZN11result_codeL15PARTIAL_SUCCESSE
0000000100029ac2 r _ZN11result_codeL4FAILE
0000000100029ac4 r _ZN11result_codeL5RETRYE
0000000100029ac6 r _ZN11result_codeL5FATALE
0000000100029ac8 r _ZN10err_domainL7INVALIDE
0000000100029ac9 r _ZN10err_domainL11CORE_MODULEE
0000000100029aca r _ZN10err_domainL4ARCHE
0000000100029acb r _ZN10err_domainL4USERE
0000000100029acc r _ZN10err_domainL10HYPERVISORE
0000000100029acd r _ZN10err_domainL11OUT_MODULESE
0000000100029ace r _ZN10err_domainL11FILE_SYSTEME
0000000100029acf r _ZN10err_domainL8HARDWAREE
0000000100029ae0 r _ZL10empty_kurd
0000000100029ae8 r _ZN10level_codeL7INVALIDE
0000000100029ae9 r _ZN10level_codeL4INFOE
0000000100029aea r _ZN10level_codeL6NOTICEE
0000000100029aeb r _ZN10level_codeL7WARNINGE
0000000100029aec r _ZN10level_codeL5ERRORE
0000000100029aed r _ZN10level_codeL5FATALE
0000000100029aee r _ZN11module_codeL7INVALIDE
0000000100029aef r _ZN11module_codeL6MEMORYE
0000000100029af0 r _ZN11module_codeL9SCHEDULERE
0000000100029af1 r _ZN11module_codeL9INTERRUPTE
0000000100029af2 r _ZN11module_codeL8FIRMWAREE
0000000100029af3 r _ZN11module_codeL3VFSE
0000000100029af4 r _ZN11module_codeL3VMME
0000000100029af5 r _ZN11module_codeL5INFRAE
0000000100029af6 r _ZN11module_codeL6DEVICEE
0000000100029af7 r _ZN11module_codeL12DEVICES_COREE
0000000100029af8 r _ZN11module_codeL14HARDWARE_DEBUGE
0000000100029af9 r _ZN11module_codeL15USER_KERNEL_ABIE
0000000100029afa r _ZN11module_codeL4TIMEE
0000000100029afb r _ZN11module_codeL5PANICE
0000000100029afc r _ZN11result_codeL7SUCCESSE
0000000100029afe r _ZN11result_codeL23SUCCESS_BUT_SIDE_EFFECTE
0000000100029b00 r _ZN11result_codeL15PARTIAL_SUCCESSE
0000000100029b02 r _ZN11result_codeL4FAILE
0000000100029b04 r _ZN11result_codeL5RETRYE
0000000100029b06 r _ZN11result_codeL5FATALE
0000000100029b08 r _ZN10err_domainL7INVALIDE
0000000100029b09 r _ZN10err_domainL11CORE_MODULEE
0000000100029b0a r _ZN10err_domainL4ARCHE
0000000100029b0b r _ZN10err_domainL4USERE
0000000100029b0c r _ZN10err_domainL10HYPERVISORE
0000000100029b0d r _ZN10err_domainL11OUT_MODULESE
0000000100029b0e r _ZN10err_domainL11FILE_SYSTEME
0000000100029b0f r _ZN10err_domainL8HARDWAREE
0000000100029b10 r _ZL6LOCKED
0000000100029b11 r _ZL8UNLOCKED
0000000100029b18 r _ZL10PAGE_DIRTY
0000000100029b20 r _ZL11PAGE_LOCKED
0000000100029b28 r _ZL14PAGE_WRITEBACK
0000000100029b30 r _ZL13PAGE_UPTODATE
0000000100029b38 r _ZL13PAGE_SWAPPING
0000000100029b40 r _ZL15PAGE_REFERENCED
0000000100029b48 r _ZL11PAGE_ACTIVE
0000000100029b50 r _ZL12PAGE_RECLAIM
0000000100029b58 r _ZL25MAX_PHYADDR_1GB_PGS_COUNT
0000000100029b60 r _ZL18DEFAULT_PAT_CONFIG
0000000100029b68 r _ZL16KSPACE_RW_ACCESS
0000000100029b6a r _ZL17KSPACE_RWX_ACCESS
0000000100029b6c r _ZL19KSPACE_RW_UC_ACCESS
0000000100029b6e r _ZL16KSPACE_RX_ACCESS
0000000100029b70 r _ZL15KSPACE_R_ACCESS
0000000100029b72 r _ZL20KSPACE_RWX_NG_ACCESS
0000000100029b74 r _ZL19KSPACE_RW_WC_ACCESS
0000000100029b76 r _ZL13default_flags
0000000100029b80 r _ZL24BUDDY_ALLOC_DEFAULT_FLAG
0000000100029b90 r _ZL22BUDDY_ALLOC_ALWAYS_TRY
0000000100029ba0 r _ZL20BUDDY_ALLOC_DOWN_4GB
0000000100029bb0 r _ZL33PASS_THROUGH_DEVICE_GRAPHICS_INFO
0000000100029bb4 r _ZL32VM_ID_architecture_agnostic_base
0000000100029bb8 r _ZL20VM_ID_BSP_INIT_STACK
0000000100029bc0 r _ZL19BSP_INIT_STACK_SIZE
0000000100029bc8 r _ZL25BSP_INIT_STACK_ALIGN_LOG2
0000000100029bcc r _ZL16VM_ID_FIRST_HEAP
0000000100029bd0 r _ZL21FIRST_HEAP_SIZE_CONST
0000000100029bd8 r _ZL21FIRST_HEAP_ALIGN_LOG2
0000000100029bdc r _ZL23VM_ID_FIRST_HEAP_BITMAP
0000000100029be0 r _ZL22FIRST_HEAP_BITMAP_SIZE
0000000100029be8 r _ZL28FIRST_HEAP_BITMAP_ALIGN_LOG2
0000000100029bec r _ZL15VM_ID_LOGBUFFER
0000000100029bf0 r _ZL14LOGBUFFER_SIZE
0000000100029bf8 r _ZL20LOGBUFFER_ALIGN_LOG2
0000000100029bfc r _ZL14VM_ID_KSYMBOLS
0000000100029c00 r _ZL13VM_ID_MEM_MAP
0000000100029c04 r _ZL18VM_ID_BCBS_BITMAPS
0000000100029c08 r _ZL18MEM_MAP_ALIGN_LOG2
0000000100029c0c r _ZL20VM_ID_UP_KSPACE_PDPT
0000000100029c10 r _ZL20VM_ID_GRAPHIC_BUFFER
0000000100029c18 r _ZL19UP_KSPACE_PDPT_SIZE
0000000100029c20 r _ZL25UP_KSPACE_PDPT_ALIGN_LOG2
0000000100029c24 r _ZL15VM_ID_HPET_MMIO
0000000100029c28 r _ZN18MEMMODULE_LOCAIONSL7INVALIDE
0000000100029c29 r _ZN18MEMMODULE_LOCAIONSL25LOCATION_CODE_BASE_MEMMGRE
0000000100029c2a r _ZN18MEMMODULE_LOCAIONSL29LOCATION_CODE_PHYMEM_ACCESSORE
0000000100029c2b r _ZN18MEMMODULE_LOCAIONSL28LOCATION_CODE_KSPACE_MAP_MGRE
0000000100029c2c r _ZN18MEMMODULE_LOCAIONSL25LOCATION_CODE_ADDRESSPACEE
0000000100029c2d r _ZN18MEMMODULE_LOCAIONSL26LOCATION_CODE_OUT_SURFACESE
0000000100029c2e r _ZN18MEMMODULE_LOCAIONSL25LOCATION_CODE_KPOOLMEMMGRE
0000000100029c2f r _ZN18MEMMODULE_LOCAIONS18KPOOLMEMMGR_EVENTSL15EVENT_CODE_INITE
0000000100029c30 r _ZN18MEMMODULE_LOCAIONS18KPOOLMEMMGR_EVENTSL16EVENT_CODE_ALLOCE
0000000100029c32 r _ZN18MEMMODULE_LOCAIONS18KPOOLMEMMGR_EVENTS13ALLOC_RESULTS11FAIL_RESONSL28REASON_CODE_NO_AVALIABLE_MEME
0000000100029c34 r _ZN18MEMMODULE_LOCAIONS18KPOOLMEMMGR_EVENTS13ALLOC_RESULTS11FAIL_RESONSL24REASON_CODE_SIZE_IS_ZEROE
0000000100029c36 r _ZN18MEMMODULE_LOCAIONS18KPOOLMEMMGR_EVENTSL18EVENT_CODE_REALLOCE
0000000100029c38 r _ZN18MEMMODULE_LOCAIONS18KPOOLMEMMGR_EVENTS15REALLOC_RESULTS11FAIL_RESONSL31REASON_CODE_DEMAND_SIZE_IS_ZEROE
0000000100029c3a r _ZN18MEMMODULE_LOCAIONS18KPOOLMEMMGR_EVENTS15REALLOC_RESULTS11FAIL_RESONSL31REASON_CODE_PTR_NOT_IN_ANY_HEAPE
0000000100029c3c r _ZN18MEMMODULE_LOCAIONS18KPOOLMEMMGR_EVENTS15REALLOC_RESULTS11FAIL_RESONSL28REASON_CODE_NO_AVALIABLE_MEME
0000000100029c3e r _ZN18MEMMODULE_LOCAIONS18KPOOLMEMMGR_EVENTSL34EVENT_CODE_PER_PROCESSOR_HEAP_INITE
0000000100029c40 r _ZN18MEMMODULE_LOCAIONS18KPOOLMEMMGR_EVENTS31PER_PROCESSOR_HEAP_INIT_RESULTS11FAIL_RESONSL27REASON_CODE_ALREADY_ENABLEDE
0000000100029c42 r _ZN18MEMMODULE_LOCAIONS18KPOOLMEMMGR_EVENTS31PER_PROCESSOR_HEAP_INIT_RESULTS11FAIL_RESONSL31REASON_CODE_BAD_PROCESSOR_COUNTE
0000000100029c44 r _ZN18MEMMODULE_LOCAIONS18KPOOLMEMMGR_EVENTS31PER_PROCESSOR_HEAP_INIT_RESULTS11FAIL_RESONSL26REASON_CODE_NO_VADDR_SPACEE
0000000100029c46 r _ZN18MEMMODULE_LOCAIONS18KPOOLMEMMGR_EVENTS31PER_PROCESSOR_HEAP_INIT_RESULTS11FAIL_RESONSL23REASON_CODE_VM_ADD_FAILE
0000000100029c48 r _ZN18MEMMODULE_LOCAIONS18KPOOLMEMMGR_EVENTS31PER_PROCESSOR_HEAP_INIT_RESULTS11FAIL_RESONSL28REASON_CODE_IDX_OUT_OF_RANGEE
0000000100029c4a r _ZN18MEMMODULE_LOCAIONS18KPOOLMEMMGR_EVENTS31PER_PROCESSOR_HEAP_INIT_RESULTS11FAIL_RESONSL31REASON_CODE_HEAP_ALREADY_EXISTSE
0000000100029c4c r _ZN18MEMMODULE_LOCAIONS18KPOOLMEMMGR_EVENTS31PER_PROCESSOR_HEAP_INIT_RESULTS11FAIL_RESONSL26REASON_CODE_HEAP_NOT_EXISTE
0000000100029c4e r _ZN18MEMMODULE_LOCAIONSL32LOCATION_CODE_KPOOLMEMMGR_HCB_V3E
0000000100029c4f r _ZN18MEMMODULE_LOCAIONS25KPOOLMEMMGR_HCB_V3_EVENTSL17EVENT_CODE_ONLINEE
0000000100029c50 r _ZN18MEMMODULE_LOCAIONS25KPOOLMEMMGR_HCB_V3_EVENTSL18EVENT_CODE_OFFLINEE
0000000100029c51 r _ZN18MEMMODULE_LOCAIONS25KPOOLMEMMGR_HCB_V3_EVENTSL16EVENT_CODE_ALLOCE
0000000100029c52 r _ZN18MEMMODULE_LOCAIONS25KPOOLMEMMGR_HCB_V3_EVENTSL15EVENT_CODE_FREEE
0000000100029c53 r _ZN18MEMMODULE_LOCAIONS25KPOOLMEMMGR_HCB_V3_EVENTSL18EVENT_CODE_REALLOCE
0000000100029c54 r _ZN18MEMMODULE_LOCAIONS25KPOOLMEMMGR_HCB_V3_EVENTSL25EVENT_CODE_INTERNAL_ALLOCE
0000000100029c55 r _ZN18MEMMODULE_LOCAIONS25KPOOLMEMMGR_HCB_V3_EVENTSL24EVENT_CODE_INTERNAL_FREEE
0000000100029c56 r _ZN18MEMMODULE_LOCAIONS25KPOOLMEMMGR_HCB_V3_EVENTSL16EVENT_CODE_CLEARE
0000000100029c58 r _ZN18MEMMODULE_LOCAIONS25KPOOLMEMMGR_HCB_V3_EVENTS19COMMON_FAIL_REASONSL20REASON_CODE_BAD_ADDRE
0000000100029c5a r _ZN18MEMMODULE_LOCAIONS25KPOOLMEMMGR_HCB_V3_EVENTS19COMMON_FAIL_REASONSL30REASON_CODE_ADDR_NOT_THIS_HEAPE
0000000100029c5c r _ZN18MEMMODULE_LOCAIONS25KPOOLMEMMGR_HCB_V3_EVENTS20COMMON_FATAL_REASONSL30REASON_CODE_METADATA_DESTROYEDE
0000000100029c5e r _ZN18MEMMODULE_LOCAIONS25KPOOLMEMMGR_HCB_V3_EVENTS22INTERNAL_ALLOC_RESULTS11FAIL_RESONSL30REASON_CODE_NO_AVALIABLE_BUDDYE
0000000100029c60 r _ZN18MEMMODULE_LOCAIONS25KPOOLMEMMGR_HCB_V3_EVENTS13ALLOC_RESULTS12FAIL_REASONSL24REASON_CODE_SIZE_IS_ZEROE
0000000100029c62 r _ZN18MEMMODULE_LOCAIONS25KPOOLMEMMGR_HCB_V3_EVENTS13ALLOC_RESULTS12FAIL_REASONSL26REASON_CODE_SIZE_TOO_LARGEE
0000000100029c64 r _ZN18MEMMODULE_LOCAIONS25KPOOLMEMMGR_HCB_V3_EVENTS12FREE_RESULTS13FATAL_REASONSL18DOUBLE_FREE_DETECTE
0000000100029c66 r _ZN18MEMMODULE_LOCAIONS25KPOOLMEMMGR_HCB_V3_EVENTS12FREE_RESULTS13FATAL_REASONSL22MERGE_BUT_ALREADY_FREEE
0000000100029c68 r _ZL14HCB_evict_span
0000000100029c70 r _ZL23HCB_evictor_sleep_cycle
0000000100029c80 r _ZL15PAGE_SIZE_IN_LV
0000000100029cc0 r _ZL16PAGE_OFFSET_MASK
0000000100029ce8 r _ZL17Max_huge_pg_index
0000000100029cf0 r _ZN22lineaddr_index_filtersL17PT_INDEX_MASK_lv0E
0000000100029cf8 r _ZN22lineaddr_index_filtersL17PD_INDEX_MASK_lv1E
0000000100029d00 r _ZN22lineaddr_index_filtersL19PDPT_INDEX_MASK_lv2E
0000000100029d08 r _ZN22lineaddr_index_filtersL19PML4_INDEX_MASK_lv3E
0000000100029d10 r _ZN22lineaddr_index_filtersL19PML5_INDEX_MASK_lv4E
0000000100029d18 r _ZL15PHYS_ADDR_WIDTH
0000000100029d20 r _ZL14PHYS_ADDR_MASK
0000000100029d28 r _ZN14PageTableEntryL5P_BITE
0000000100029d30 r _ZN14PageTableEntryL6RW_BITE
0000000100029d38 r _ZN14PageTableEntryL6US_BITE
0000000100029d40 r _ZN14PageTableEntryL7PWT_BITE
0000000100029d48 r _ZN14PageTableEntryL7PCD_BITE
0000000100029d50 r _ZN14PageTableEntryL5A_BITE
0000000100029d58 r _ZN14PageTableEntryL6XD_BITE
0000000100029d60 r _ZN14PageTableEntryL6P_MASKE
0000000100029d68 r _ZN14PageTableEntryL7RW_MASKE
0000000100029d70 r _ZN14PageTableEntryL7US_MASKE
0000000100029d78 r _ZN14PageTableEntryL8PWT_MASKE
0000000100029d80 r _ZN14PageTableEntryL8PCD_MASKE
0000000100029d88 r _ZN14PageTableEntryL6A_MASKE
0000000100029d90 r _ZN14PageTableEntryL7XD_MASKE
0000000100029d98 r _ZN5PML5EL5R_BITE
0000000100029da0 r _ZN5PML5EL6PS_BITE
0000000100029da8 r _ZN5PML5EL6R_MASKE
0000000100029db0 r _ZN5PML5EL7PS_MASKE
0000000100029db8 r _ZN5PML5EL11ADDR_OFFSETE
0000000100029dc0 r _ZN5PML5EL9ADDR_BITSE
0000000100029dc8 r _ZN5PML5EL9ADDR_MASKE
0000000100029dd0 r _ZN5PML4EL5R_BITE
0000000100029dd8 r _ZN5PML4EL6PS_BITE
0000000100029de0 r _ZN5PML4EL6R_MASKE
0000000100029de8 r _ZN5PML4EL7PS_MASKE
0000000100029df0 r _ZN5PML4EL11ADDR_OFFSETE
0000000100029df8 r _ZN5PML4EL9ADDR_BITSE
0000000100029e00 r _ZN5PML4EL9ADDR_MASKE
0000000100029e08 r _ZN5PDPTEL5D_BITE
0000000100029e10 r _ZN5PDPTEL6PS_BITE
0000000100029e18 r _ZN5PDPTEL5G_BITE
0000000100029e20 r _ZN5PDPTEL5R_BITE
0000000100029e28 r _ZN5PDPTEL7PAT_BITE
0000000100029e30 r _ZN5PDPTEL7PK_BITSE
0000000100029e38 r _ZN5PDPTEL6D_MASKE
0000000100029e40 r _ZN5PDPTEL7PS_MASKE
0000000100029e48 r _ZN5PDPTEL6G_MASKE
0000000100029e50 r _ZN5PDPTEL6R_MASKE
0000000100029e58 r _ZN5PDPTEL8PAT_MASKE
0000000100029e60 r _ZN5PDPTEL7PK_MASKE
0000000100029e68 r _ZN5PDPTEL14ADDR_PD_OFFSETE
0000000100029e70 r _ZN5PDPTEL12ADDR_PD_BITSE
0000000100029e78 r _ZN5PDPTEL12ADDR_PD_MASKE
0000000100029e80 r _ZN5PDPTEL15ADDR_1GB_OFFSETE
0000000100029e88 r _ZN5PDPTEL13ADDR_1GB_BITSE
0000000100029e90 r _ZN5PDPTEL13ADDR_1GB_MASKE
0000000100029e98 r _ZN3PDEL5D_BITE
0000000100029ea0 r _ZN3PDEL6PS_BITE
0000000100029ea8 r _ZN3PDEL5G_BITE
0000000100029eb0 r _ZN3PDEL5R_BITE
0000000100029eb8 r _ZN3PDEL7PAT_BITE
0000000100029ec0 r _ZN3PDEL7PK_BITSE
0000000100029ec8 r _ZN3PDEL6D_MASKE
0000000100029ed0 r _ZN3PDEL7PS_MASKE
0000000100029ed8 r _ZN3PDEL6G_MASKE
0000000100029ee0 r _ZN3PDEL6R_MASKE
0000000100029ee8 r _ZN3PDEL8PAT_MASKE
0000000100029ef0 r _ZN3PDEL7PK_MASKE
0000000100029ef8 r _ZN3PDEL14ADDR_PT_OFFSETE
0000000100029f00 r _ZN3PDEL12ADDR_PT_BITSE
0000000100029f08 r _ZN3PDEL12ADDR_PT_MASKE
0000000100029f10 r _ZN3PDEL15ADDR_2MB_OFFSETE
0000000100029f18 r _ZN3PDEL13ADDR_2MB_BITSE
0000000100029f20 r _ZN3PDEL13ADDR_2MB_MASKE
0000000100029f28 r _ZN3PTEL5D_BITE
0000000100029f30 r _ZN3PTEL7PAT_BITE
0000000100029f38 r _ZN3PTEL5G_BITE
0000000100029f40 r _ZN3PTEL5R_BITE
0000000100029f48 r _ZN3PTEL7PK_BITSE
0000000100029f50 r _ZN3PTEL6D_MASKE
0000000100029f58 r _ZN3PTEL8PAT_MASKE
0000000100029f60 r _ZN3PTEL6G_MASKE
0000000100029f68 r _ZN3PTEL6R_MASKE
0000000100029f70 r _ZN3PTEL7PK_MASKE
0000000100029f78 r _ZN3PTEL11ADDR_OFFSETE
0000000100029f80 r _ZN3PTEL9ADDR_BITSE
0000000100029f88 r _ZN3PTEL9ADDR_MASKE
0000000100029f90 r _ZL13ENTRY_PRESENT
0000000100029f91 r _ZL17ENTRY_PRESENT_NOT
0000000100029f92 r _ZL17RWBIT_WRITE_ALLOW
0000000100029f93 r _ZL21RWBIT_WRITE_ALLOW_NOT
0000000100029f94 r _ZL16KERNE_BIT_KERNEL
0000000100029f95 r _ZL20KERNE_BIT_KERNEL_NOT
0000000100029f96 r _ZL17XD_BIT_EXECUTABLE
0000000100029f97 r _ZL21XD_BIT_EXECUTABLE_NOT
0000000100029f98 r _ZN23COREHARDWARES_LOCATIONSL27LOCATION_CODE_GOP_PRIMITIVEE
0000000100029f99 r _ZN23COREHARDWARES_LOCATIONS28GOP_PRIMITIVE_DRIVERS_EVENTSL4INITE
0000000100029f9a r _ZN23COREHARDWARES_LOCATIONS28GOP_PRIMITIVE_DRIVERS_EVENTS12INIT_RESULTS12FAIL_REASONSL21PARAM_METAINF_NULLPTRE
0000000100029f9c r _ZN23COREHARDWARES_LOCATIONS28GOP_PRIMITIVE_DRIVERS_EVENTS12INIT_RESULTS12FAIL_REASONSL9BAD_PARAME
0000000100029f9e r _ZN23COREHARDWARES_LOCATIONS28GOP_PRIMITIVE_DRIVERS_EVENTS12INIT_RESULTS12FAIL_REASONSL13ALLREADE_INITE
0000000100029fa0 r _ZN23COREHARDWARES_LOCATIONSL22LOCATION_CODE_INIT_GOPE
0000000100029fa1 r _ZN23COREHARDWARES_LOCATIONS15INIT_GOP_EVENTSL4INITE
0000000100029fa2 r _ZN23COREHARDWARES_LOCATIONS15INIT_GOP_EVENTS12INIT_RESULTS12FAIL_REASONSL21PARAM_METAINF_NULLPTRE
0000000100029fa4 r _ZN23COREHARDWARES_LOCATIONS15INIT_GOP_EVENTS12INIT_RESULTS12FAIL_REASONSL9BAD_PARAME
0000000100029fa6 r _ZN23COREHARDWARES_LOCATIONS15INIT_GOP_EVENTS12INIT_RESULTS12FAIL_REASONSL13ALLREADE_INITE
0000000100029fa8 r _ZN23COREHARDWARES_LOCATIONS15INIT_GOP_EVENTS12INIT_RESULTS12FAIL_REASONSL20MODIFY_ACCESS_FAILEDE
0000000100029fb0 r _ZL19ACPI_XSDT_SIGNATURE
0000000100029fc0 r _ZL19ACPI_FADT_SIGNATURE
0000000100029fd0 r _ZL19ACPI_FACS_SIGNATURE
0000000100029fe0 r _ZL19ACPI_MADT_SIGNATURE
0000000100029ff0 r _ZL19ACPI_DSDT_SIGNATURE
000000010002a000 r _ZL19ACPI_SSDT_SIGNATURE
000000010002a010 r _ZL19ACPI_MCFG_SIGNATURE
000000010002a020 r _ZL19ACPI_HPET_SIGNATURE
000000010002a030 r _ZL19ACPI_DMAR_SIGNATURE
000000010002a038 r _ZL21XSDT_SIGNATURE_UINT32
000000010002a03c r _ZL21FADT_SIGNATURE_UINT32
000000010002a040 r _ZL21FACS_SIGNATURE_UINT32
000000010002a044 r _ZL21MADT_SIGNATURE_UINT32
000000010002a048 r _ZL21DSDT_SIGNATURE_UINT32
000000010002a04c r _ZL21SSDT_SIGNATURE_UINT32
000000010002a050 r _ZL21MCFG_SIGNATURE_UINT32
000000010002a054 r _ZL21HPET_SIGNATURE_UINT32
000000010002a058 r _ZL21DMAR_SIGNATURE_UINT32
000000010002a060 r _ZL13ter16x32_data
000000010002e2e0 r _ZL10empty_kurd
000000010002e2e8 r _ZN10level_codeL7INVALIDE
000000010002e2e9 r _ZN10level_codeL4INFOE
000000010002e2ea r _ZN10level_codeL6NOTICEE
000000010002e2eb r _ZN10level_codeL7WARNINGE
000000010002e2ec r _ZN10level_codeL5ERRORE
000000010002e2ed r _ZN10level_codeL5FATALE
000000010002e2ee r _ZN11module_codeL7INVALIDE
000000010002e2ef r _ZN11module_codeL6MEMORYE
000000010002e2f0 r _ZN11module_codeL9SCHEDULERE
000000010002e2f1 r _ZN11module_codeL9INTERRUPTE
000000010002e2f2 r _ZN11module_codeL8FIRMWAREE
000000010002e2f3 r _ZN11module_codeL3VFSE
000000010002e2f4 r _ZN11module_codeL3VMME
000000010002e2f5 r _ZN11module_codeL5INFRAE
000000010002e2f6 r _ZN11module_codeL6DEVICEE
000000010002e2f7 r _ZN11module_codeL12DEVICES_COREE
000000010002e2f8 r _ZN11module_codeL14HARDWARE_DEBUGE
000000010002e2f9 r _ZN11module_codeL15USER_KERNEL_ABIE
000000010002e2fa r _ZN11module_codeL4TIMEE
000000010002e2fb r _ZN11module_codeL5PANICE
000000010002e2fc r _ZN11result_codeL7SUCCESSE
000000010002e2fe r _ZN11result_codeL23SUCCESS_BUT_SIDE_EFFECTE
000000010002e300 r _ZN11result_codeL15PARTIAL_SUCCESSE
000000010002e302 r _ZN11result_codeL4FAILE
000000010002e304 r _ZN11result_codeL5RETRYE
000000010002e306 r _ZN11result_codeL5FATALE
000000010002e308 r _ZN10err_domainL7INVALIDE
000000010002e309 r _ZN10err_domainL11CORE_MODULEE
000000010002e30a r _ZN10err_domainL4ARCHE
000000010002e30b r _ZN10err_domainL4USERE
000000010002e30c r _ZN10err_domainL10HYPERVISORE
000000010002e30d r _ZN10err_domainL11OUT_MODULESE
000000010002e30e r _ZN10err_domainL11FILE_SYSTEME
000000010002e30f r _ZN10err_domainL8HARDWAREE
000000010002e310 r _ZL6LOCKED
000000010002e311 r _ZL8UNLOCKED
000000010002e318 r _ZL10PAGE_DIRTY
000000010002e320 r _ZL11PAGE_LOCKED
000000010002e328 r _ZL14PAGE_WRITEBACK
000000010002e330 r _ZL13PAGE_UPTODATE
000000010002e338 r _ZL13PAGE_SWAPPING
000000010002e340 r _ZL15PAGE_REFERENCED
000000010002e348 r _ZL11PAGE_ACTIVE
000000010002e350 r _ZL12PAGE_RECLAIM
000000010002e358 r _ZL25MAX_PHYADDR_1GB_PGS_COUNT
000000010002e360 r _ZL18DEFAULT_PAT_CONFIG
000000010002e368 r _ZL16KSPACE_RW_ACCESS
000000010002e36a r _ZL17KSPACE_RWX_ACCESS
000000010002e36c r _ZL19KSPACE_RW_UC_ACCESS
000000010002e36e r _ZL16KSPACE_RX_ACCESS
000000010002e370 r _ZL15KSPACE_R_ACCESS
000000010002e372 r _ZL20KSPACE_RWX_NG_ACCESS
000000010002e374 r _ZL19KSPACE_RW_WC_ACCESS
000000010002e376 r _ZL13default_flags
000000010002e380 r _ZL24BUDDY_ALLOC_DEFAULT_FLAG
000000010002e390 r _ZL22BUDDY_ALLOC_ALWAYS_TRY
000000010002e3a0 r _ZL20BUDDY_ALLOC_DOWN_4GB
000000010002e3b0 r _ZL33PASS_THROUGH_DEVICE_GRAPHICS_INFO
000000010002e3b4 r _ZL32VM_ID_architecture_agnostic_base
000000010002e3b8 r _ZL20VM_ID_BSP_INIT_STACK
000000010002e3c0 r _ZL19BSP_INIT_STACK_SIZE
000000010002e3c8 r _ZL25BSP_INIT_STACK_ALIGN_LOG2
000000010002e3cc r _ZL16VM_ID_FIRST_HEAP
000000010002e3d0 r _ZL21FIRST_HEAP_SIZE_CONST
000000010002e3d8 r _ZL21FIRST_HEAP_ALIGN_LOG2
000000010002e3dc r _ZL23VM_ID_FIRST_HEAP_BITMAP
000000010002e3e0 r _ZL22FIRST_HEAP_BITMAP_SIZE
000000010002e3e8 r _ZL28FIRST_HEAP_BITMAP_ALIGN_LOG2
000000010002e3ec r _ZL15VM_ID_LOGBUFFER
000000010002e3f0 r _ZL14LOGBUFFER_SIZE
000000010002e3f8 r _ZL20LOGBUFFER_ALIGN_LOG2
000000010002e3fc r _ZL14VM_ID_KSYMBOLS
000000010002e400 r _ZL13VM_ID_MEM_MAP
000000010002e404 r _ZL18VM_ID_BCBS_BITMAPS
000000010002e408 r _ZL18MEM_MAP_ALIGN_LOG2
000000010002e40c r _ZL20VM_ID_UP_KSPACE_PDPT
000000010002e410 r _ZL20VM_ID_GRAPHIC_BUFFER
000000010002e418 r _ZL19UP_KSPACE_PDPT_SIZE
000000010002e420 r _ZL25UP_KSPACE_PDPT_ALIGN_LOG2
000000010002e424 r _ZL15VM_ID_HPET_MMIO
000000010002e440 r _ZL15PAGE_SIZE_IN_LV
000000010002e480 r _ZL16PAGE_OFFSET_MASK
000000010002e4a8 r _ZL17Max_huge_pg_index
000000010002e4b0 r _ZN22lineaddr_index_filtersL17PT_INDEX_MASK_lv0E
000000010002e4b8 r _ZN22lineaddr_index_filtersL17PD_INDEX_MASK_lv1E
000000010002e4c0 r _ZN22lineaddr_index_filtersL19PDPT_INDEX_MASK_lv2E
000000010002e4c8 r _ZN22lineaddr_index_filtersL19PML4_INDEX_MASK_lv3E
000000010002e4d0 r _ZN22lineaddr_index_filtersL19PML5_INDEX_MASK_lv4E
000000010002e4d8 r _ZL15PHYS_ADDR_WIDTH
000000010002e4e0 r _ZL14PHYS_ADDR_MASK
000000010002e4e8 r _ZN14PageTableEntryL5P_BITE
000000010002e4f0 r _ZN14PageTableEntryL6RW_BITE
000000010002e4f8 r _ZN14PageTableEntryL6US_BITE
000000010002e500 r _ZN14PageTableEntryL7PWT_BITE
000000010002e508 r _ZN14PageTableEntryL7PCD_BITE
000000010002e510 r _ZN14PageTableEntryL5A_BITE
000000010002e518 r _ZN14PageTableEntryL6XD_BITE
000000010002e520 r _ZN14PageTableEntryL6P_MASKE
000000010002e528 r _ZN14PageTableEntryL7RW_MASKE
000000010002e530 r _ZN14PageTableEntryL7US_MASKE
000000010002e538 r _ZN14PageTableEntryL8PWT_MASKE
000000010002e540 r _ZN14PageTableEntryL8PCD_MASKE
000000010002e548 r _ZN14PageTableEntryL6A_MASKE
000000010002e550 r _ZN14PageTableEntryL7XD_MASKE
000000010002e558 r _ZN5PML5EL5R_BITE
000000010002e560 r _ZN5PML5EL6PS_BITE
000000010002e568 r _ZN5PML5EL6R_MASKE
000000010002e570 r _ZN5PML5EL7PS_MASKE
000000010002e578 r _ZN5PML5EL11ADDR_OFFSETE
000000010002e580 r _ZN5PML5EL9ADDR_BITSE
000000010002e588 r _ZN5PML5EL9ADDR_MASKE
000000010002e590 r _ZN5PML4EL5R_BITE
000000010002e598 r _ZN5PML4EL6PS_BITE
000000010002e5a0 r _ZN5PML4EL6R_MASKE
000000010002e5a8 r _ZN5PML4EL7PS_MASKE
000000010002e5b0 r _ZN5PML4EL11ADDR_OFFSETE
000000010002e5b8 r _ZN5PML4EL9ADDR_BITSE
000000010002e5c0 r _ZN5PML4EL9ADDR_MASKE
000000010002e5c8 r _ZN5PDPTEL5D_BITE
000000010002e5d0 r _ZN5PDPTEL6PS_BITE
000000010002e5d8 r _ZN5PDPTEL5G_BITE
000000010002e5e0 r _ZN5PDPTEL5R_BITE
000000010002e5e8 r _ZN5PDPTEL7PAT_BITE
000000010002e5f0 r _ZN5PDPTEL7PK_BITSE
000000010002e5f8 r _ZN5PDPTEL6D_MASKE
000000010002e600 r _ZN5PDPTEL7PS_MASKE
000000010002e608 r _ZN5PDPTEL6G_MASKE
000000010002e610 r _ZN5PDPTEL6R_MASKE
000000010002e618 r _ZN5PDPTEL8PAT_MASKE
000000010002e620 r _ZN5PDPTEL7PK_MASKE
000000010002e628 r _ZN5PDPTEL14ADDR_PD_OFFSETE
000000010002e630 r _ZN5PDPTEL12ADDR_PD_BITSE
000000010002e638 r _ZN5PDPTEL12ADDR_PD_MASKE
000000010002e640 r _ZN5PDPTEL15ADDR_1GB_OFFSETE
000000010002e648 r _ZN5PDPTEL13ADDR_1GB_BITSE
000000010002e650 r _ZN5PDPTEL13ADDR_1GB_MASKE
000000010002e658 r _ZN3PDEL5D_BITE
000000010002e660 r _ZN3PDEL6PS_BITE
000000010002e668 r _ZN3PDEL5G_BITE
000000010002e670 r _ZN3PDEL5R_BITE
000000010002e678 r _ZN3PDEL7PAT_BITE
000000010002e680 r _ZN3PDEL7PK_BITSE
000000010002e688 r _ZN3PDEL6D_MASKE
000000010002e690 r _ZN3PDEL7PS_MASKE
000000010002e698 r _ZN3PDEL6G_MASKE
000000010002e6a0 r _ZN3PDEL6R_MASKE
000000010002e6a8 r _ZN3PDEL8PAT_MASKE
000000010002e6b0 r _ZN3PDEL7PK_MASKE
000000010002e6b8 r _ZN3PDEL14ADDR_PT_OFFSETE
000000010002e6c0 r _ZN3PDEL12ADDR_PT_BITSE
000000010002e6c8 r _ZN3PDEL12ADDR_PT_MASKE
000000010002e6d0 r _ZN3PDEL15ADDR_2MB_OFFSETE
000000010002e6d8 r _ZN3PDEL13ADDR_2MB_BITSE
000000010002e6e0 r _ZN3PDEL13ADDR_2MB_MASKE
000000010002e6e8 r _ZN3PTEL5D_BITE
000000010002e6f0 r _ZN3PTEL7PAT_BITE
000000010002e6f8 r _ZN3PTEL5G_BITE
000000010002e700 r _ZN3PTEL5R_BITE
000000010002e708 r _ZN3PTEL7PK_BITSE
000000010002e710 r _ZN3PTEL6D_MASKE
000000010002e718 r _ZN3PTEL8PAT_MASKE
000000010002e720 r _ZN3PTEL6G_MASKE
000000010002e728 r _ZN3PTEL6R_MASKE
000000010002e730 r _ZN3PTEL7PK_MASKE
000000010002e738 r _ZN3PTEL11ADDR_OFFSETE
000000010002e740 r _ZN3PTEL9ADDR_BITSE
000000010002e748 r _ZN3PTEL9ADDR_MASKE
000000010002e750 r _ZL13ENTRY_PRESENT
000000010002e751 r _ZL17ENTRY_PRESENT_NOT
000000010002e752 r _ZL17RWBIT_WRITE_ALLOW
000000010002e753 r _ZL21RWBIT_WRITE_ALLOW_NOT
000000010002e754 r _ZL16KERNE_BIT_KERNEL
000000010002e755 r _ZL20KERNE_BIT_KERNEL_NOT
000000010002e756 r _ZL17XD_BIT_EXECUTABLE
000000010002e757 r _ZL21XD_BIT_EXECUTABLE_NOT
000000010002e758 r _ZN18MEMMODULE_LOCAIONSL7INVALIDE
000000010002e759 r _ZN18MEMMODULE_LOCAIONSL25LOCATION_CODE_BASE_MEMMGRE
000000010002e75a r _ZN18MEMMODULE_LOCAIONSL29LOCATION_CODE_PHYMEM_ACCESSORE
000000010002e75b r _ZN18MEMMODULE_LOCAIONSL28LOCATION_CODE_KSPACE_MAP_MGRE
000000010002e75c r _ZN18MEMMODULE_LOCAIONSL25LOCATION_CODE_ADDRESSPACEE
000000010002e75d r _ZN18MEMMODULE_LOCAIONSL26LOCATION_CODE_OUT_SURFACESE
000000010002e75e r _ZN18MEMMODULE_LOCAIONSL25LOCATION_CODE_KPOOLMEMMGRE
000000010002e75f r _ZN18MEMMODULE_LOCAIONS18KPOOLMEMMGR_EVENTSL15EVENT_CODE_INITE
000000010002e760 r _ZN18MEMMODULE_LOCAIONS18KPOOLMEMMGR_EVENTSL16EVENT_CODE_ALLOCE
000000010002e762 r _ZN18MEMMODULE_LOCAIONS18KPOOLMEMMGR_EVENTS13ALLOC_RESULTS11FAIL_RESONSL28REASON_CODE_NO_AVALIABLE_MEME
000000010002e764 r _ZN18MEMMODULE_LOCAIONS18KPOOLMEMMGR_EVENTS13ALLOC_RESULTS11FAIL_RESONSL24REASON_CODE_SIZE_IS_ZEROE
000000010002e766 r _ZN18MEMMODULE_LOCAIONS18KPOOLMEMMGR_EVENTSL18EVENT_CODE_REALLOCE
000000010002e768 r _ZN18MEMMODULE_LOCAIONS18KPOOLMEMMGR_EVENTS15REALLOC_RESULTS11FAIL_RESONSL31REASON_CODE_DEMAND_SIZE_IS_ZEROE
000000010002e76a r _ZN18MEMMODULE_LOCAIONS18KPOOLMEMMGR_EVENTS15REALLOC_RESULTS11FAIL_RESONSL31REASON_CODE_PTR_NOT_IN_ANY_HEAPE
000000010002e76c r _ZN18MEMMODULE_LOCAIONS18KPOOLMEMMGR_EVENTS15REALLOC_RESULTS11FAIL_RESONSL28REASON_CODE_NO_AVALIABLE_MEME
000000010002e76e r _ZN18MEMMODULE_LOCAIONS18KPOOLMEMMGR_EVENTSL34EVENT_CODE_PER_PROCESSOR_HEAP_INITE
000000010002e770 r _ZN18MEMMODULE_LOCAIONS18KPOOLMEMMGR_EVENTS31PER_PROCESSOR_HEAP_INIT_RESULTS11FAIL_RESONSL27REASON_CODE_ALREADY_ENABLEDE
000000010002e772 r _ZN18MEMMODULE_LOCAIONS18KPOOLMEMMGR_EVENTS31PER_PROCESSOR_HEAP_INIT_RESULTS11FAIL_RESONSL31REASON_CODE_BAD_PROCESSOR_COUNTE
000000010002e774 r _ZN18MEMMODULE_LOCAIONS18KPOOLMEMMGR_EVENTS31PER_PROCESSOR_HEAP_INIT_RESULTS11FAIL_RESONSL26REASON_CODE_NO_VADDR_SPACEE
000000010002e776 r _ZN18MEMMODULE_LOCAIONS18KPOOLMEMMGR_EVENTS31PER_PROCESSOR_HEAP_INIT_RESULTS11FAIL_RESONSL23REASON_CODE_VM_ADD_FAILE
000000010002e778 r _ZN18MEMMODULE_LOCAIONS18KPOOLMEMMGR_EVENTS31PER_PROCESSOR_HEAP_INIT_RESULTS11FAIL_RESONSL28REASON_CODE_IDX_OUT_OF_RANGEE
000000010002e77a r _ZN18MEMMODULE_LOCAIONS18KPOOLMEMMGR_EVENTS31PER_PROCESSOR_HEAP_INIT_RESULTS11FAIL_RESONSL31REASON_CODE_HEAP_ALREADY_EXISTSE
000000010002e77c r _ZN18MEMMODULE_LOCAIONS18KPOOLMEMMGR_EVENTS31PER_PROCESSOR_HEAP_INIT_RESULTS11FAIL_RESONSL26REASON_CODE_HEAP_NOT_EXISTE
000000010002e77e r _ZN18MEMMODULE_LOCAIONSL32LOCATION_CODE_KPOOLMEMMGR_HCB_V3E
000000010002e77f r _ZN18MEMMODULE_LOCAIONS25KPOOLMEMMGR_HCB_V3_EVENTSL17EVENT_CODE_ONLINEE
000000010002e780 r _ZN18MEMMODULE_LOCAIONS25KPOOLMEMMGR_HCB_V3_EVENTSL18EVENT_CODE_OFFLINEE
000000010002e781 r _ZN18MEMMODULE_LOCAIONS25KPOOLMEMMGR_HCB_V3_EVENTSL16EVENT_CODE_ALLOCE
000000010002e782 r _ZN18MEMMODULE_LOCAIONS25KPOOLMEMMGR_HCB_V3_EVENTSL15EVENT_CODE_FREEE
000000010002e783 r _ZN18MEMMODULE_LOCAIONS25KPOOLMEMMGR_HCB_V3_EVENTSL18EVENT_CODE_REALLOCE
000000010002e784 r _ZN18MEMMODULE_LOCAIONS25KPOOLMEMMGR_HCB_V3_EVENTSL25EVENT_CODE_INTERNAL_ALLOCE
000000010002e785 r _ZN18MEMMODULE_LOCAIONS25KPOOLMEMMGR_HCB_V3_EVENTSL24EVENT_CODE_INTERNAL_FREEE
000000010002e786 r _ZN18MEMMODULE_LOCAIONS25KPOOLMEMMGR_HCB_V3_EVENTSL16EVENT_CODE_CLEARE
000000010002e788 r _ZN18MEMMODULE_LOCAIONS25KPOOLMEMMGR_HCB_V3_EVENTS19COMMON_FAIL_REASONSL20REASON_CODE_BAD_ADDRE
000000010002e78a r _ZN18MEMMODULE_LOCAIONS25KPOOLMEMMGR_HCB_V3_EVENTS19COMMON_FAIL_REASONSL30REASON_CODE_ADDR_NOT_THIS_HEAPE
000000010002e78c r _ZN18MEMMODULE_LOCAIONS25KPOOLMEMMGR_HCB_V3_EVENTS20COMMON_FATAL_REASONSL30REASON_CODE_METADATA_DESTROYEDE
000000010002e78e r _ZN18MEMMODULE_LOCAIONS25KPOOLMEMMGR_HCB_V3_EVENTS22INTERNAL_ALLOC_RESULTS11FAIL_RESONSL30REASON_CODE_NO_AVALIABLE_BUDDYE
000000010002e790 r _ZN18MEMMODULE_LOCAIONS25KPOOLMEMMGR_HCB_V3_EVENTS13ALLOC_RESULTS12FAIL_REASONSL24REASON_CODE_SIZE_IS_ZEROE
000000010002e792 r _ZN18MEMMODULE_LOCAIONS25KPOOLMEMMGR_HCB_V3_EVENTS13ALLOC_RESULTS12FAIL_REASONSL26REASON_CODE_SIZE_TOO_LARGEE
000000010002e794 r _ZN18MEMMODULE_LOCAIONS25KPOOLMEMMGR_HCB_V3_EVENTS12FREE_RESULTS13FATAL_REASONSL18DOUBLE_FREE_DETECTE
000000010002e796 r _ZN18MEMMODULE_LOCAIONS25KPOOLMEMMGR_HCB_V3_EVENTS12FREE_RESULTS13FATAL_REASONSL22MERGE_BUT_ALREADY_FREEE
000000010002e798 r _ZL14HCB_evict_span
000000010002e7a0 r _ZL23HCB_evictor_sleep_cycle
000000010002e7a8 r _ZN23COREHARDWARES_LOCATIONSL27LOCATION_CODE_GOP_PRIMITIVEE
000000010002e7a9 r _ZN23COREHARDWARES_LOCATIONS28GOP_PRIMITIVE_DRIVERS_EVENTSL4INITE
000000010002e7aa r _ZN23COREHARDWARES_LOCATIONS28GOP_PRIMITIVE_DRIVERS_EVENTS12INIT_RESULTS12FAIL_REASONSL21PARAM_METAINF_NULLPTRE
000000010002e7ac r _ZN23COREHARDWARES_LOCATIONS28GOP_PRIMITIVE_DRIVERS_EVENTS12INIT_RESULTS12FAIL_REASONSL9BAD_PARAME
000000010002e7ae r _ZN23COREHARDWARES_LOCATIONS28GOP_PRIMITIVE_DRIVERS_EVENTS12INIT_RESULTS12FAIL_REASONSL13ALLREADE_INITE
000000010002e7b0 r _ZN23COREHARDWARES_LOCATIONSL22LOCATION_CODE_INIT_GOPE
000000010002e7b1 r _ZN23COREHARDWARES_LOCATIONS15INIT_GOP_EVENTSL4INITE
000000010002e7b2 r _ZN23COREHARDWARES_LOCATIONS15INIT_GOP_EVENTS12INIT_RESULTS12FAIL_REASONSL21PARAM_METAINF_NULLPTRE
000000010002e7b4 r _ZN23COREHARDWARES_LOCATIONS15INIT_GOP_EVENTS12INIT_RESULTS12FAIL_REASONSL9BAD_PARAME
000000010002e7b6 r _ZN23COREHARDWARES_LOCATIONS15INIT_GOP_EVENTS12INIT_RESULTS12FAIL_REASONSL13ALLREADE_INITE
000000010002e7b8 r _ZN23COREHARDWARES_LOCATIONS15INIT_GOP_EVENTS12INIT_RESULTS12FAIL_REASONSL20MODIFY_ACCESS_FAILEDE
000000010002e7ba r _ZN28infrastructure_location_codeL30location_code_init_textconsoleE
000000010002e7bb r _ZN28infrastructure_location_code23init_textconsole_eventsL22textconsole_event_initE
000000010002e7bc r _ZN28infrastructure_location_code23init_textconsole_events12init_results12fail_reasonsL19font_bitmap_is_nullE
000000010002e7bd r _ZN28infrastructure_location_code23init_textconsole_events12init_results12fail_reasonsL13gfx_not_readyE
000000010002e7be r _ZN28infrastructure_location_code23init_textconsole_events12init_results12fail_reasonsL13bad_cell_sizeE
000000010002e7bf r _ZN28infrastructure_location_code23init_textconsole_events12init_results12fail_reasonsL9zero_gridE
000000010002e7c0 r _ZN28infrastructure_location_code23init_textconsole_events12init_results12fail_reasonsL12already_initE
000000010002e7c8 r _ZL16panic_will_magic
000000010002e7d0 r _ZL18panic_will_version
000000010002e7d8 r _ZL18x86_64_arch_spcify
000000010002e7e0 r _ZL29default_panic_behaviors_flags
000000010002e800 r _ZL13ter16x32_data
0000000100032808 r _ZL19ACPI_XSDT_SIGNATURE
0000000100032818 r _ZL19ACPI_FADT_SIGNATURE
0000000100032828 r _ZL19ACPI_FACS_SIGNATURE
0000000100032838 r _ZL19ACPI_MADT_SIGNATURE
0000000100032848 r _ZL19ACPI_DSDT_SIGNATURE
0000000100032858 r _ZL19ACPI_SSDT_SIGNATURE
0000000100032868 r _ZL19ACPI_MCFG_SIGNATURE
0000000100032878 r _ZL19ACPI_HPET_SIGNATURE
0000000100032888 r _ZL19ACPI_DMAR_SIGNATURE
0000000100032890 r _ZL21XSDT_SIGNATURE_UINT32
0000000100032894 r _ZL21FADT_SIGNATURE_UINT32
0000000100032898 r _ZL21FACS_SIGNATURE_UINT32
000000010003289c r _ZL21MADT_SIGNATURE_UINT32
00000001000328a0 r _ZL21DSDT_SIGNATURE_UINT32
00000001000328a4 r _ZL21SSDT_SIGNATURE_UINT32
00000001000328a8 r _ZL21MCFG_SIGNATURE_UINT32
00000001000328ac r _ZL21HPET_SIGNATURE_UINT32
00000001000328b0 r _ZL21DMAR_SIGNATURE_UINT32
00000001000328b4 r _ZN23COREHARDWARES_LOCATIONSL18LOCATION_CODE_HPETE
00000001000328b5 r _ZN23COREHARDWARES_LOCATIONS18HPET_DRIVER_EVENTSL4INITE
00000001000328b6 r _ZN23COREHARDWARES_LOCATIONS18HPET_DRIVER_EVENTS12INIT_RESULTS12FAIL_REASONSL17INVALID_ACPI_ADDRE
00000001000328b8 r _ZN23COREHARDWARES_LOCATIONS18HPET_DRIVER_EVENTS12INIT_RESULTS12FAIL_REASONSL19ACPI_ADDR_NOT_ALIGNE
00000001000328ba r _ZN23COREHARDWARES_LOCATIONS18HPET_DRIVER_EVENTS12INIT_RESULTS12FAIL_REASONSL13ALLREADE_INITE
00000001000328bc r _ZN23COREHARDWARES_LOCATIONS18HPET_DRIVER_EVENTS12INIT_RESULTS12FAIL_REASONSL19COUNTER_PERIOD_ZEROE
00000001000328c0 r _ZN4HPET4regsL34offset_General_Capabilities_and_IDE
00000001000328c4 r _ZN4HPET4regsL21offset_General_ConfigE
00000001000328c8 r _ZN4HPET4regsL25offset_main_counter_valueE
00000001000328cc r _ZN4HPET4regsL44offset_Timer0_Configuration_and_CapabilitiesE
00000001000328d0 r _ZN4HPET4regsL14size_per_timerE
00000001000328d4 r _ZN4HPET4regsL28COMPARATOR_COUNT_LEFT_OFFSETE
00000001000328d5 r _ZN4HPET4regsL21COMPARATOR_COUNT_MASKE
00000001000328d6 r _ZN4HPET4regsL30COUNTER_CLK_PERIOD_LEFT_OFFSETE
00000001000328d8 r _ZN4HPET4regsL18GCONFIG_ENABLE_BITE
00000001000328e0 r _ZN4HPET4regsL18Tn_INT_ENB_CNF_BITE
0000000100032f92 r CSWTCH.42
000000010003349a r ca.0
00000001000334a0 r Hex
0000000100037b48 R __init_rodata_end
0000000100038000 D __init_data_start
0000000100038000 D _low_4gb_pte_arr
0000000100838000 d _low_4gb_pd_arr
000000010083c000 D pdpte_arr
0000000100844000 d root_table
0000000100845000 d bsp_init_gdt
0000000100845020 D bsp_init_gdt_descriptor
0000000100845020 d bsp_init_gdt_end
0000000100846000 D bsp_init_idt_entries
0000000100847000 D bsp_init_idtr
0000000100847010 D __stack_chk_guard
0000000100847018 D EFIDebug
0000000100847020 D ShellDynamicCommandProtocolGuid
0000000100847030 D ShellParametersProtocolGuid
0000000100847040 D ShellProtocolGuid
0000000100847050 D SimpleTextInputExProtocol
0000000100847060 D gEfiDebugSupportProtocolGuid
0000000100847070 D gEfiDebugImageInfoTableGuid
0000000100847080 D AbsolutePointerProtocol
0000000100847090 D SimplePointerProtocol
00000001008470a0 D Tcp4Protocol
00000001008470b0 D Tcp4ServiceBindingProtocol
00000001008470c0 D Udp4Protocol
00000001008470d0 D Udp4ServiceBindingProtocol
00000001008470e0 D Ip4Protocol
00000001008470f0 D Ip4ServiceBindingProtocol
0000000100847100 D EfiDtbTableGuid
0000000100847110 D SalSystemTableGuid
0000000100847120 D gEfiSmbios3TableGuid
0000000100847130 D gEfiSmbiosTableGuid
0000000100847140 D AcpiTableGuid
0000000100847150 D MpsTableGuid
0000000100847160 D UnknownDevice
0000000100847170 D EfiPartTypeLegacyMbrGuid
0000000100847180 D EfiPartTypeSystemPartitionGuid
0000000100847190 D gEfiVTUTF8Guid
00000001008471a0 D gEfiVT100PlusGuid
00000001008471b0 D gEfiVT100Guid
00000001008471c0 D gEfiPcAnsiGuid
00000001008471d0 D AdapterDebugProtocol
00000001008471e0 D gEfiEdidOverrideProtocolGuid
00000001008471f0 D gEfiEdidActiveProtocolGuid
0000000100847200 D gEfiEdidDiscoveredProtocolGuid
0000000100847210 D gEfiGraphicsOutputProtocolGuid
0000000100847220 D TextInSpliterProtocol
0000000100847230 D ErrorOutSpliterProtocol
0000000100847240 D TextOutSpliterProtocol
0000000100847250 D VgaClassProtocol
0000000100847260 D LegacyBootProtocol
0000000100847270 D VariableStoreProtocol
0000000100847280 D InternalShellProtocol
0000000100847290 D gEfiMpServicesProtocolGuid
00000001008472a0 D gEfiFileSystemVolumeLabelInfoIdGuid
00000001008472b0 D gEfiFileSystemInfoGuid
00000001008472c0 D gEfiFileInfoGuid
00000001008472d0 D gEfiEbcProtocolGuid
00000001008472e0 D gEfiDriverFamilyOverrideProtocolGuid
00000001008472f0 D gEfiBusSpecificDriverOverrideProtocolGuid
0000000100847300 D gEfiPlatformDriverOverrideProtocolGuid
0000000100847310 D gEfiHashProtocolGuid
0000000100847320 D gEfiComponentName2ProtocolGuid
0000000100847330 D gEfiComponentNameProtocolGuid
0000000100847340 D gEfiDriverBindingProtocolGuid
0000000100847350 D gEfiPciRootBridgeIoProtocolGuid
0000000100847360 D gEfiPciIoProtocolGuid
0000000100847370 D gEFiUiInterfaceProtocolGuid
0000000100847380 D gEfiNetworkInterfaceIdentifierProtocolGuid
0000000100847390 D gEfiPxeBaseCodeCallbackProtocolGuid
00000001008473a0 D gEfiPxeBaseCodeProtocolGuid
00000001008473b0 D gEfiSimpleNetworkProtocolGuid
00000001008473c0 D gEfiSerialIoProtocolGuid
00000001008473d0 D gEfiUnicodeCollationProtocolGuid
00000001008473e0 D gEfiDeviceIoProtocolGuid
00000001008473f0 D gEfiLoadFile2ProtocolGuid
0000000100847400 D gEfiLoadFileProtocolGuid
0000000100847410 D gEfiLoadedImageDevicePathProtocolGuid
0000000100847420 D gEfiSimpleFileSystemProtocolGuid
0000000100847430 D gEfiDxeServicesTableGuid
0000000100847440 D gEfiDiskIo2ProtocolGuid
0000000100847450 D gEfiDiskIoProtocolGuid
0000000100847460 D gEfiBlockIo2ProtocolGuid
0000000100847470 D gEfiBlockIoProtocolGuid
0000000100847480 D gEfiSimpleTextOutProtocolGuid
0000000100847490 D gEfiSimpleTextInProtocolGuid
00000001008474a0 D gEfiLoadedImageProtocolGuid
00000001008474b0 D gEfiDevicePathUtilitiesProtocolGuid
00000001008474c0 D gEfiDevicePathFromTextProtocolGuid
00000001008474d0 D gEfiDevicePathToTextProtocolGuid
00000001008474e0 D gEfiDevicePathProtocolGuid
00000001008474f0 D gEfiGlobalVariableGuid
0000000100847500 D EndInstanceDevicePath
0000000100847504 D EndDevicePath
0000000100847508 D RootDevicePath
000000010084750c D PoolAllocationType
0000000100847520 D UnicodeInterface
0000000100847540 D LibStubUnicodeInterface
0000000100847580 D DevPathTable
0000000100847740 d SAliasId
0000000100847750 d SProtId
0000000100847760 d SMapId
0000000100847770 d SEnvId
0000000100847780 d ShellInterfaceProtocol
00000001008477a0 d KnownGuids
0000000100847a60 D ErrorCodeTable
0000000100847d08 d _GLOBAL_OFFSET_TABLE_
0000000100847d5c D __init_data_end
0000000100848000 B g_va_alloc_base
0000000100848000 B __init_bss_start
0000000100848040 b _ZL13s_heap_bitmap
000000010084e040 B g_init_heap
000000010084e700 B __dso_handle
000000010084e720 B _ZN7InitGop6s_infoE
000000010084e748 B _ZN7InitGop7s_readyE
000000010084e760 B _ZN16init_textconsole4viewE
000000010084e780 B _ZN16init_textconsole6cursorE
000000010084e788 B _ZN16init_textconsole11font_bitmapE
000000010084e790 B _ZN16init_textconsole10font_colorE
000000010084e794 B _ZN16init_textconsole16background_colorE
000000010084e798 B _ZN16init_textconsole5readyE
000000010084e7a0 B _ZN16init_textconsole11glyph_indexE
000000010084e9a0 B _ZN15basic_allocator10memory_mapE
000000010084e9a8 B _ZN15basic_allocator13pure_mem_viewE
000000010084e9b0 B _ZN15basic_allocator21pure_view_entry_countE
000000010084e9b8 B _ZN15basic_allocator18privious_alloc_endE
000000010084e9c0 B _ZN14page_allocator7mem_mapE
000000010084e9c8 B _ZN14page_allocator18mem_map_page_countE
000000010084e9d0 B _ZN14page_allocator13mem_map_pbaseE
000000010084e9d8 B _ZN14page_allocator13mem_map_bytesE
000000010084e9e0 B _ZN14page_allocator17mem_map_intervalsE
000000010084e9e8 B _ZN14page_allocator23mem_map_intervals_countE
000000010084e9f0 B _ZN14page_allocator10free_pagesE
000000010084e9f8 B _ZN14page_allocator13scan_top_baseE
000000010084ea00 B _ZN14page_allocator14scan_down_baseE
000000010084ea08 B _ZN14page_allocator13dram_top_addrE
000000010084ea20 B GlobalStatus
000000010084ea40 B will
000000010084eaa0 B _ZN5Panic21is_latest_panic_validE
000000010084eac0 B bsp_kout
000000010084eb60 B kendl
000000010084eb68 B LibRuntimeRestoreTPL
000000010084eb70 B LibRuntimeRaiseTPL
000000010084eb78 B LibRuntimeDebugOut
000000010084eb80 B LibFwInstance
000000010084eb88 B RT
000000010084eb90 B gZeroGuid
000000010084eba0 B BS
000000010084eba8 B ST
000000010084ebb0 B LibImageHandle
000000010084ebb8 B LibInitialized
000000010084ebc0 B GuidList
000000010084ebd0 B __init_bss_end
000000010084f000 B __init_stack_start
000000010085f000 B __init_heap_start
000000010085f000 B __init_stack_end
0000000100a5f000 B __init_heap_end
ff00000000000000 A PAGE_LEVEL_5
ffff7ffffe000000 A Koffset
ffff800000000000 A base_kernel_address
ffff800000000000 A KImgvbase
ffff800000000000 A PAGE_LEVEL_4
ffff800000000000 T text_begin
ffff800000000000 T _Z23self_introspection_initv
ffff80000000032f T get_phyaddr_for_Kbss
ffff8000000003b6 W _ZNK11vm_interval5vbaseEv
ffff8000000003d0 t _ZL12regist_tableP15command_entry_tm
ffff800000000493 T _Z30register_i8042_kshell_commandsv
ffff800000000520 T _Z29register_uefi_kshell_commandsv
ffff8000000005ad T _Z28register_mem_kshell_commandsv
ffff80000000063a T _Z29register_pcie_kshell_commandsv
ffff8000000006c7 T _Z28register_x86_kshell_commandsv
ffff800000000754 T _Z29register_intr_kshell_commandsv
ffff8000000007e2 T _ZN18kshell_framework_t23initial_commands_registEv
ffff800000000848 T _ZN5PanicC1Ev
ffff800000000848 T _ZN5PanicC2Ev
ffff800000000858 T _ZN5PanicD1Ev
ffff800000000858 T _ZN5PanicD2Ev
ffff800000000868 T _ZN5Panic5panicE21panic_behaviors_flagsPcPN13panic_context11x64_contextEP18panic_info_inshort6KURD_t
ffff800000000b7a T _ZN5Panic10write_willEv
ffff800000000f7c T _ZN5Panic10will_checkEv
ffff800000000f9e T _ZN5Panic13dumpregistersEPN13panic_context11x64_contextE
ffff800000001c8b t _Z41__static_initialization_and_destruction_0v
ffff800000001cc4 t _GLOBAL__sub_I_GlobalKernelStatus
ffff800000001cd6 W _ZN6KURD_tC1Ev
ffff800000001cd6 W _ZN6KURD_tC2Ev
ffff800000001d3c W _ZN14spinlock_cpp_tC1Ev
ffff800000001d3c W _ZN14spinlock_cpp_tC2Ev
ffff800000001d52 W _ZN15panic_last_willC1Ev
ffff800000001d52 W _ZN15panic_last_willC2Ev
ffff800000001d78 T __cxa_atexit
ffff800000001d93 T delay
ffff800000001dbe T _Z8ipi_testv
ffff800000001e57 T _Z15ipi_start_schedP20x64_standard_context
ffff800000001f0e T _Z15Collatz_kthreadPv
ffff800000001f6e T _Z12kthread_ymirPv
ffff800000002073 T _Z20create_first_kthreadv
ffff80000000225c t _ZL17ipi_shutdown_funcPv
ffff80000000226c T broadcast_shutdown
ffff80000000231d T _Z15very_early_initP21init_to_kernel_header
ffff80000000281b T kernel_start
ffff800000002de6 T ap_init
ffff800000002eaa W _ZN11HPET_driverC1Ev
ffff800000002eaa W _ZN11HPET_driverC2Ev
ffff800000002ed0 W _ZN9Ktemplats11list_doublyIN26APICtb_analyzed_structures17io_apic_structureEE5frontEv
ffff800000002efc T _ZN15DmesgRingBuffer4InitEP11vm_interval
ffff800000002f92 T _ZN15DmesgRingBuffer5putskEPcm
ffff8000000031ce t _Z41__static_initialization_and_destruction_0v
ffff8000000031ee t _GLOBAL__sub_I__ZN15DmesgRingBuffer4buffE
ffff800000003200 W _ZNK11vm_interval8byte_cntEv
ffff80000000321a W _ZN16spinrwlock_cpp_tC1Ev
ffff80000000321a W _ZN16spinrwlock_cpp_tC2Ev
ffff800000003260 T _kernel_Init
ffff8000000032d9 T secure_hlt
ffff8000000032dd T ap_final_work
ffff8000000032f0 T ap_init_patch_idt_pe
ffff800000003510 T resources_shift
ffff800000003527 t resources_shift.load_cs_finish
ffff80000000353b T __udivti3
ffff8000000037cf T __umodti3
ffff80000000385d t _ZL9tsc_to_usm
ffff8000000038c6 t _ZL9tsc_to_nsm
ffff80000000392f T _ZN5ktime21get_microsecond_stampEv
ffff800000003980 T _ZN5ktime20get_nanosecond_stampEv
ffff8000000039ba T _ZN5ktime19microsecond_pollingEm
ffff8000000039fc T _ZN5ktime13GetTime_in_osEv
ffff800000003bc1 T _ZN5ktime11modify_timeE8macro_tm
ffff800000003cd2 T _ZN5ktime16heart_beat_alarm16processor_registEv
ffff800000003d04 T _ZN5ktime16heart_beat_alarm18set_clock_by_stampEm
ffff800000003d4c T _ZN5ktime16heart_beat_alarm19set_clock_by_offsetEm
ffff800000003d94 T _ZN5ktime16heart_beat_alarm12cancel_clockEv
ffff800000003dc6 T _ZN5ktime16heart_beat_alarm12is_alarm_setEv
ffff800000003df8 t _ZN12_GLOBAL__N_1L25textconsole_backend_writeEPKcm
ffff800000003e53 t _ZN12_GLOBAL__N_1L33textconsole_backend_running_writeEPKcm
ffff800000003e95 t _ZN12_GLOBAL__N_1L35textconsole_backend_running_putcharEc
ffff800000003ebb t _ZN12_GLOBAL__N_1L31textconsole_backend_running_numEm12num_format_t19numer_system_select
ffff800000003ef1 T _Z10tid_to_idxm
ffff800000003f08 T _ZN15textconsole_GoP12default_kurdEv
ffff800000003f4c T _ZN15textconsole_GoP15default_successEv
ffff800000003f82 T _ZN15textconsole_GoP12default_failEv
ffff800000003fb8 T _ZN15textconsole_GoP13default_fatalEv
ffff800000003fee T _ZN15textconsole_GoP4InitEPKh5Vec2ijj
ffff80000000447e T _ZN15textconsole_GoP18enable_font_renderEv
ffff8000000048cc T _ZN15textconsole_GoP5ReadyEv
ffff8000000048e0 T _ZN15textconsole_GoP7PutCharEc
ffff800000004e06 T _ZN15textconsole_GoP9PutStringEPKcm
ffff800000004e7c T _ZN15textconsole_GoP5ClearEv
ffff800000004f00 T _ZN15textconsole_GoP24RuntimeInitServiceThreadEv
ffff800000005002 T _ZN15textconsole_GoP24RuntimeWakeServiceThreadEv
ffff80000000502a T _ZN15textconsole_GoP19RuntimeSubmitStringEPKcmb
ffff800000005224 T _ZN15textconsole_GoP17RuntimeSubmitCharEcb
ffff800000005400 T _ZN15textconsole_GoP16RuntimeSubmitNumEm12num_format_t19numer_system_selectb
ffff8000000055f8 T _ZN15textconsole_GoP18RuntimeSubmitFlushEb
ffff8000000057c4 t _ZZN15textconsole_GoP24RuntimeServiceThreadMainEPvENKUljE_clEj
ffff8000000057e0 T _ZN15textconsole_GoP24RuntimeServiceThreadMainEPv
ffff800000005ae4 t _Z41__static_initialization_and_destruction_0v
ffff800000005b1d t _GLOBAL__sub_I__ZN15textconsole_GoP18template_characterE
ffff800000005b30 W _ZN6KURD_tC1Etthhhhh
ffff800000005b30 W _ZN6KURD_tC2Etthhhhh
ffff800000005bf4 W _ZN17spintrylock_cpp_tC1Ev
ffff800000005bf4 W _ZN17spintrylock_cpp_tC2Ev
ffff800000005c0a t _ZL6tok_eqRK7token_tPKc
ffff800000005c76 T _Z10cmd_pallocPK6line_t
ffff800000006038 T _Z9cmd_pfreePK6line_t
ffff8000000062bc T _Z10cmd_vallocPK6line_t
ffff80000000667e T _Z9cmd_vfreePK6line_t
ffff800000006902 T _Z9cmd_preadPK6line_t
ffff800000006f39 T _Z10cmd_pwritePK6line_t
ffff80000000749a T _Z8cmd_pmapPK6line_t
ffff8000000078c5 T _Z10cmd_punmapPK6line_t
ffff800000007bbb T _Z8cmd_dmapPK6line_t
ffff800000007f0d T _Z14cmd_stackallocPK6line_t
ffff8000000082c0 T _Z10cmd_kvreadPK6line_t
ffff80000000870d T _Z11cmd_kvwritePK6line_t
ffff800000008a7d T _Z10cmd_phymemPK6line_t
ffff800000008f20 T _Z10cmd_vminfoPK6line_t
ffff8000000092bf T ap_regist_core
ffff8000000092d2 t _ZL18secure_hlt_wrapperPv
ffff8000000092ec T _ZN9task_pool12default_kurdEv
ffff800000009330 T _ZN9task_pool15default_successEv
ffff800000009366 T _ZN9task_pool12default_failEv
ffff800000009388 T _ZN9task_pool13default_fatalEv
ffff8000000093aa T _ZN9task_pool15enable_subtableEj
ffff800000009538 T _ZN9task_pool20try_disable_subtableEj
ffff80000000965a T _ZN9task_pool4InitEv
ffff800000009666 T _ZN9task_pool9alloc_tidER6KURD_t
ffff80000000983c T _ZN9task_pool10get_by_tidEmR6KURD_t
ffff8000000099ae T _ZN23per_processor_scheduler13sleep_queue_t6insertEP4task
ffff800000009c02 T _ZN9task_pool5allocEP4taskR6KURD_t
ffff800000009d22 T _ZN9task_pool11release_tidEm
ffff800000009f1c T _ZN23per_processor_schedulerC1Ev
ffff800000009f1c T _ZN23per_processor_schedulerC2Ev
ffff80000000a2c4 T _ZN23per_processor_schedulerD1Ev
ffff80000000a2c4 T _ZN23per_processor_schedulerD2Ev
ffff80000000a301 t _ZN12_GLOBAL__N_1L15panic_with_kurdE6KURD_t
ffff80000000a374 T _ZN23per_processor_scheduler12default_kurdEv
ffff80000000a3bc T _ZN23per_processor_scheduler15default_successEv
ffff80000000a3fc T _ZN23per_processor_scheduler12default_failEv
ffff80000000a42c T _ZN23per_processor_scheduler13default_fatalEv
ffff80000000a45c T _ZN23per_processor_scheduler16sleep_tasks_wakeEv
ffff80000000a7dc t _ZZN23per_processor_scheduler5schedEvENKUlvE_clEv
ffff80000000a9da T _ZN23per_processor_scheduler5schedEv
ffff80000000aac0 T _ZN23per_processor_scheduler17insert_ready_taskEP4taskb
ffff80000000abf0 T _ZN4taskC1E11task_type_tPv
ffff80000000abf0 T _ZN4taskC2E11task_type_tPv
ffff80000000ac68 T _ZN4task7get_tidEv
ffff80000000ac7e T _ZN4task13get_task_typeEv
ffff80000000ac94 T _ZN4task25get_belonged_processor_idEv
ffff80000000acaa T _ZN4task9set_readyEv
ffff80000000acf4 T _ZN4task11set_blockedEv
ffff80000000ad20 T _ZN4task8set_deadEv
ffff80000000ad4c T _ZN4task10set_zombieEv
ffff80000000ad8e T _ZN4task11set_runningEv
ffff80000000adba T _ZN4taskD1Ev
ffff80000000adba T _ZN4taskD2Ev
ffff80000000ade0 T _ZN4task16assign_valid_tidEm
ffff80000000ae0e T _ZN4task9get_stateEv
ffff80000000ae24 T _ZN4task25set_belonged_processor_idEj
ffff80000000ae40 T _ZN4task11atomic_loadEv
ffff80000000ae76 T _ZN14tid_wait_queue10wakeup_allEv
ffff80000000aeea t _Z41__static_initialization_and_destruction_0v
ffff80000000af0a t _GLOBAL__sub_I__ZN9task_pool10root_tableE
ffff80000000af1c W _ZN16used_slot_bitmapC1Em
ffff80000000af1c W _ZN16used_slot_bitmapC2Em
ffff80000000af6c W _ZN16used_slot_bitmap18used_bit_count_addEm
ffff80000000afc4 W _ZN16used_slot_bitmap18used_bit_count_subEm
ffff80000000b038 W _ZN16used_slot_bitmapD1Ev
ffff80000000b038 W _ZN16used_slot_bitmapD2Ev
ffff80000000b05a W _ZN9Ktemplats11list_doublyIP4taskEC1Ev
ffff80000000b05a W _ZN9Ktemplats11list_doublyIP4taskEC2Ev
ffff80000000b08c W _ZN23per_processor_scheduler13sleep_queue_tC1Ev
ffff80000000b08c W _ZN23per_processor_scheduler13sleep_queue_tC2Ev
ffff80000000b0ae W _ZN23per_processor_scheduler13sleep_queue_tD1Ev
ffff80000000b0ae W _ZN23per_processor_scheduler13sleep_queue_tD2Ev
ffff80000000b0d0 W _ZN9Ktemplats11list_doublyImEC1Ev
ffff80000000b0d0 W _ZN9Ktemplats11list_doublyImEC2Ev
ffff80000000b102 W _ZN9Ktemplats11list_doublyIP4taskE10alloc_nodeERKS2_
ffff80000000b198 W _ZN9Ktemplats11list_doublyIP4taskED1Ev
ffff80000000b198 W _ZN9Ktemplats11list_doublyIP4taskED2Ev
ffff80000000b1ba W _ZN9Ktemplats11list_doublyIP4taskE5frontEv
ffff80000000b1e6 W _ZN9Ktemplats11list_doublyIP4taskE9pop_frontEv
ffff80000000b274 W _ZN9Ktemplats11list_doublyIP4taskE9push_backERKS2_
ffff80000000b310 W _ZNK9Ktemplats11list_doublyIP4taskE5emptyEv
ffff80000000b32c W _ZN9Ktemplats11list_doublyIP4taskE5beginEv
ffff80000000b35c W _ZN9Ktemplats11list_doublyIP4taskE3endEv
ffff80000000b386 W _ZNK9Ktemplats11list_doublyIP4taskE8iteratorneERKS4_
ffff80000000b3ac W _ZN9Ktemplats11list_doublyIP4taskE8iteratorppEv
ffff80000000b3dc W _ZN9Ktemplats11list_doublyIP4taskE8iteratordeEv
ffff80000000b3f6 W _ZN9Ktemplats11list_doublyIP4taskE15pop_front_valueEv
ffff80000000b49a W _ZNK9Ktemplats11list_doublyIP4taskE4sizeEv
ffff80000000b4b0 W _ZN9Ktemplats11list_doublyIP4taskE10push_frontERKS2_
ffff80000000b54a W _ZN9Ktemplats11list_doublyImED1Ev
ffff80000000b54a W _ZN9Ktemplats11list_doublyImED2Ev
ffff80000000b56c W _ZNK9Ktemplats11list_doublyImE4sizeEv
ffff80000000b582 W _ZN9Ktemplats11list_doublyImE15pop_front_valueEv
ffff80000000b626 W _ZN9Ktemplats11list_doublyIP4taskE5clearEv
ffff80000000b69a W _ZN9Ktemplats11list_doublyIP4taskE9free_nodeEPNS3_4nodeE
ffff80000000b6d4 W _ZN9Ktemplats11list_doublyIP4taskE8iteratorC1EPNS3_4nodeE
ffff80000000b6d4 W _ZN9Ktemplats11list_doublyIP4taskE8iteratorC2EPNS3_4nodeE
ffff80000000b6f2 W _ZN9Ktemplats11list_doublyImE5clearEv
ffff80000000b766 W _ZN9Ktemplats11list_doublyImE9free_nodeEPNS1_4nodeE
ffff80000000b79f t _ZN12_GLOBAL__N_1L27self_scheduler_default_kurdEv
ffff80000000b7e3 t _ZN12_GLOBAL__N_1L25make_self_scheduler_fatalEht
ffff80000000b839 t _ZN12_GLOBAL__N_1L15panic_with_kurdEP20x64_standard_context6KURD_tPc
ffff80000000b8e3 t _ZN12_GLOBAL__N_1L15panic_with_kurdE6KURD_tPc
ffff80000000b958 T _Z19kthread_common_saveP20x64_standard_contextb
ffff80000000bc21 T allthread_true_enter
ffff80000000bc58 T create_kthread
ffff80000000bfdd T kthread_yield_true_enter
ffff80000000c0f8 T resched
ffff80000000c236 T kthread_exit_cppenter
ffff80000000c56a T kthread_wait
ffff80000000c6c7 T kthread_wait_cppenter
ffff80000000c8f4 T kthread_self_blocked_cppenter
ffff80000000c9d0 T wakeup_thread
ffff80000000cdd3 T kthread_sleep_cppenter
ffff80000000cf14 T block_queue_cppenter
ffff80000000d046 T block_if_equal_cppenter
ffff80000000d1b4 T release_kthread
ffff80000000d314 T _Z22kthread_call_cpp_enterP20x64_standard_context
ffff80000000d41e t __tcfglobal_schedulers
ffff80000000d45f t _Z41__static_initialization_and_destruction_0v
ffff80000000d4dd t _GLOBAL__sub_I_global_schedulers
ffff80000000d4f0 W _ZN14tid_wait_queue4pushEm
ffff80000000d546 W _ZN9Ktemplats11list_doublyImE10push_frontERKm
ffff80000000d5e0 W _ZN9Ktemplats11list_doublyImE9push_backERKm
ffff80000000d67c W _ZN9Ktemplats11list_doublyIP4taskE8pop_backEv
ffff80000000d70e W _ZN9Ktemplats11list_doublyImE10alloc_nodeERKm
ffff80000000d7a3 T _Z9probe_envv
ffff80000000d822 W _ZN9cpuid_tmpC1Ejj
ffff80000000d822 W _ZN9cpuid_tmpC2Ejj
ffff80000000d880 T atoimc_kthread_load
ffff80000000d89c T kthread_yield
ffff80000000d8a5 T kthread_exit
ffff80000000d8ae T kthread_self_blocked
ffff80000000d8b7 T kthread_sleep
ffff80000000d8c0 T kthread_wait_truly_wait
ffff80000000d8c9 T block_queue
ffff80000000d8d2 T block_if_equal
ffff80000000d8dc T align_down
ffff80000000d8f9 T min
ffff80000000d91f T max
ffff80000000d945 T _Z4log2m
ffff80000000d99a T log2_up
ffff80000000d9d5 T alignup_and_shift_right
ffff80000000da1a T format_num_to_buffer
ffff80000000dc78 T strcmp_in_kernel
ffff80000000dcff T strlen_in_kernel
ffff80000000dd35 T strncmp_in_kernel
ffff80000000ddbb T ksetmem_8
ffff80000000de11 T ksetmem_16
ffff80000000dea8 T ksetmem_32
ffff80000000df3b T ksetmem_64
ffff80000000dfd3 T _Z23__kspace_stack_chk_failv
ffff80000000dfdc T __wrap___stack_chk_fail
ffff80000000dfef T is_aligned
ffff80000000e021 T is_addr_kernel_address
ffff80000000e044 t _ZZNK11vm_interval13to_pages_infoEvENKUlmE_clEm
ffff80000000e072 t _ZZNK11vm_interval13to_pages_infoEvENKUlmmE_clEmm
ffff80000000e09c t _ZZNK11vm_interval13to_pages_infoEvENKUlmmE0_clEmm
ffff80000000e0c6 T _ZNK11vm_interval13to_pages_infoEv
ffff80000000e67e T _Z25vm_interval_to_pages_infoR26seg_to_pages_info_pakage_t11vm_interval
ffff80000000e736 t _ZZ25vm_interval_to_pages_infoR26seg_to_pages_info_pakage_t7VM_DESCENKUlmE_clEm
ffff80000000e764 t _ZZ25vm_interval_to_pages_infoR26seg_to_pages_info_pakage_t7VM_DESCENKUlmmE_clEmm
ffff80000000e78e t _ZZ25vm_interval_to_pages_infoR26seg_to_pages_info_pakage_t7VM_DESCENKUlmmE0_clEmm
ffff80000000e7b8 T _Z25vm_interval_to_pages_infoR26seg_to_pages_info_pakage_t7VM_DESC
ffff80000000ecba T ksystemramcpy
ffff80000000edcb T linearTBSerialDelete
ffff80000000ee77 T linearTBSerialInsert
ffff80000000efa7 T align_up
ffff80000000efea T atomic_write8_wmb
ffff80000000f00a T atomic_write16_wmb
ffff80000000f02b T atomic_write32_wmb
ffff80000000f049 T atomic_write64_wmb
ffff80000000f06a T atomic_read8_rmb
ffff80000000f088 T atomic_read16_rmb
ffff80000000f0a8 T atomic_read32_rmb
ffff80000000f0c5 T atomic_read64_rmb
ffff80000000f0e5 T atomic_write8_rdbk
ffff80000000f116 T atomic_write16_rdbk
ffff80000000f14a T atomic_write32_rdbk
ffff80000000f177 T atomic_write64_rdbk
ffff80000000f1ac W _ZN26seg_to_pages_info_pakage_t5clearEv
ffff80000000f23e W _ZNK11vm_interval5pbaseEv
ffff80000000f258 T _Z31set_result_fail_and_error_level6KURD_t
ffff80000000f284 T _Z22set_fatal_result_level6KURD_t
ffff80000000f2ad T _Z12kurd_get_raw6KURD_t
ffff80000000f348 T _Z11raw_analyzem
ffff80000000f432 T _Z10error_kurd6KURD_t
ffff80000000f44c T _Z16success_all_kurd6KURD_t
ffff80000000f466 T __popcountdi2
ffff80000000f50a T _ZN8bitmap_t7bit_setEmb
ffff80000000f5d0 T _ZN8bitmap_t7bit_getEm
ffff80000000f612 T _ZN8bitmap_t8bits_setEmmb
ffff80000000f70c T _ZN8bitmap_t9bytes_setEmmb
ffff80000000f800 T _ZN8bitmap_t8u64s_setEmmb
ffff80000000f86e T _ZN11huge_bitmapC1Em
ffff80000000f86e T _ZN11huge_bitmapC2Em
ffff80000000f8ac T _ZN11huge_bitmap17second_stage_initEv
ffff80000000f972 T _ZN11huge_bitmapD1Ev
ffff80000000f972 T _ZN11huge_bitmapD2Ev
ffff80000000f9cc T _ZN9Ktemplats13kernel_bitmapC1Em
ffff80000000f9cc T _ZN9Ktemplats13kernel_bitmapC2Em
ffff80000000fa96 T _ZN9Ktemplats13kernel_bitmapD1Ev
ffff80000000fa96 T _ZN9Ktemplats13kernel_bitmapD2Ev
ffff80000000faee T _ZN8bitmap_t8all_trueEv
ffff80000000fb42 T _ZN8bitmap_t9all_falseEv
ffff80000000fb94 W _ZN8bitmap_tC1Ev
ffff80000000fb94 W _ZN8bitmap_tC2Ev
ffff80000000fbce t _ZL9cpu_relaxv
ffff80000000fbd7 t _ZL11read_rflagsv
ffff80000000fbeb t _ZL30get_if_enable_accept_interruptv
ffff80000000fc09 t _ZL18disable_interruptsv
ffff80000000fc11 t _ZL17enable_interruptsv
ffff80000000fc1a T _ZN14spinlock_cpp_t4lockEv
ffff80000000fc58 T _ZN14spinlock_cpp_t9is_lockedEv
ffff80000000fc72 T _ZN14spinlock_cpp_t6unlockEv
ffff80000000fc8c T _ZN30spinlock_interrupt_about_guardC1ER14spinlock_cpp_t
ffff80000000fc8c T _ZN30spinlock_interrupt_about_guardC2ER14spinlock_cpp_t
ffff80000000fcf0 T _ZN30spinlock_interrupt_about_guardD1Ev
ffff80000000fcf0 T _ZN30spinlock_interrupt_about_guardD2Ev
ffff80000000fd3e T _ZN24reentrant_spinlock_cpp_tC1Ev
ffff80000000fd3e T _ZN24reentrant_spinlock_cpp_tC2Ev
ffff80000000fd7e T _ZN24reentrant_spinlock_cpp_t4lockEv
ffff80000000fe82 T _ZN24reentrant_spinlock_cpp_t6unlockEv
ffff80000000ff50 T _ZN24reentrant_spinlock_cpp_t9is_lockedEv
ffff80000000ff90 T _ZN24reentrant_spinlock_guardC1ER24reentrant_spinlock_cpp_t
ffff80000000ff90 T _ZN24reentrant_spinlock_guardC2ER24reentrant_spinlock_cpp_t
ffff80000000ffc4 T _ZN24reentrant_spinlock_guardD1Ev
ffff80000000ffc4 T _ZN24reentrant_spinlock_guardD2Ev
ffff80000000ffea T _ZN13trylock_cpp_t8try_lockEv
ffff800000010008 T _ZN13trylock_cpp_t6unlockEv
ffff800000010022 T _ZN17spintrylock_cpp_t4lockEv
ffff800000010060 T _ZN17spintrylock_cpp_t8try_lockEv
ffff80000001007e T _ZN17spintrylock_cpp_t6unlockEv
ffff800000010098 T _ZN16spinrwlock_cpp_t9read_lockEv
ffff800000010102 T _ZN16spinrwlock_cpp_t11read_unlockEv
ffff80000001016a T _ZN16spinrwlock_cpp_t10write_lockEv
ffff800000010190 T _ZN16spinrwlock_cpp_t12write_unlockEv
ffff8000000101b6 T _ZN37spinrwlock_interrupt_about_read_guardC1ER16spinrwlock_cpp_t
ffff8000000101b6 T _ZN37spinrwlock_interrupt_about_read_guardC2ER16spinrwlock_cpp_t
ffff80000001021a T _ZN37spinrwlock_interrupt_about_read_guardD1Ev
ffff80000001021a T _ZN37spinrwlock_interrupt_about_read_guardD2Ev
ffff800000010268 T _ZN38spinrwlock_interrupt_about_write_guardC1ER16spinrwlock_cpp_t
ffff800000010268 T _ZN38spinrwlock_interrupt_about_write_guardC2ER16spinrwlock_cpp_t
ffff8000000102cc T _ZN38spinrwlock_interrupt_about_write_guardD1Ev
ffff8000000102cc T _ZN38spinrwlock_interrupt_about_write_guardD2Ev
ffff80000001031a T _ZN15interrupt_guardC1Ev
ffff80000001031a T _ZN15interrupt_guardC2Ev
ffff800000010356 T _ZN15interrupt_guardD1Ev
ffff800000010356 T _ZN15interrupt_guardD2Ev
ffff80000001038e T _ZN22spintrylock_spin_guardC1ER17spintrylock_cpp_t
ffff80000001038e T _ZN22spintrylock_spin_guardC2ER17spintrylock_cpp_t
ffff8000000103c2 T _ZN22spintrylock_spin_guardD1Ev
ffff8000000103c2 T _ZN22spintrylock_spin_guardD2Ev
ffff8000000103e8 T _ZN21spintrylock_try_guardC1EP17spintrylock_cpp_t
ffff8000000103e8 T _ZN21spintrylock_try_guardC2EP17spintrylock_cpp_t
ffff800000010440 T _ZNK21spintrylock_try_guard9is_lockedEv
ffff80000001045c T _ZN21spintrylock_try_guardD1Ev
ffff80000001045c T _ZN21spintrylock_try_guardD2Ev
ffff80000001048e W _ZN15atomic_scalar_tImEC1Ev
ffff80000001048e W _ZN15atomic_scalar_tImEC2Ev
ffff8000000104a8 W _ZN15atomic_scalar_tImE5storeEm19atomic_memory_order
ffff8000000104ca W _ZNK15atomic_scalar_tImE4loadE19atomic_memory_order
ffff8000000104e2 W _ZN15atomic_scalar_tImE14cmpxchg_strongERmm19atomic_memory_orderS2_
ffff800000010524 T _ZN8RBTree_t11left_rotateEP4Node
ffff80000001059c T _ZN8RBTree_t12right_rotateEP4Node
ffff800000010614 T _ZN8RBTree_t10fix_insertEP4Node
ffff800000010a04 T _ZN8RBTree_t11subtree_minEP4Node
ffff800000010a32 T _ZN8RBTree_t10fix_removeEP4NodeS1_
ffff800000011088 T _ZN8RBTree_t11subtree_maxEP4Node
ffff8000000110bc T _ZN8RBTree_t9successorEP4Node
ffff80000001114e T _ZN8RBTree_tC1EPFiPKvS1_E
ffff80000001114e T _ZN8RBTree_tC2EPFiPKvS1_E
ffff800000011178 T _ZN8RBTree_t6searchEPv
ffff8000000111ee T _ZN8RBTree_t6insertEPv
ffff800000011356 T _ZN8RBTree_t6removeEPv
ffff800000011694 T _ZN3kio30defalut_KURD_module_interpatorE6KURD_t
ffff800000011722 T _ZN3kio4kout17__print_event_hexEh
ffff8000000117bc T _ZN3kio4kout11print_numerEPm19numer_system_selecthb
ffff800000011c62 T _ZN3kio4kout18__print_level_codeE6KURD_t
ffff800000011dea T _ZN3kio4kout19__print_module_codeE6KURD_t
ffff800000012150 T _ZN3kio4kout19__print_result_codeE6KURD_t
ffff8000000122d8 T _ZN3kio4kout18__print_err_domainE6KURD_t
ffff8000000124d8 T _ZN3kio4kout12uniform_putsEPKcm
ffff80000001269e T _ZN3kio4kout18raw_puts_and_countEPKcm
ffff80000001270c T _ZN3kio4koutlsERNS_8tmp_buffE
ffff800000012e92 T _ZN3kio4koutlsE6KURD_t
ffff800000012f8a T _ZN3kio4koutlsEPKc
ffff800000013046 T _ZN3kio4koutlsEc
ffff8000000131c0 T _ZN3kio4kout4InitEv
ffff8000000132f2 T _ZN3kio4koutlsEPKv
ffff8000000133b6 T _ZN3kio4koutlsEm
ffff800000013456 T _ZN3kio4koutlsEl
ffff8000000134ec T _ZN3kio4koutlsEj
ffff80000001358a T _ZN3kio4koutlsEi
ffff800000013628 T _ZN3kio4koutlsEt
ffff8000000136c8 T _ZN3kio4koutlsEs
ffff800000013768 T _ZN3kio4koutlsEh
ffff800000013808 T _ZN3kio4koutlsEa
ffff8000000138a8 T _ZN3kio4kout9shift_binEv
ffff8000000138c2 T _ZN3kio4kout9shift_decEv
ffff8000000138dc T _ZN3kio4kout9shift_hexEv
ffff8000000138f6 T _ZN3kio4kout14get_statisticsEv
ffff8000000139bc T _ZN3kio4koutlsENS_8now_timeE
ffff800000013aa0 T _ZN3kio4koutlsENS_4endlE
ffff800000013b36 T _ZN3kio4kout16register_backendENS_12kout_backendE
ffff800000013c2a T _ZN3kio4kout18unregister_backendEm
ffff800000013c94 T _ZN3kio4kout12mask_backendEm
ffff800000013d0a T _ZN3kio4koutlsE19numer_system_select
ffff800000013e3d t _Z41__static_initialization_and_destruction_0v
ffff800000013ebf t _GLOBAL__sub_I_bsp_kout
ffff800000013ed2 W _ZN3kio8now_timeC1Ev
ffff800000013ed2 W _ZN3kio8now_timeC2Ev
ffff800000013ee2 W _ZN3kio4endlC1Ev
ffff800000013ee2 W _ZN3kio4endlC2Ev
ffff800000013ef2 W _ZN3kio4koutD1Ev
ffff800000013ef2 W _ZN3kio4koutD2Ev
ffff800000013f02 W _ZN3kio4koutC1Ev
ffff800000013f02 W _ZN3kio4koutC2Ev
ffff800000013f4e T _ZN11ksymmanager4InitEP11vm_intervalm
ffff800000013ff2 T _ZN11ksymmanager19get_entry_near_addrEm
ffff800000014124 T _ZN11ksymmanager11get_phybaseEv
ffff800000014138 T _ZN11ksymmanager12get_virtbaseEv
ffff80000001414c T _ZN11ksymmanager15get_entry_countEv
ffff80000001415e t _ZL6str_eqPKcS0_
ffff8000000141e1 T _Z39kptrace_current_stack_has_kthread_entryv
ffff800000014352 T _Z10self_tracev
ffff8000000143ac T _Z10else_tracePv
ffff800000014598 T _ZN3kio8tmp_buffC1Ev
ffff800000014598 T _ZN3kio8tmp_buffC2Ev
ffff800000014614 T _ZN3kio8tmp_buffD1Ev
ffff800000014614 T _ZN3kio8tmp_buffD2Ev
ffff800000014658 T _ZN3kio8tmp_bufflsE6KURD_t
ffff8000000146cc T _ZN3kio8tmp_bufflsEPKc
ffff80000001476a T _ZN3kio8tmp_bufflsEc
ffff8000000147de T _ZN3kio8tmp_bufflsEPKv
ffff800000014862 T _ZN3kio8tmp_bufflsEm
ffff8000000148ec T _ZN3kio8tmp_bufflsEl
ffff800000014976 T _ZN3kio8tmp_bufflsEj
ffff8000000149fe T _ZN3kio8tmp_bufflsEi
ffff800000014a8a T _ZN3kio8tmp_bufflsENS_8now_timeE
ffff800000014aee T _ZN3kio8tmp_bufflsENS_4endlE
ffff800000014b14 T _ZN3kio8tmp_bufflsEt
ffff800000014b9e T _ZN3kio8tmp_bufflsEs
ffff800000014c2a T _ZN3kio8tmp_bufflsEh
ffff800000014cb4 T _ZN3kio8tmp_bufflsEa
ffff800000014d40 T _ZN3kio8tmp_bufflsE19numer_system_select
ffff800000014d60 T _ZN3kio8tmp_buff7is_fullEv
ffff800000014d80 W _ZN3kio8tmp_buff5entryC1Ev
ffff800000014d80 W _ZN3kio8tmp_buff5entryC2Ev
ffff800000014dbd T query_apicid
ffff800000014df3 T query_x2apicid
ffff800000014e2d T is_x2apic_supported
ffff800000014e72 T is_avx_supported
ffff800000014eb7 T rdmsr
ffff800000014ee1 T wrmsr_func
ffff800000014f10 T rdtsc
ffff800000014f32 T read_gs_u64
ffff800000014f64 T gs_u64_write
ffff800000014f8d T tran_get_x2apic_id
ffff800000014ffa T tran_get_processor_id
ffff800000015043 W _Z5cpuidPjS_S_S_
ffff80000001509c t _ZN12_GLOBAL__N_1L11redraw_lineEPNS_13line_editor_tE
ffff80000001521e t _ZN12_GLOBAL__N_1L11sync_cursorEPNS_13line_editor_tE
ffff800000015286 t _ZN12_GLOBAL__N_1L14add_to_historyEPKcm
ffff80000001540c t _ZN12_GLOBAL__N_1L16history_navigateEPNS_13line_editor_tEi
ffff8000000155b7 t _ZN12_GLOBAL__N_1L16try_autocompleteEPNS_13line_editor_tE
ffff800000015956 t _ZL8is_digitc
ffff80000001597c t _ZL12is_hex_digitc
ffff8000000159c4 t _ZL24classify_and_parse_tokenR7token_t
ffff800000015d4a T _Z12token_equalsRK7token_tPKc
ffff800000015dcc T _Z14token_to_int64RK7token_tPl
ffff800000015e2b T _Z15token_to_uint64RK7token_tPm
ffff800000015e8d T _Z15command_compareRK15command_entry_tS1_
ffff800000015ec4 T _ZN18kshell_framework_t12default_kurdEv
ffff800000015f08 T _ZN18kshell_framework_t15default_successEv
ffff800000015f1a T _ZN18kshell_framework_t12default_failEv
ffff800000015f3c T _ZN18kshell_framework_t13default_fatalEv
ffff800000015f5d T _Z18kshell_thread_mainPv
ffff800000015fac T _ZN18kshell_framework_t4InitEv
ffff800000016094 T _ZN18kshell_framework_t16command_registerEP15command_entry_t
ffff80000001621c T _ZN18kshell_framework_t18command_unregisterEPKc
ffff800000016352 T _ZN18kshell_framework_t12command_findEPKc
ffff8000000163ce T _ZN18kshell_framework_t15command_executeEPK6line_t
ffff80000001658c T _ZN18kshell_framework_t10parse_lineEPKcP6line_t
ffff80000001682a T _ZN18kshell_framework_t9show_helpEv
ffff800000016bae T _ZN18kshell_framework_t19command_find_prefixEPKcPP15command_entry_ti
ffff800000016d90 T _ZN18kshell_framework_t25confirm_dangerous_commandEPK15command_entry_t
ffff800000016ecc T _ZN18kshell_framework_t23is_text_input_availableEv
ffff800000016f02 T _ZN18kshell_framework_t18read_line_fallbackEPcm
ffff8000000170d2 T _ZN18kshell_framework_t23read_line_from_keyboardEPcm
ffff8000000176f0 T _ZN18kshell_framework_t12print_promptEv
ffff80000001771e T _ZN18kshell_framework_t14run_shell_loopEv
ffff800000017b50 W _ZN9Ktemplats6RBTreeI15command_entry_tXadL_Z15command_compareRKS1_S3_EEEC1Ev
ffff800000017b50 W _ZN9Ktemplats6RBTreeI15command_entry_tXadL_Z15command_compareRKS1_S3_EEEC2Ev
ffff800000017b7c W _ZN9Ktemplats6RBTreeI15command_entry_tXadL_Z15command_compareRKS1_S3_EEE6insertES1_
ffff800000017c1e W _ZN9Ktemplats6RBTreeI15command_entry_tXadL_Z15command_compareRKS1_S3_EEE5eraseES3_
ffff800000017e58 W _ZN9Ktemplats6RBTreeI15command_entry_tXadL_Z15command_compareRKS1_S3_EEE4findES3_
ffff800000017e9e W _ZNK9Ktemplats6RBTreeI15command_entry_tXadL_Z15command_compareRKS1_S3_EEE5emptyEv
ffff800000017eba W _ZN9Ktemplats6RBTreeI15command_entry_tXadL_Z15command_compareRKS1_S3_EEE5beginEv
ffff800000017f04 W _ZN9Ktemplats6RBTreeI15command_entry_tXadL_Z15command_compareRKS1_S3_EEE3endEv
ffff800000017f36 W _ZNK9Ktemplats6RBTreeI15command_entry_tXadL_Z15command_compareRKS1_S3_EEE8iteratorneERKS5_
ffff800000017f5c W _ZN9Ktemplats6RBTreeI15command_entry_tXadL_Z15command_compareRKS1_S3_EEE8iteratorppEv
ffff800000017f8c W _ZNK9Ktemplats6RBTreeI15command_entry_tXadL_Z15command_compareRKS1_S3_EEE8iteratordeEv
ffff800000017fa6 W _ZNK9Ktemplats6RBTreeI15command_entry_tXadL_Z15command_compareRKS1_S3_EEE8iteratorptEv
ffff800000017fc0 W _ZN9Ktemplats6RBTreeI15command_entry_tXadL_Z15command_compareRKS1_S3_EEE13allocate_nodeES3_
ffff800000018004 W _ZN9Ktemplats6RBTreeI15command_entry_tXadL_Z15command_compareRKS1_S3_EEE10bst_insertES3_RPNS4_4NodeES6_
ffff8000000180fe W _ZZN9Ktemplats6RBTreeI15command_entry_tXadL_Z15command_compareRKS1_S3_EEE9color_fixEPNS4_4NodeEENKUlvE_clEv
ffff80000001817a W _ZN9Ktemplats6RBTreeI15command_entry_tXadL_Z15command_compareRKS1_S3_EEE9color_fixEPNS4_4NodeE
ffff800000018402 W _ZNK9Ktemplats6RBTreeI15command_entry_tXadL_Z15command_compareRKS1_S3_EEE9find_nodeES3_
ffff80000001847c W _ZN9Ktemplats6RBTreeI15command_entry_tXadL_Z15command_compareRKS1_S3_EEE10transplantEPNS4_4NodeES6_
ffff8000000184f3 W _ZN9Ktemplats6RBTreeI15command_entry_tXadL_Z15command_compareRKS1_S3_EEE11subtree_minEPNS4_4NodeE
ffff800000018530 W _ZN9Ktemplats6RBTreeI15command_entry_tXadL_Z15command_compareRKS1_S3_EEE15deallocate_nodeEPNS4_4NodeE
ffff800000018560 W _ZZN9Ktemplats6RBTreeI15command_entry_tXadL_Z15command_compareRKS1_S3_EEE11erase_fixupEPNS4_4NodeES6_ENKUlS6_E_clES6_
ffff800000018592 W _ZZN9Ktemplats6RBTreeI15command_entry_tXadL_Z15command_compareRKS1_S3_EEE11erase_fixupEPNS4_4NodeES6_ENKUlS6_E0_clES6_
ffff8000000185c4 W _ZN9Ktemplats6RBTreeI15command_entry_tXadL_Z15command_compareRKS1_S3_EEE11erase_fixupEPNS4_4NodeES6_
ffff800000018b18 W _ZN9Ktemplats6RBTreeI15command_entry_tXadL_Z15command_compareRKS1_S3_EEE8iteratorC1EPNS4_4NodeEPKS4_
ffff800000018b18 W _ZN9Ktemplats6RBTreeI15command_entry_tXadL_Z15command_compareRKS1_S3_EEE8iteratorC2EPNS4_4NodeEPKS4_
ffff800000018b46 W _ZN9Ktemplats6RBTreeI15command_entry_tXadL_Z15command_compareRKS1_S3_EEE9successorEPNS4_4NodeE
ffff800000018bca W _ZN9Ktemplats6RBTreeI15command_entry_tXadL_Z15command_compareRKS1_S3_EEE4NodeC1ES3_
ffff800000018bca W _ZN9Ktemplats6RBTreeI15command_entry_tXadL_Z15command_compareRKS1_S3_EEE4NodeC2ES3_
ffff800000018c2f W _ZN9Ktemplats6RBTreeI15command_entry_tXadL_Z15command_compareRKS1_S3_EEE12rotate_rightEPNS4_4NodeE
ffff800000018ca8 W _ZN9Ktemplats6RBTreeI15command_entry_tXadL_Z15command_compareRKS1_S3_EEE11rotate_leftEPNS4_4NodeE
ffff800000018d22 W _ZN9Ktemplats6RBTreeI15command_entry_tXadL_Z15command_compareRKS1_S3_EEE11parent_linkEPNS4_4NodeE
ffff800000018d74 t _ZL20persist_elf_segmentsv
ffff800000018f59 T _Z25pesisitent_properties_setv
ffff8000000190f7 T _Z19fpa_properties_dealv
ffff800000019290 T _Z18KImage_map_rebuildv
ffff8000000198af t _ZL14tlb_full_flushv
ffff8000000198c8 t _ZZ28kimg_affiliate_property_map1vENKUlmmPKcE_clEmmS0_
ffff800000019a9c T _Z28kimg_affiliate_property_map1v
ffff80000001a1ea t _ZZ24properties_modify_stage1vENKUlP11vm_intervalmmPKcE_clES0_mmS2_
ffff80000001a40e T _Z24properties_modify_stage1v
ffff80000001a6e5 T _Z8mem_initv
ffff80000001af2c W _ZNK11vm_interval17is_kernel_addressEv
ffff80000001afb8 W _ZN12AddressSpace22get_root_table_phybaseEv
ffff80000001afce T _ZNK28BuddyControlBlock_foundation9node_readEm
ffff80000001b018 T _ZN28BuddyControlBlock_foundation10node_writeEmh
ffff80000001b09c T _ZNK28BuddyControlBlock_foundation9leaf_readEm
ffff80000001b0fe T _ZN28BuddyControlBlock_foundation10leaf_writeEmb
ffff80000001b1a8 T _ZNK28BuddyControlBlock_foundation14heap_idx_orderEm
ffff80000001b1da T _ZNK28BuddyControlBlock_foundation19order_offset_to_idxEhm
ffff80000001b216 T _ZNK28BuddyControlBlock_foundation19idx_to_order_offsetEmRhRm
ffff80000001b278 T _ZNK28BuddyControlBlock_foundation7is_freeEhm
ffff80000001b2f0 T _ZNK28BuddyControlBlock_foundation16validate_subtreeEmhPm
ffff80000001b7ca T _ZN28BuddyControlBlock_foundation16btree_validationEv
ffff80000001b906 t _ZL12default_kurdv
ffff80000001b94a t _ZL15default_successv
ffff80000001b97f t _ZL13default_errorv
ffff80000001b9b4 t _ZL13default_fatalv
ffff80000001b9ea T _ZN17BCB_fnd_DeepFirst4initEmh
ffff80000001bad6 T _ZNK17BCB_fnd_DeepFirst13dfs_find_freeEmh
ffff80000001bc16 T _ZN17BCB_fnd_DeepFirst14find_candidateERhR6KURD_t
ffff80000001bd66 T _ZN17BCB_fnd_DeepFirst14split_internalEmhh
ffff80000001c018 T _ZN17BCB_fnd_DeepFirst5splitEhmh
ffff80000001c14c T _ZN17BCB_fnd_DeepFirst15occupy_internalEmh
ffff80000001c368 T _ZN17BCB_fnd_DeepFirst16order_occupy_tryEhm
ffff80000001c44e T _ZN17BCB_fnd_DeepFirst17coalesce_internalEmhR6KURD_t
ffff80000001c8d6 T _ZN17BCB_fnd_DeepFirst12order_returnEhmR6KURD_t
ffff80000001cb2c W _ZN28BuddyControlBlock_foundationD1Ev
ffff80000001cb2c W _ZN28BuddyControlBlock_foundationD2Ev
ffff80000001cb4c W _ZN28BuddyControlBlock_foundationD0Ev
ffff80000001cb86 W _ZN17BCB_fnd_DeepFirstD1Ev
ffff80000001cb86 W _ZN17BCB_fnd_DeepFirstD2Ev
ffff80000001cbba W _ZN17BCB_fnd_DeepFirstD0Ev
ffff80000001cbf3 t inb
ffff80000001cc0f t outb
ffff80000001cc2b t _ZN12_GLOBAL__N_1L15ring_next_indexEt
ffff80000001cc56 t _ZN12_GLOBAL__N_1L28apply_key_state_to_modifiersEhbt
ffff80000001ce7a t _ZN12_GLOBAL__N_1L13publish_eventEhht
ffff80000001d0c1 t _ZN12_GLOBAL__N_1L19handle_parser_errorEh
ffff80000001d12a t _ZN12_GLOBAL__N_1L18feed_scancode_byteEh
ffff80000001d342 t _ZL24wait_until_in_buff_clearv
ffff80000001d3a1 t _ZL25wait_until_out_buff_readyv
ffff80000001d3f6 T _Z7led_setv
ffff80000001d4ce T i8042_cpp_enter
ffff80000001d507 T i8042_read_event_by_seq
ffff80000001d64e T i8042_get_publish_seq
ffff80000001d672 T i8042_wait_event
ffff80000001d6e3 T _Z22i8042_interrupt_enablev
ffff80000001dac4 t _Z41__static_initialization_and_destruction_0v
ffff80000001db48 t _GLOBAL__sub_I_i8042_event_tail_idx
ffff80000001db5a W _ZN14tid_wait_queue16set_insert_frontEb
ffff80000001db78 W _ZN14tid_wait_queueC1Ev
ffff80000001db78 W _ZN14tid_wait_queueC2Ev
ffff80000001dbba W _ZN15atomic_scalar_tItEC1Ev
ffff80000001dbba W _ZN15atomic_scalar_tItEC2Ev
ffff80000001dbd2 W _ZN15atomic_scalar_tImE6add_kaEm19atomic_memory_order
ffff80000001dbf8 W _ZNK15atomic_scalar_tItE4loadE19atomic_memory_order
ffff80000001dc10 W _ZN15atomic_scalar_tItE5storeEt19atomic_memory_order
ffff80000001dc31 t _ZN12_GLOBAL__N_1L15ring_next_indexEt
ffff80000001dc5c t _ZN12_GLOBAL__N_1L14map_non_letterEhbRc
ffff80000001e11d t _ZN12_GLOBAL__N_1L10map_letterEhbRc
ffff80000001e3ba t _ZN12_GLOBAL__N_1L10map_keypadEhbRc
ffff80000001e586 t _ZN12_GLOBAL__N_1L24translate_keyboard_eventEmRK19ps_2_keyboard_eventR14kbd_char_event
ffff80000001e746 t _ZN12_GLOBAL__N_1L18publish_char_eventERK14kbd_char_event
ffff80000001e8f5 t _ZN12_GLOBAL__N_1L23init_char_readonly_viewEv
ffff80000001ea67 t _ZN12_GLOBAL__N_1L26i8042_char_subscriber_mainEPv
ffff80000001eb64 T i8042_char_read_event_by_seq
ffff80000001ecab T i8042_char_get_publish_seq
ffff80000001eccf T i8042_char_wait_event
ffff80000001ed40 T i8042_char_subscriber_init
ffff80000001eebf T i8042_blockable_keyboard_listening
ffff80000001f07e t _Z41__static_initialization_and_destruction_0v
ffff80000001f0e9 t _GLOBAL__sub_I_i8042_char_event_tail_idx
ffff80000001f0fc t inb
ffff80000001f118 t outb
ffff80000001f134 t _ZL12make_successv
ffff80000001f178 t _ZL9make_failv
ffff80000001f1bc t _ZL8token_eqRK7token_tPKc
ffff80000001f224 t _ZL22print_modifier_summaryh
ffff80000001f4f5 t _ZL10action_strh
ffff80000001f543 t _ZL9get_eventmP19ps_2_keyboard_event
ffff80000001f5b3 t _ZL23maybe_record_mod_changehbhhm
ffff80000001f6c1 t _ZL11record_dropmct
ffff80000001f794 t _ZL27scan_event_ring_for_historyPh
ffff80000001f99a t _ZL24scan_char_ring_for_dropsv
ffff80000001fa72 T _Z13cmd_kbdstatusPK6line_t
ffff8000000204c0 T _Z13cmd_kbdeventsPK6line_t
ffff800000021080 T _Z12cmd_kbdcharsPK6line_t
ffff800000021b30 T _Z16cmd_kbdmodifiersPK6line_t
ffff8000000222f1 T _Z7cmd_kdbPK6line_t
ffff800000022504 t _ZZ18cmd_kbdsubscribersPK6line_tENKUlPKcP14tid_wait_queueE_clES3_S5_
ffff80000002278b T _Z18cmd_kbdsubscribersPK6line_t
ffff800000022944 T _Z14cmd_kbdmonitorPK6line_t
ffff800000023344 T _Z11cmd_kbdtestPK6line_t
ffff800000023c0a T _Z13cmd_i8042regsPK6line_t
ffff8000000244c8 W _ZN9Ktemplats11list_doublyImE5beginEv
ffff8000000244f8 W _ZN9Ktemplats11list_doublyImE3endEv
ffff800000024522 W _ZNK9Ktemplats11list_doublyImE8iteratorneERKS2_
ffff800000024548 W _ZN9Ktemplats11list_doublyImE8iteratorppEv
ffff800000024578 W _ZN9Ktemplats11list_doublyImE8iteratordeEv
ffff800000024592 W _ZN9Ktemplats11list_doublyImE8iteratorC1EPNS1_4nodeE
ffff800000024592 W _ZN9Ktemplats11list_doublyImE8iteratorC2EPNS1_4nodeE
ffff8000000245b0 t _ZN12_GLOBAL__N_1L9ring_nextEt
ffff8000000245db t _ZN12_GLOBAL__N_1L14map_non_letterEhbRc
ffff800000024a39 t _ZN12_GLOBAL__N_1L10map_letterEhbRc
ffff800000024cd6 t _ZN12_GLOBAL__N_1L10map_keypadEhbRc
ffff800000024ea2 t _ZN12_GLOBAL__N_1L14is_control_keyEhbRt
ffff800000025057 t _ZN12_GLOBAL__N_1L16is_dual_type_keyEhb
ffff8000000250aa t _ZN12_GLOBAL__N_1L19produce_text_eventsEmRK19ps_2_keyboard_eventRNS_17translated_eventsE
ffff800000025367 t _ZN12_GLOBAL__N_1L11publish_oneERK16text_input_event
ffff8000000254fb t _ZN12_GLOBAL__N_1L18init_readonly_viewEv
ffff800000025632 t _ZN12_GLOBAL__N_1L32i8042_text_input_subscriber_mainEPv
ffff800000025765 T text_input_read_event_by_seq
ffff8000000258ac T text_input_get_publish_seq
ffff8000000258d0 T text_input_wait_event
ffff800000025941 T text_input_batch_read
ffff800000025ab5 T text_input_subscriber_init
ffff800000025c34 t _Z41__static_initialization_and_destruction_0v
ffff800000025c9f t _GLOBAL__sub_I_text_input_event_tail_idx
ffff800000025cb2 T _Z18pcie_an_ecam_printmj
ffff800000027d2e T _Z16pcie_text_praserP11ecam_node_t
ffff800000027d82 T _Z13pcie_bus_scanP11ecam_node_thj
ffff80000002847f T _Z16pcie_text_praserv
ffff8000000286c8 T _ZN17ecams_container_tC1EP10MCFG_Table
ffff8000000286c8 T _ZN17ecams_container_tC2EP10MCFG_Table
ffff8000000288dc W _ZN9Ktemplats11list_doublyI11ecam_node_tEC1Ev
ffff8000000288dc W _ZN9Ktemplats11list_doublyI11ecam_node_tEC2Ev
ffff80000002890e W _ZN9Ktemplats11list_doublyI11ecam_node_tE5beginEv
ffff80000002893e W _ZN9Ktemplats11list_doublyI11ecam_node_tE3endEv
ffff800000028968 W _ZNK9Ktemplats11list_doublyI11ecam_node_tE8iteratorneERKS3_
ffff80000002898e W _ZN9Ktemplats11list_doublyI11ecam_node_tE8iteratorppEv
ffff8000000289be W _ZN9Ktemplats11list_doublyI11ecam_node_tE8iteratordeEv
ffff8000000289d8 W _ZN9Ktemplats11list_doublyI11ecam_node_tE9push_backERKS1_
ffff800000028a74 W _ZN9Ktemplats11list_doublyI11ecam_node_tE8iteratorC1EPNS2_4nodeE
ffff800000028a74 W _ZN9Ktemplats11list_doublyI11ecam_node_tE8iteratorC2EPNS2_4nodeE
ffff800000028a92 W _ZN9Ktemplats11list_doublyI11ecam_node_tE10alloc_nodeERKS1_
ffff800000028b67 t _ZL7make_okv
ffff800000028bab t _ZL9ecam_addrP11ecam_node_thhh
ffff800000028c11 t _ZL10cfg_read16PVvh
ffff800000028c31 t _ZL10cfg_read32PVvh
ffff800000028c50 t _ZL9parse_decPKcm
ffff800000028cd7 t _ZL9parse_numPKcmPm
ffff800000028e3e t _ZL9parse_bdfRK7token_tPtPhS3_S3_
ffff800000029406 t _ZL12find_segmentt
ffff8000000294d2 t _ZL10class_namehh
ffff8000000297b8 T _Z13cmd_pcie_segsPK6line_t
ffff800000029a2a t _ZL14bdfs_tree_scanP11ecam_node_ttjjtbPi
ffff80000002a0b5 T _Z13cmd_pcie_BDFsPK6line_t
ffff80000002aa69 T _Z12cmd_pcie_BDFPK6line_t
ffff80000002c762 T _Z18flush_cache_serialm
ffff80000002c775 T _Z21flush_cache_serial_nom
ffff80000002c789 T iommu_fault_cpp_enter
ffff80000002c7dc T _ZN4dmar6driver13device_registE13pcie_location
ffff80000002ca5a T _ZN4dmar4InitEPNS_4acpi9DMAR_headE
ffff80000002cfb0 T _ZN4dmar6driverC1EPNS_4acpi10DRHD_tableE
ffff80000002cfb0 T _ZN4dmar6driverC2EPNS_4acpi10DRHD_tableE
ffff80000002dafc T _ZN4dmar6driver21regist_interrupt_simpENS_20regist_remmap_structERt
ffff80000002dd3d T _ZN4dmar21regist_interrupt_simpENS_20regist_remmap_structERtRj
ffff80000002df0c T _ZN4dmar6driver10err_handleEv
ffff80000002e1d6 T _ZN4dmar6driver25set_command_enable_iremapEv
ffff80000002e232 T _ZN4dmar6driver48set_command_disable_compatiable_format_interruptEv
ffff80000002e288 T _ZN4dmar6driver26set_command_disable_iremapEv
ffff80000002e2de T _ZN4dmar6driver28set_command_set_iremap_tbptrEv
ffff80000002e33a T _ZN4dmar6driver26command_disable_traslationEv
ffff80000002e38a T _ZN4dmar6driver25command_enable_traslationEv
ffff80000002e3da T _ZN4dmar6driver25command_enable_root_tableEv
ffff80000002e430 W _ZNK4dmar6driver15default_successMUlvE_clEv
ffff80000002e494 T _ZN11HPET_driver12default_kurdEv
ffff80000002e4dc T _ZN11HPET_driver15default_successEv
ffff80000002e51c T _ZN11HPET_driver4InitEP11vm_interval
ffff80000002e99e T _ZN11HPET_driver20get_time_stamp_in_usEv
ffff80000002ea3e T _ZN11HPET_driver9dump_regsEv
ffff80000002ecbf t inb
ffff80000002ecdb t outb
ffff80000002ecf7 t _ZN12_GLOBAL__N_1L15ring_next_indexEj
ffff80000002ed0f t _ZN12_GLOBAL__N_1L26uart_runtime_submit_stringEPKcmb
ffff80000002ef23 t _ZN12_GLOBAL__N_1L23uart_runtime_submit_numEm12num_format_t19numer_system_selectb
ffff80000002f136 t _ZN12_GLOBAL__N_1L24uart_runtime_submit_charEcb
ffff80000002f32c T serial_init_stage1
ffff80000002f51c T serial_init_stage2
ffff80000002f674 T _Z24serial_is_transmit_emptyv
ffff80000002f691 T serial_putc
ffff80000002f6d0 T serial_puts
ffff80000002f72e T _Z14uart_print_numm12num_format_t19numer_system_select
ffff80000002f7a0 T _Z17uart_runtime_putsPKcm
ffff80000002f803 T _Z17uart_runtime_putcc
ffff80000002f842 T _Z18uart_runtime_p_numm12num_format_t19numer_system_select
ffff80000002f89c T _Z32uart_runtime_service_thread_mainPv
ffff80000002fb32 t _Z41__static_initialization_and_destruction_0v
ffff80000002fb6b t _GLOBAL__sub_I_serial_init_stage1
ffff80000002fb7e T _ZN13ioapic_driverC1EPN26APICtb_analyzed_structures17io_apic_structureE
ffff80000002fb7e T _ZN13ioapic_driverC2EPN26APICtb_analyzed_structures17io_apic_structureE
ffff80000002ff40 T _ZN13ioapic_driver11get_rte_rawEh
ffff800000030048 T _ZN13ioapic_driver11set_rte_rawEhm
ffff800000030154 T _ZN13ioapic_driver10irq_registEhtb
ffff80000003016e T _ZN13ioapic_driver12irq_unregistEh
ffff8000000301e4 T _ZN13ioapic_driver10irq_registEhNS_12compact_flagE
ffff80000003029e T _ZN6x2apic13x2apic_driver16raw_config_timerENS_15timer_lvt_entryE
ffff8000000302c6 T _ZN6x2apic13x2apic_driver27raw_config_timer_init_countEj
ffff8000000302ec T _ZN6x2apic13x2apic_driver24raw_config_timer_dividerENS_12devide_reg_tE
ffff800000030314 T _ZN6x2apic13x2apic_driver23get_timer_current_countEv
ffff80000003032c T _ZN6x2apic13x2apic_driver12raw_send_ipiENS_12x2apic_icr_tE
ffff800000030354 T _ZN6x2apic13x2apic_driver20raw_error_lvt_configENS_15lvt_error_entryE
ffff80000003037c T _ZN6x2apic13x2apic_driver20raw_lint0_lvt_configENS_14lvt_lint_entryE
ffff8000000303a4 T _ZN6x2apic13x2apic_driver20raw_lint1_lvt_configENS_14lvt_lint_entryE
ffff8000000303cc T _ZN6x2apic13x2apic_driver19raw_perf_lvt_configENS_17lvt_general_entryE
ffff8000000303f4 T _ZN6x2apic13x2apic_driver22raw_thermal_lvt_configENS_17lvt_general_entryE
ffff80000003041c T _ZN6x2apic13x2apic_driver19raw_cmci_lvt_configENS_17lvt_general_entryE
ffff800000030444 T _ZN6x2apic13x2apic_driver9write_eoiEv
ffff800000030461 T lapic_timer_stub_enter
ffff800000030474 T _ZN6x2apic20lapic_timer_one_shot16processor_registEv
ffff800000030672 T _ZN6x2apic22lapic_timer_tsc_ddline16processor_registEv
ffff800000030860 T _ZN6x2apic19lapic_error_handler7handlerEP17interrupt_token_t
ffff800000030ac8 T _ZN6x2apic19lapic_error_handler16processor_registEv
ffff800000030c76 T _ZN6x2apic20lapic_timer_one_shot18set_clock_by_stampEm
ffff800000030cb4 T _ZN6x2apic20lapic_timer_one_shot19set_clock_by_offsetEm
ffff800000030d44 T _ZN6x2apic20lapic_timer_one_shot17get_current_clockEv
ffff800000030d56 T _ZN6x2apic20lapic_timer_one_shot12cancel_clockEv
ffff800000030d6e T _ZN6x2apic20lapic_timer_one_shot14is_alarm_validEv
ffff800000030da6 T _ZN6x2apic22lapic_timer_tsc_ddline19set_clock_by_offsetEm
ffff800000030e40 T _ZN6x2apic22lapic_timer_tsc_ddline18set_clock_by_stampEm
ffff800000030e7e T _ZN6x2apic22lapic_timer_tsc_ddline12cancel_clockEv
ffff800000030e9c T _ZN6x2apic22lapic_timer_tsc_ddline14is_alarm_validEv
ffff800000030eb9 t _ZL13tsc_panic_hltv
ffff8000000310dc t _ZL5wrmsrjm
ffff80000003110b t _ZL25kvm_calc_tsc_fs_per_cyclev
ffff8000000312db T _Z10tsc_registv
ffff800000031a7e T _Z20apply_umwait_controlv
ffff800000031ab8 W _ZN9cpuid_tmp6updateEjj
ffff800000031b0b t _ZL11rtc_is_leapt
ffff800000031b77 t _ZL17rtc_days_in_monthth
ffff800000031bea t inb
ffff800000031c06 t outb
ffff800000031c22 t _ZL7cmos_inh
ffff800000031c58 t _ZL8uip_busyv
ffff800000031c72 t _ZL7bcd2binh
ffff800000031c9d T _Z13rtc_read_timeP8macro_tm
ffff800000031f9c t _ZL16days_since_epochthh
ffff800000032047 T _Z21macro_tm_to_epoch_secPK8macro_tm
ffff8000000320d7 T _Z21epoch_sec_to_macro_tmmtP8macro_tm
ffff8000000322f6 t _ZN12_GLOBAL__N_1L13is_4k_alignedEm
ffff800000032314 T _ZN7GfxPrim12default_kurdEv
ffff800000032358 T _ZN7GfxPrim15default_successEv
ffff80000003238e T _ZN7GfxPrim12default_failEv
ffff8000000323c4 T _ZN7GfxPrim13default_fatalEv
ffff8000000323fa T _ZN7GfxPrim4InitEP26GlobalBasicGraphicInfoType11vm_interval
ffff8000000324d6 T _ZN7GfxPrim14PutPixelUnsafeE5Vec2ij
ffff80000003258a T _ZN7GfxPrim8PutPixelE5Vec2ij
ffff80000003261c T _ZN7GfxPrim9DrawHLineE5Vec2iij
ffff8000000327d4 T _ZN7GfxPrim9DrawVLineE5Vec2iij
ffff800000032958 T _ZN7GfxPrim8FillRectE5Vec2iS0_j
ffff800000032b52 T _ZN7GfxPrim6MoveUpE5Vec2iS0_ij
ffff800000032eac T _ZN7GfxPrim4BlitE5Vec2iPK8GfxImage
ffff800000033168 T _ZN7GfxPrim17enable_ram_bufferEv
ffff800000033206 T _ZN7GfxPrim5FlushEv
ffff80000003328c T _ZN7GfxPrim9FlushRectE5Vec2iS0_
ffff8000000334c6 T _ZN7GfxPrim5ReadyEv
ffff8000000334da T _ZN7GfxPrim7GetInfoEv
ffff800000033528 T _ZN7GfxPrim10BackBufferEv
ffff80000003353c t inb
ffff800000033558 t inw
ffff800000033576 t inl
ffff800000033591 t outb
ffff8000000335ad t outw
ffff8000000335ca t outl
ffff8000000335e4 t _ZL7make_okv
ffff800000033628 t _ZL6tok_eqRK7token_tPKc
ffff800000033694 T _Z9cmd_cpuidPK6line_t
ffff800000033d47 T _Z11cmd_cpuinfoPK6line_t
ffff800000034530 T _Z9cmd_rdmsrPK6line_t
ffff800000034992 T _Z9cmd_wrmsrPK6line_t
ffff800000034bbf T _Z9cmd_rdtscPK6line_t
ffff800000034e17 T _Z7cmd_inbPK6line_t
ffff800000035181 T _Z7cmd_inwPK6line_t
ffff800000035366 T _Z7cmd_inlPK6line_t
ffff800000035549 T _Z8cmd_outbPK6line_t
ffff800000035789 T _Z8cmd_outwPK6line_t
ffff8000000359c9 T _Z8cmd_outlPK6line_t
ffff800000035c0a T _Z8cmd_apicPK6line_t
ffff8000000361e1 t _ZL8read_cr0v
ffff8000000361f6 t _ZL8read_cr2v
ffff80000003620b t _ZL8read_cr3v
ffff800000036220 t _ZL8read_cr4v
ffff800000036235 T _Z6cmd_crPK6line_t
ffff800000036cfc T _Z8cmd_hpetPK6line_t
ffff800000036e90 T iommu_fault_deal
ffff800000036edc T i8042_code_deal
ffff800000036f28 T x2apic_core_init
ffff800000037011 T ap_bootstrap_init
ffff8000000370c0 t _ZL15walk_processorsPFvRKN26APICtb_analyzed_structures26processor_x64_lapic_structEPvES3_
ffff800000037178 t _ZZ18ap_init_one_by_oneENKUlRKN26APICtb_analyzed_structures26processor_x64_lapic_structEPvE_clES2_S3_
ffff8000000371b9 t _ZZ18ap_init_one_by_oneENUlRKN26APICtb_analyzed_structures26processor_x64_lapic_structEPvE_4_FUNES2_S3_
ffff8000000371e8 t _ZZ18ap_init_one_by_oneENKUlRKN26APICtb_analyzed_structures26processor_x64_lapic_structEPvE_cvPFvS2_S3_EEv
ffff800000037200 t _ZZ18ap_init_one_by_oneENKUljE_clEj
ffff80000003722e t _ZZ18ap_init_one_by_oneENUljE_4_FUNEj
ffff800000037252 t _ZZ18ap_init_one_by_oneENKUljE_cvPFZ18ap_init_one_by_oneE24ap_observe_once_result_tjEEv
ffff80000003726a t _ZZ18ap_init_one_by_oneENKUljE0_clEj
ffff8000000372b7 t _ZZ18ap_init_one_by_oneENUljE0_4_FUNEj
ffff8000000372da t _ZZ18ap_init_one_by_oneENKUljE0_cvPFZ18ap_init_one_by_oneE24ap_observe_once_result_tjEEv
ffff8000000372f2 t _ZZ18ap_init_one_by_oneENKUljE1_clEj
ffff80000003733f t _ZZ18ap_init_one_by_oneENUljE1_4_FUNEj
ffff800000037362 t _ZZ18ap_init_one_by_oneENKUljE1_cvPFZ18ap_init_one_by_oneE24ap_observe_once_result_tjEEv
ffff80000003737a t _ZZ18ap_init_one_by_oneENKUljE2_clEj
ffff8000000373c7 t _ZZ18ap_init_one_by_oneENUljE2_4_FUNEj
ffff8000000373ea t _ZZ18ap_init_one_by_oneENKUljE2_cvPFZ18ap_init_one_by_oneE24ap_observe_once_result_tjEEv
ffff800000037402 t _ZZ18ap_init_one_by_oneENKUlmPFZ18ap_init_one_by_oneE24ap_observe_once_result_tjEPFvvEjE_clEmS1_S3_j
ffff800000037484 t _ZZ18ap_init_one_by_oneENKUlvE2_clEv
ffff80000003754a t _ZZ18ap_init_one_by_oneENUlvE2_4_FUNEv
ffff800000037562 t _ZZ18ap_init_one_by_oneENKUlvE2_cvPFvvEEv
ffff80000003757a t _ZZ18ap_init_one_by_oneENKUlvE3_clEv
ffff800000038454 t _ZZ18ap_init_one_by_oneENUlvE3_4_FUNEv
ffff80000003846c t _ZZ18ap_init_one_by_oneENKUlvE3_cvPFvvEEv
ffff800000038484 T ap_init_one_by_one
ffff80000003931e W _ZN9Ktemplats11list_doublyIN26APICtb_analyzed_structures26processor_x64_lapic_structEE5beginEv
ffff80000003934e W _ZN9Ktemplats11list_doublyIN26APICtb_analyzed_structures26processor_x64_lapic_structEE3endEv
ffff800000039378 W _ZNK9Ktemplats11list_doublyIN26APICtb_analyzed_structures26processor_x64_lapic_structEE8iteratorneERKS4_
ffff80000003939e W _ZN9Ktemplats11list_doublyIN26APICtb_analyzed_structures26processor_x64_lapic_structEE8iteratorppEv
ffff8000000393ce W _ZN9Ktemplats11list_doublyIN26APICtb_analyzed_structures26processor_x64_lapic_structEE8iteratordeEv
ffff8000000393e8 W _ZN9Ktemplats11list_doublyIN26APICtb_analyzed_structures26processor_x64_lapic_structEE8iteratorC1EPNS3_4nodeE
ffff8000000393e8 W _ZN9Ktemplats11list_doublyIN26APICtb_analyzed_structures26processor_x64_lapic_structEE8iteratorC2EPNS3_4nodeE
ffff800000039406 T _Z25template_idt_apply_regionhh
ffff800000039640 T runtime_processor_regist
ffff800000039658 t runtime_processor_regist.load_cs_finish
ffff800000039670 T cmpxchg16b
ffff800000039693 t cmpxchg16b.success
ffff8000000396a0 T fast_get_processor_id
ffff8000000396ad T fast_get_x2apic_id
ffff8000000396bb T gs_complex_load_gdt_tss
ffff800000039719 T _Z20double_fault_handlerP20x64_standard_contextm
ffff8000000397cf T _Z18page_fault_handlerP20x64_standard_contextmm
ffff8000000398c1 T _Z26general_protection_handlerP20x64_standard_contextm
ffff8000000399ac T _Z19invalid_tss_handlerP20x64_standard_contextm
ffff800000039ae8 T div_by_zero_cpp_enter
ffff800000039bcc T debug_cpp_enter
ffff800000039bdb T nmi_cpp_enter
ffff800000039c1f T breakpoint_cpp_enter
ffff800000039c2e T overflow_cpp_enter
ffff800000039d12 T invalid_opcode_cpp_enter
ffff800000039df6 T double_fault_cpp_enter
ffff800000039e81 T invalid_tss_cpp_enter
ffff800000039eda T general_protection_cpp_enter
ffff800000039f33 T page_fault_cpp_enter
ffff800000039f97 T machine_check_cpp_enter
ffff80000003a07b T simd_floating_point_cpp_enter
ffff80000003a15f T virtualization_cpp_enter
ffff80000003a16e T _Z28Control_Protection_cpp_enterP27x64_errcode_exception_frame
ffff80000003a17d T _Z18user_abi_cpp_enterP20x64_standard_context
ffff80000003a18c T _Z13ipi_cpp_enterP20x64_standard_context
ffff80000003a1b6 T _Z19asm_panic_cpp_enterP20x64_standard_context
ffff80000003a26a T _Z28suprious_interrupt_cpp_enterP20x64_standard_context
ffff80000003a2d3 t _ZL22fred_exceptions_routerP16x64_fred_context
ffff80000003a566 T _Z17fred_common_enterP16x64_fred_context
ffff80000003a6bf T fred_user_cpp_enter
ffff80000003a6e1 T fred_supervisor_cpp_entry
ffff80000003a703 T _Z10filt_frameP20x64_standard_contextP27x64_errcode_exception_frame
ffff80000003a86f T _Z10filt_frameP20x64_standard_contextP16x64_fred_context
ffff80000003a9e1 T _Z11panic_frameP20x64_standard_contextPN13panic_context11x64_contextE
ffff80000003ac9c t _ZL18demux_default_kurdv
ffff80000003ace0 t _ZL21demux_default_successv
ffff80000003ad15 t _ZL19demux_default_errorv
ffff80000003ad4d t _ZL19demux_default_fatalv
ffff80000003ad82 T _Z9cpu_frozeP20x64_standard_context
ffff80000003ad9b t _ZL17fred_init_stklvlsv
ffff80000003adcc T _ZN9vec_demux10early_initEv
ffff80000003b046 T vec_demux_init
ffff80000003b059 T fred_enable
ffff80000003b170 T _ZN9vec_demux9real_initEv
ffff80000003b27c T _ZN9vec_demux9alloc_vecEP17interrupt_token_tjR6KURD_t
ffff80000003b546 T _ZN9vec_demux8free_vecEhj
ffff80000003b6b8 T _ZN9vec_demux7get_vecEhjR6KURD_t
ffff80000003b822 T _ZN9vec_demux19alloc_vec_by_apicidEP17interrupt_token_tjR6KURD_t
ffff80000003bacc T out_interrupt_vec_alloc
ffff80000003bb0c T out_interrupt_vec_alloc_by_apicid
ffff80000003bb4c T out_interrupt_vec_free
ffff80000003bb74 T out_interrupt_vec_get
ffff80000003bbb3 t _ZL17frame_to_standardP20x64_standard_contextPK19x64_vec_demux_frame
ffff80000003bc8f T idt_vec_demux_entry
ffff80000003c10b T _Z26fred_vec_demux_hw_dispatchP20x64_standard_contexth
ffff80000003c440 T _Z28fred_vec_demux_soft_dispatchP20x64_standard_contexth
ffff80000003c4ea t _ZL14resolve_targetjb
ffff80000003c565 t _ZL15target_x2apicidP12gs_complex_t
ffff80000003c57f t _ZL12make_ipi_icrhj
ffff80000003c5c7 t _ZL11ipi_wait_loPVom
ffff80000003c6e1 T ret_ipi_send
ffff80000003c962 T fly_ipi_send
ffff80000003cb5e T broadcast_halt
ffff80000003cbad T halt_on
ffff80000003cc34 t _ZL6cmd_okh
ffff80000003cc7d t _ZL14print_sym_namem
ffff80000003cd04 T _Z14cmd_s_int_specPK6line_t
ffff80000003d085 T _Z16cmd_out_int_specPK6line_t
ffff80000003e000 T div_by_zero_bare_enter
ffff80000003e023 t ..@2.skip_gs
ffff80000003e04b t ..@2.skip_gs_back
ffff80000003e064 T breakpoint_bare_enter
ffff80000003e087 t ..@5.skip_gs
ffff80000003e0af t ..@5.skip_gs_back
ffff80000003e0c8 T nmi_bare_enter
ffff80000003e0eb t ..@8.skip_gs
ffff80000003e113 t ..@8.skip_gs_back
ffff80000003e12c T overflow_bare_enter
ffff80000003e14f t ..@11.skip_gs
ffff80000003e177 t ..@11.skip_gs_back
ffff80000003e190 T invalid_opcode_bare_enter
ffff80000003e1b3 t ..@14.skip_gs
ffff80000003e1db t ..@14.skip_gs_back
ffff80000003e1f4 T general_protection_bare_enter
ffff80000003e21a t ..@17.skip_gs
ffff80000003e245 t ..@17.skip_gs_back
ffff80000003e262 T double_fault_bare_enter
ffff80000003e288 t ..@20.skip_gs
ffff80000003e2b3 t ..@20.skip_gs_back
ffff80000003e2d0 T page_fault_bare_enter
ffff80000003e2f6 t ..@23.skip_gs
ffff80000003e321 t ..@23.skip_gs_back
ffff80000003e33e T machine_check_bare_enter
ffff80000003e361 t ..@26.skip_gs
ffff80000003e389 t ..@26.skip_gs_back
ffff80000003e3a2 T invalid_tss_bare_enter
ffff80000003e3c8 t ..@29.skip_gs
ffff80000003e3f3 t ..@29.skip_gs_back
ffff80000003e410 T simd_floating_point_bare_enter
ffff80000003e433 t ..@32.skip_gs
ffff80000003e45b t ..@32.skip_gs_back
ffff80000003e474 T virtualization_bare_enter
ffff80000003e49a t ..@35.skip_gs
ffff80000003e4c5 t ..@35.skip_gs_back
ffff80000003f000 T fred_base
ffff80000003f100 T fred_supervisor_entry
ffff80000003f150 T vec_demux_table
ffff80000003ff50 t vec_demux_common
ffff80000003ff76 t vec_demux_common.skip_gs
ffff80000003ffa1 t vec_demux_common.skip_gs_back
ffff80000003ffbe T cacheline_wait
ffff80000003ffda T _ZN9acpimgr_t4InitEm
ffff80000004062e T _ZN9acpimgr_t14get_acpi_tableEPc
ffff8000000408c9 T _ZN26APICtb_analyzed_structures5xapicEPN9ACPI_MADT16Local_APIC_entryE
ffff800000040949 T _ZN26APICtb_analyzed_structures5xapicEPN9ACPI_MADT32processor_local_x2apic_structureE
ffff8000000409c1 T _ZN26APICtb_analyzed_structures6ioapicEPN9ACPI_MADT17io_apic_structureE
ffff8000000409f9 T _ZN26APICtb_analyzed_structures22isa_interrupt_ovverideEPN9ACPI_MADT25interrupt_source_overrideE
ffff800000040a58 T _ZN26APICtb_analyzed_structures11nmi_soureceEPN9ACPI_MADT20nmi_source_structureE
ffff800000040a98 T _ZN26APICtb_analyzed_structures17all_processor_nmiEPN9ACPI_MADT24local_apic_nmi_structureE
ffff800000040b0b T _ZN26APICtb_analyzed_structures17all_processor_nmiEPN9ACPI_MADT26local_x2apic_nmi_structureE
ffff800000040b7e T _ZN19APIC_table_analyzerC1EP10MADT_Table
ffff800000040b7e T _ZN19APIC_table_analyzerC2EP10MADT_Table
ffff800000041046 T _ZN19APIC_table_analyzerD1Ev
ffff800000041046 T _ZN19APIC_table_analyzerD2Ev
ffff80000004114a W _ZN9Ktemplats11list_doublyIN26APICtb_analyzed_structures26processor_x64_lapic_structEEC1Ev
ffff80000004114a W _ZN9Ktemplats11list_doublyIN26APICtb_analyzed_structures26processor_x64_lapic_structEEC2Ev
ffff80000004117c W _ZN9Ktemplats11list_doublyIN26APICtb_analyzed_structures17io_apic_structureEEC1Ev
ffff80000004117c W _ZN9Ktemplats11list_doublyIN26APICtb_analyzed_structures17io_apic_structureEEC2Ev
ffff8000000411ae W _ZN9Ktemplats11list_doublyIN26APICtb_analyzed_structures29ISA_interrupt_ovveride_structEEC1Ev
ffff8000000411ae W _ZN9Ktemplats11list_doublyIN26APICtb_analyzed_structures29ISA_interrupt_ovveride_structEEC2Ev
ffff8000000411e0 W _ZN9Ktemplats11list_doublyIN26APICtb_analyzed_structures18nmi_sourece_structEEC1Ev
ffff8000000411e0 W _ZN9Ktemplats11list_doublyIN26APICtb_analyzed_structures18nmi_sourece_structEEC2Ev
ffff800000041212 W _ZN9Ktemplats11list_doublyIN26APICtb_analyzed_structures24all_processor_nmi_structEEC1Ev
ffff800000041212 W _ZN9Ktemplats11list_doublyIN26APICtb_analyzed_structures24all_processor_nmi_structEEC2Ev
ffff800000041244 W _ZN9Ktemplats11list_doublyIN26APICtb_analyzed_structures26processor_x64_lapic_structEE9push_backERKS2_
ffff8000000412e0 W _ZN9Ktemplats11list_doublyIN26APICtb_analyzed_structures17io_apic_structureEE9push_backERKS2_
ffff80000004137c W _ZN9Ktemplats11list_doublyIN26APICtb_analyzed_structures29ISA_interrupt_ovveride_structEE9push_backERKS2_
ffff800000041418 W _ZN9Ktemplats11list_doublyIN26APICtb_analyzed_structures18nmi_sourece_structEE9push_backERKS2_
ffff8000000414b4 W _ZN9Ktemplats11list_doublyIN26APICtb_analyzed_structures24all_processor_nmi_structEE9push_backERKS2_
ffff800000041550 W _ZN9Ktemplats11list_doublyIN26APICtb_analyzed_structures26processor_x64_lapic_structEED1Ev
ffff800000041550 W _ZN9Ktemplats11list_doublyIN26APICtb_analyzed_structures26processor_x64_lapic_structEED2Ev
ffff800000041572 W _ZN9Ktemplats11list_doublyIN26APICtb_analyzed_structures17io_apic_structureEED1Ev
ffff800000041572 W _ZN9Ktemplats11list_doublyIN26APICtb_analyzed_structures17io_apic_structureEED2Ev
ffff800000041594 W _ZN9Ktemplats11list_doublyIN26APICtb_analyzed_structures29ISA_interrupt_ovveride_structEED1Ev
ffff800000041594 W _ZN9Ktemplats11list_doublyIN26APICtb_analyzed_structures29ISA_interrupt_ovveride_structEED2Ev
ffff8000000415b6 W _ZN9Ktemplats11list_doublyIN26APICtb_analyzed_structures18nmi_sourece_structEED1Ev
ffff8000000415b6 W _ZN9Ktemplats11list_doublyIN26APICtb_analyzed_structures18nmi_sourece_structEED2Ev
ffff8000000415d8 W _ZN9Ktemplats11list_doublyIN26APICtb_analyzed_structures24all_processor_nmi_structEED1Ev
ffff8000000415d8 W _ZN9Ktemplats11list_doublyIN26APICtb_analyzed_structures24all_processor_nmi_structEED2Ev
ffff8000000415fa W _ZN9Ktemplats11list_doublyIN26APICtb_analyzed_structures26processor_x64_lapic_structEE10alloc_nodeERKS2_
ffff800000041690 W _ZN9Ktemplats11list_doublyIN26APICtb_analyzed_structures17io_apic_structureEE10alloc_nodeERKS2_
ffff800000041738 W _ZN9Ktemplats11list_doublyIN26APICtb_analyzed_structures29ISA_interrupt_ovveride_structEE10alloc_nodeERKS2_
ffff8000000417dc W _ZN9Ktemplats11list_doublyIN26APICtb_analyzed_structures18nmi_sourece_structEE10alloc_nodeERKS2_
ffff800000041872 W _ZN9Ktemplats11list_doublyIN26APICtb_analyzed_structures24all_processor_nmi_structEE10alloc_nodeERKS2_
ffff80000004190e W _ZN9Ktemplats11list_doublyIN26APICtb_analyzed_structures26processor_x64_lapic_structEE5clearEv
ffff800000041982 W _ZN9Ktemplats11list_doublyIN26APICtb_analyzed_structures17io_apic_structureEE5clearEv
ffff8000000419f6 W _ZN9Ktemplats11list_doublyIN26APICtb_analyzed_structures29ISA_interrupt_ovveride_structEE5clearEv
ffff800000041a6a W _ZN9Ktemplats11list_doublyIN26APICtb_analyzed_structures18nmi_sourece_structEE5clearEv
ffff800000041ade W _ZN9Ktemplats11list_doublyIN26APICtb_analyzed_structures24all_processor_nmi_structEE5clearEv
ffff800000041b52 W _ZN9Ktemplats11list_doublyIN26APICtb_analyzed_structures26processor_x64_lapic_structEE9free_nodeEPNS3_4nodeE
ffff800000041b8c W _ZN9Ktemplats11list_doublyIN26APICtb_analyzed_structures17io_apic_structureEE9free_nodeEPNS3_4nodeE
ffff800000041bc6 W _ZN9Ktemplats11list_doublyIN26APICtb_analyzed_structures29ISA_interrupt_ovveride_structEE9free_nodeEPNS3_4nodeE
ffff800000041c00 W _ZN9Ktemplats11list_doublyIN26APICtb_analyzed_structures18nmi_sourece_structEE9free_nodeEPNS3_4nodeE
ffff800000041c3a W _ZN9Ktemplats11list_doublyIN26APICtb_analyzed_structures24all_processor_nmi_structEE9free_nodeEPNS3_4nodeE
ffff800000041c74 T _ZN10EFI_RT_SVSC1Ev
ffff800000041c74 T _ZN10EFI_RT_SVSC2Ev
ffff800000041c84 T _ZN10EFI_RT_SVS4InitEP17_EFI_SYSTEM_TABLE
ffff800000041e26 T _ZN10EFI_RT_SVS11rt_time_getEv
ffff800000041e88 T _ZN10EFI_RT_SVS11rt_time_setER8EFI_TIME
ffff800000041ef8 T _ZN10EFI_RT_SVS8rt_resetE14EFI_RESET_TYPEmmPv
ffff800000041f6e T _ZN10EFI_RT_SVS11rt_hotresetEv
ffff800000041f96 T _ZN10EFI_RT_SVS12rt_coldresetEv
ffff800000041fbe T _ZN10EFI_RT_SVS11rt_shutdownEv
ffff800000041fe6 T _ZN10EFI_RT_SVS14dump_func_ptrsEv
ffff800000042473 t outb
ffff80000004248f t _ZL7make_okv
ffff8000000424d3 t _ZL6tok_eqRK7token_tPKc
ffff80000004253f t _ZL12parse_digitsPKcmPm
ffff8000000425fa t _ZL7is_leapt
ffff800000042666 t _ZL13days_in_monthth
ffff8000000426d9 t _ZL17validate_datetimethhhhhjs
ffff8000000427be t _ZL15print_time_fullRK8EFI_TIME
ffff800000042d04 t _ZL17print_time_simpleRK8EFI_TIME
ffff800000042f8b t _ZL17confirm_with_wordPKcS0_
ffff8000000431e9 T _Z12cmd_uefitimePK6line_t
ffff8000000434e8 T _Z15cmd_uefisettimePK6line_t
ffff800000043f59 T _Z14cmd_uefirebootPK6line_t
ffff800000044028 T _Z14cmd_ueficresetPK6line_t
ffff8000000440f7 T _Z17cmd_legacy_rebootPK6line_t
ffff8000000443d4 T _Z16cmd_uefishutdownPK6line_t
ffff8000000444a3 T _Z12cmd_uefiptrsPK6line_t
ffff8000000444d5 t _ZL14print_macro_tmRK8macro_tm
ffff8000000448bc T _Z18cmd_get_macro_timePK6line_t
ffff80000004496d T _Z19cmd_set_marcro_timePK6line_t
ffff800000044ec6 t _ZZN13all_pages_arr13free_segs_getEvENKUlRK4pageE_clES2_
ffff800000044ee4 T _ZN13all_pages_arr13free_segs_getEv
ffff8000000452ce T _ZN13all_pages_arr4InitEP11vm_interval
ffff800000045952 T _ZN13all_pages_arr14simp_pages_setEmm12page_state_t
ffff800000045f32 T _ZN13all_pages_arrixEm
ffff800000046082 T _ZN13kpoolmemmgr_t19find_hcb_by_addressEPv
ffff8000000461a2 T _ZN13kpoolmemmgr_t12default_kurdEv
ffff8000000461e6 T _ZN13kpoolmemmgr_t15default_successEv
ffff80000004621c T _ZN13kpoolmemmgr_t12default_failEv
ffff800000046252 T _ZN13kpoolmemmgr_t13default_fatalEv
ffff800000046288 T _ZN13kpoolmemmgr_t4InitEv
ffff8000000462a8 T _ZN13kpoolmemmgr_t17multi_heap_enableEv
ffff80000004666c T _ZN13kpoolmemmgr_t10alloc_heapEj
ffff800000046788 T _ZN13kpoolmemmgr_t9free_heapEj
ffff80000004685a T _ZN13kpoolmemmgr_t6kallocEmR6KURD_t13alloc_flags_t
ffff800000046d12 T _ZN13kpoolmemmgr_t7reallocEPvR6KURD_tm13alloc_flags_t
ffff800000046f38 T _ZN13kpoolmemmgr_t5clearEPv
ffff800000046fc0 T _ZN13kpoolmemmgr_t5kfreeEPv
ffff800000047127 t _Z41__static_initialization_and_destruction_0v
ffff800000047160 t _Z41__static_initialization_and_destruction_1v
ffff800000047180 t _GLOBAL__sub_I__ZN13kpoolmemmgr_t20is_muli_heap_enabledE
ffff800000047192 t _GLOBAL__sub_D__ZN13kpoolmemmgr_t20is_muli_heap_enabledE
ffff8000000471a4 W _ZN28BuddyControlBlock_foundationC1Ev
ffff8000000471a4 W _ZN28BuddyControlBlock_foundationC2Ev
ffff8000000471fa W _ZN17BCB_fnd_DeepFirstC1Ev
ffff8000000471fa W _ZN17BCB_fnd_DeepFirstC2Ev
ffff80000004722e W _ZN13kpoolmemmgr_t10BuddyCacheC1Ev
ffff80000004722e W _ZN13kpoolmemmgr_t10BuddyCacheC2Ev
ffff800000047246 W _ZN13kpoolmemmgr_t6HCB_v3C1Ev
ffff800000047246 W _ZN13kpoolmemmgr_t6HCB_v3C2Ev
ffff800000047370 W _ZN13kpoolmemmgr_t6HCB_v3D1Ev
ffff800000047370 W _ZN13kpoolmemmgr_t6HCB_v3D2Ev
ffff800000047396 T _ZNK13kpoolmemmgr_t6HCB_v313meta_from_ptrEPv
ffff8000000473b0 T _ZNK13kpoolmemmgr_t6HCB_v313size_to_orderEj
ffff800000047404 T _ZNK13kpoolmemmgr_t6HCB_v313ptr_to_offsetEPvh
ffff800000047446 T _ZN13kpoolmemmgr_t6HCB_v320kurd_default_successEv
ffff8000000474c0 T _ZN13kpoolmemmgr_t6HCB_v318kurd_default_errorEv
ffff80000004753c T _ZN13kpoolmemmgr_t6HCB_v318kurd_default_fatalEv
ffff8000000475b6 T _ZN13kpoolmemmgr_t6HCB_v313linktime_initEv
ffff80000004774a T _ZN13kpoolmemmgr_t6HCB_v36onlineEjmm
ffff800000047ed9 T _Z18hcb_unmap_free_tlbRK11vm_interval
ffff800000047fe8 T _ZN13kpoolmemmgr_t6HCB_v37offlineEv
ffff800000048246 T _ZNK13kpoolmemmgr_t6HCB_v314is_addr_belongEPv
ffff80000004829e T _ZNK13kpoolmemmgr_t6HCB_v310used_bytesEv
ffff8000000482b2 T _ZNK13kpoolmemmgr_t6HCB_v37is_fullEv
ffff8000000482c6 T _ZN13kpoolmemmgr_t6HCB_v312cache_insertEhm
ffff800000048358 T _ZN13kpoolmemmgr_t6HCB_v310cache_pickEhRm
ffff800000048448 T _ZN13kpoolmemmgr_t6HCB_v314internal_allocERmh
ffff80000004878e T _ZN13kpoolmemmgr_t6HCB_v313internal_freeEmh
ffff8000000488ac T _ZN13kpoolmemmgr_t6HCB_v35allocERPvj13alloc_flags_t
ffff800000048a88 T _ZN13kpoolmemmgr_t6HCB_v34freeEPv
ffff800000048c08 T _ZN13kpoolmemmgr_t6HCB_v37reallocERPvj13alloc_flags_t
ffff800000048e5c T _ZN13kpoolmemmgr_t6HCB_v35clearEPv
ffff800000048f30 T _ZN13kpoolmemmgr_t6HCB_v316flush_free_countEv
ffff800000048f56 t _ZL11get_gs_basev
ffff800000048f6e T _ZN12AddressSpace12default_kurdEv
ffff800000048fb6 T _ZN12AddressSpace15default_successEv
ffff800000048ff6 T _ZN12AddressSpace12default_failEv
ffff800000049036 T _ZN12AddressSpace13default_fatalEv
ffff800000049076 t _ZZN12AddressSpace25invalidate_tlb_of_VM_descE7VM_DESCNS_20tlb_invalidate_flagsEENKUlmE_clEm
ffff8000000490e0 T _ZN12AddressSpace25invalidate_tlb_of_VM_descE7VM_DESCNS_20tlb_invalidate_flagsE
ffff8000000492aa T _ZN12AddressSpaceC1Ev
ffff8000000492aa T _ZN12AddressSpaceC2Ev
ffff8000000492d2 T _ZN12AddressSpace10tlb_on_setEv
ffff8000000493ba T _ZN12AddressSpace12tlb_on_clearEv
ffff8000000494ae t _ZZN12AddressSpace27enable_low_half_vm_intervalE11vm_intervalENKUlR19PageTableEntryUnion18PageTableEntryTypeE_clES2_S3_
ffff8000000496e2 t _ZZN12AddressSpace27enable_low_half_vm_intervalE11vm_intervalENKUlmmtE_clEmmt
ffff800000049c92 t _ZZN12AddressSpace27enable_low_half_vm_intervalE11vm_intervalENKUlmmtE0_clEmmt
ffff80000004a108 t _ZZN12AddressSpace27enable_low_half_vm_intervalE11vm_intervalENKUlmmmE_clEmmm
ffff80000004a462 t _ZZN12AddressSpace27enable_low_half_vm_intervalE11vm_intervalENKUlmmE_clEmm
ffff80000004a48c t _ZZN12AddressSpace27enable_low_half_vm_intervalE11vm_intervalENKUlmmE0_clEmm
ffff80000004a4b6 t _ZZN12AddressSpace27enable_low_half_vm_intervalE11vm_intervalENKUlmmE1_clEmm
ffff80000004a4e0 T _ZN12AddressSpace27enable_low_half_vm_intervalE11vm_interval
ffff80000004ae90 t _ZZN12AddressSpace28disable_low_half_vm_intervalE11vm_intervalENKUlmmtE_clEmmt
ffff80000004b3a6 t _ZZN12AddressSpace28disable_low_half_vm_intervalE11vm_intervalENKUlmmtE0_clEmmt
ffff80000004b7d6 t _ZZN12AddressSpace28disable_low_half_vm_intervalE11vm_intervalENKUlmmmE_clEmmm
ffff80000004bab4 t _ZZN12AddressSpace28disable_low_half_vm_intervalE11vm_intervalENKUlmmE_clEmm
ffff80000004bade T _ZN12AddressSpace28disable_low_half_vm_intervalE11vm_interval
ffff80000004c392 T _ZN12AddressSpace14vaddr_to_paddrEmR6KURD_t
ffff80000004c7b7 T _Z11VM_desc_cmpRK7VM_DESCS1_
ffff80000004c804 T _ZN12AddressSpace23unsafe_load_pml4_to_cr3Et
ffff80000004c830 T _ZN12AddressSpaceD1Ev
ffff80000004c830 T _ZN12AddressSpaceD2Ev
ffff80000004c8b8 T _ZN12AddressSpace17second_stage_initEv
ffff80000004cb1e T shift_addresSpace
ffff80000004cdbd T utlb_invalidate
ffff80000004cf06 t _ZZ20utlb_invalidate_ipisENKUlvE_clEv
ffff80000004cf5b T utlb_invalidate_ipis
ffff80000004d3da W _ZN12AddressSpace21get_tlb_hoding_bitmapEv
ffff80000004d3f0 T _Z12VM_vaddr_cmpP7VM_DESCS0_
ffff80000004d463 t _ZN12_GLOBAL__N_1L24kpt_stat_for_current_cpuEv
ffff80000004d4e6 T _Z21cache_strategy_to_idx16cache_strategy_t
ffff80000004d57e T _ZN17kspace_vm_table_tC1Ev
ffff80000004d57e T _ZN17kspace_vm_table_tC2Ev
ffff80000004d5d4 T _ZN17kspace_vm_table_t14all_node_printEv
ffff80000004d668 t _ZN12_GLOBAL__N_1L11subtree_minEPN9Ktemplats6RBTreeI7VM_DESCXadL_Z11VM_desc_cmpRKS2_S4_EEE4NodeE
ffff80000004d6a4 t _ZN12_GLOBAL__N_1L11subtree_maxEPN9Ktemplats6RBTreeI7VM_DESCXadL_Z11VM_desc_cmpRKS2_S4_EEE4NodeE
ffff80000004d6e0 t _ZN12_GLOBAL__N_1L9successorEPN9Ktemplats6RBTreeI7VM_DESCXadL_Z11VM_desc_cmpRKS2_S4_EEE4NodeE
ffff80000004d770 T _ZN17kspace_vm_table_t6searchEm
ffff80000004d820 T _ZN17kspace_vm_table_t6insertE7VM_DESC
ffff80000004d89c T _ZN17kspace_vm_table_t6removeEm
ffff80000004d984 T _ZN15KspacePageTable14enable_VMentryERK11vm_interval
ffff80000004e0fa T _ZN15KspacePageTable15disable_VMentryERK11vm_intervalR6KURD_t
ffff80000004e6de T _ZN15KspacePageTable22v_to_phyaddrtraslationEmRm
ffff80000004e816 t _ZZN17kspace_vm_table_t21alloc_available_spaceEmjENKUlmE_clEm
ffff80000004e884 t _ZZN17kspace_vm_table_t21alloc_available_spaceEmjENKUlvE_clEv
ffff80000004e948 t _ZZN17kspace_vm_table_t21alloc_available_spaceEmjENKUlmE0_clEm
ffff80000004ea2c T _ZN17kspace_vm_table_t21alloc_available_spaceEmj
ffff80000004edb6 t _ZZN17kspace_vm_table_t14all_node_printEvENKUlOT_PN9Ktemplats6RBTreeI7VM_DESCXadL_Z11VM_desc_cmpRKS4_S6_EEE4NodeEE_clIRSA_EEvS1_S9_
ffff80000004f17b t _Z41__static_initialization_and_destruction_0v
ffff80000004f1b4 t _GLOBAL__sub_I_kspace_pagetable_modify_lock
ffff80000004f1c6 W _ZN17kspace_vm_table_t13allocate_nodeERK7VM_DESC
ffff80000004f224 W _ZN17kspace_vm_table_t15deallocate_nodeEPN9Ktemplats6RBTreeI7VM_DESCXadL_Z11VM_desc_cmpRKS2_S4_EEE4NodeE
ffff80000004f254 W _ZN9Ktemplats6RBTreeI7VM_DESCXadL_Z11VM_desc_cmpRKS1_S3_EEE4NodeC1ES3_
ffff80000004f254 W _ZN9Ktemplats6RBTreeI7VM_DESCXadL_Z11VM_desc_cmpRKS1_S3_EEE4NodeC2ES3_
ffff80000004f2c2 W _ZN9Ktemplats6RBTreeI7VM_DESCXadL_Z11VM_desc_cmpRKS1_S3_EEEC1Ev
ffff80000004f2c2 W _ZN9Ktemplats6RBTreeI7VM_DESCXadL_Z11VM_desc_cmpRKS1_S3_EEEC2Ev
ffff80000004f2ee W _ZN9Ktemplats6RBTreeI7VM_DESCXadL_Z11VM_desc_cmpRKS1_S3_EEE6insertES1_
ffff80000004f390 W _ZN9Ktemplats6RBTreeI7VM_DESCXadL_Z11VM_desc_cmpRKS1_S3_EEE5eraseES3_
ffff80000004f5c9 W _ZN9Ktemplats6RBTreeI7VM_DESCXadL_Z11VM_desc_cmpRKS1_S3_EEE11subtree_maxEPNS4_4NodeE
ffff80000004f605 W _ZN9Ktemplats6RBTreeI7VM_DESCXadL_Z11VM_desc_cmpRKS1_S3_EEE11subtree_minEPNS4_4NodeE
ffff80000004f641 W _ZN9Ktemplats6RBTreeI7VM_DESCXadL_Z11VM_desc_cmpRKS1_S3_EEE9successorEPNS4_4NodeE
ffff80000004f6c4 W _ZN9Ktemplats6RBTreeI7VM_DESCXadL_Z11VM_desc_cmpRKS1_S3_EEE13allocate_nodeES3_
ffff80000004f708 W _ZN9Ktemplats6RBTreeI7VM_DESCXadL_Z11VM_desc_cmpRKS1_S3_EEE10bst_insertES3_RPNS4_4NodeES6_
ffff80000004f802 W _ZZN9Ktemplats6RBTreeI7VM_DESCXadL_Z11VM_desc_cmpRKS1_S3_EEE9color_fixEPNS4_4NodeEENKUlvE_clEv
ffff80000004f87e W _ZN9Ktemplats6RBTreeI7VM_DESCXadL_Z11VM_desc_cmpRKS1_S3_EEE9color_fixEPNS4_4NodeE
ffff80000004fb06 W _ZNK9Ktemplats6RBTreeI7VM_DESCXadL_Z11VM_desc_cmpRKS1_S3_EEE9find_nodeES3_
ffff80000004fb80 W _ZN9Ktemplats6RBTreeI7VM_DESCXadL_Z11VM_desc_cmpRKS1_S3_EEE10transplantEPNS4_4NodeES6_
ffff80000004fbf8 W _ZN9Ktemplats6RBTreeI7VM_DESCXadL_Z11VM_desc_cmpRKS1_S3_EEE15deallocate_nodeEPNS4_4NodeE
ffff80000004fc28 W _ZZN9Ktemplats6RBTreeI7VM_DESCXadL_Z11VM_desc_cmpRKS1_S3_EEE11erase_fixupEPNS4_4NodeES6_ENKUlS6_E_clES6_
ffff80000004fc5a W _ZZN9Ktemplats6RBTreeI7VM_DESCXadL_Z11VM_desc_cmpRKS1_S3_EEE11erase_fixupEPNS4_4NodeES6_ENKUlS6_E0_clES6_
ffff80000004fc8c W _ZN9Ktemplats6RBTreeI7VM_DESCXadL_Z11VM_desc_cmpRKS1_S3_EEE11erase_fixupEPNS4_4NodeES6_
ffff8000000501e0 W _ZN9Ktemplats6RBTreeI7VM_DESCXadL_Z11VM_desc_cmpRKS1_S3_EEE12rotate_rightEPNS4_4NodeE
ffff800000050259 W _ZN9Ktemplats6RBTreeI7VM_DESCXadL_Z11VM_desc_cmpRKS1_S3_EEE11rotate_leftEPNS4_4NodeE
ffff8000000502d2 W _ZN9Ktemplats6RBTreeI7VM_DESCXadL_Z11VM_desc_cmpRKS1_S3_EEE11parent_linkEPNS4_4NodeE
ffff800000050324 t _ZN12_GLOBAL__N_1L24kpt_stat_for_current_cpuEv
ffff8000000503a7 T _Z23invalidate_tlb_by_vaddrm
ffff8000000503be T _ZN15KspacePageTable12default_kurdEv
ffff800000050402 T _ZN15KspacePageTable15default_successEv
ffff800000050438 T _ZN15KspacePageTable15default_failureEv
ffff80000005046e T _ZN15KspacePageTable13default_fatalEv
ffff8000000504a4 T _ZN15KspacePageTable4InitEv
ffff80000005057d T _Z26nonleaf_pgtbentry_flagssetR19PageTableEntryUnion
ffff8000000505bc T _ZN15KspacePageTable24_4lv_pte_4KB_entries_setEmmt8pgaccess
ffff800000050c82 T _ZN15KspacePageTable14invalidate_segEv
ffff80000005100b T remote_invalidate_seg
ffff80000005117e T _ZN15KspacePageTable24_4lv_pde_2MB_entries_setEmmt8pgaccess
ffff800000051676 T _ZN15KspacePageTable26_4lv_pdpte_1GB_entries_setEmmt8pgaccess
ffff8000000519a4 T _ZN15KspacePageTable26_4lv_pte_4KB_entries_clearEmt
ffff800000051d54 T _ZN15KspacePageTable28_4lv_pdpte_1GB_entries_clearEmt
ffff800000051f38 T _ZN15KspacePageTable26_4lv_pde_2MB_entries_clearEmt
ffff80000005227a T _ZN15KspacePageTable28v_to_phyaddrtraslation_entryEmR19PageTableEntryUnionRj
ffff8000000524ff t _Z41__static_initialization_and_destruction_0v
ffff80000005251f t _GLOBAL__sub_I_kspace_pagetable_statistics
ffff800000052532 W _ZN27shared_inval_VMentry_info_tC1Ev
ffff800000052532 W _ZN27shared_inval_VMentry_info_tC2Ev
ffff80000005255a W _ZN15atomic_scalar_tIjEC1Ev
ffff80000005255a W _ZN15atomic_scalar_tIjEC2Ev
ffff800000052574 W _ZN15atomic_scalar_tIjEppEi
ffff800000052594 T userspace_compatible_phymem_direct_map_enable
ffff80000005259f T userspace_compatible_phymem_direct_map_disable
ffff8000000525aa T Kspace_phyaddr_direct_map
ffff800000052876 T Kspace_pinterval_alloc_and_map
ffff800000052c34 T Kspace_phyaddr_direct_unmap
ffff800000052ef7 T broadcast_invalidate_tlb
ffff800000053218 T __wrapped_pgs_valloc
ffff8000000534e3 T stack_alloc
ffff8000000537de T __wrapped_pgs_vfree
ffff800000053b82 T __wrapped_heap_alloc
ffff800000053be7 T __wrapped_heap_free
ffff800000053c2e T __wrapped_heap_realloc
ffff800000053c98 T _Znwm
ffff800000053d9e T _Znwm13alloc_flags_t
ffff800000053ea7 T _Znam
ffff800000053fad T _Znam13alloc_flags_t
ffff8000000540b6 T _ZdlPv
ffff8000000540d8 T _ZdlPvm
ffff8000000540eb T _ZdaPv
ffff80000005410d T _ZdaPvm
ffff800000054120 T _ZnwmPv
ffff800000054136 T _ZnamPv
ffff80000005414c T _ZN15PhyAddrAccessor4InitE11vm_interval
ffff8000000541ec T _ZN15PhyAddrAccessor12cache_lookupEm
ffff800000054278 T _ZN15PhyAddrAccessor15cache_evict_lruEv
ffff8000000542ce T _ZN15PhyAddrAccessor11cache_touchEi
ffff80000005431a T _ZN15PhyAddrAccessor12resolve_addrEm
ffff8000000547c0 T _ZN15PhyAddrAccessor6readu8Em
ffff8000000547fa T _ZN15PhyAddrAccessor7readu16Em
ffff800000054834 T _ZN15PhyAddrAccessor7readu32Em
ffff80000005486e T _ZN15PhyAddrAccessor7readu64Em
ffff8000000548a8 T _ZN15PhyAddrAccessor7writeu8Emh
ffff8000000548e4 T _ZN15PhyAddrAccessor8writeu16Emt
ffff800000054920 T _ZN15PhyAddrAccessor8writeu32Emj
ffff80000005495a T _ZN15PhyAddrAccessor8writeu64Emm
ffff800000054996 T _ZN15PhyAddrAccessor12paddr_memcpyEmmm
ffff800000054b70 T _ZN15PhyAddrAccessor11cache_flushEm
ffff800000054ba6 T _ZN15PhyAddrAccessor18cache_flush_serialEm
ffff800000054bde W _ZNK11vm_interval12paddr_belongEm
ffff800000054c3d W _ZN15PhyAddrAccessor12is_not_readyEv
ffff800000054c57 W _ZN15PhyAddrAccessor9is_stage1Ev
ffff800000054c8e t _ZN12_GLOBAL__N_1L17fpa_get_cpu_countEv
ffff800000054ca2 t _ZN12_GLOBAL__N_1L21fpa_wrapped_pgs_vfreeEPvm
ffff800000054ccf t _ZN12_GLOBAL__N_1L22fpa_wrapped_pgs_vallocEP6KURD_tm12page_state_th
ffff800000054d06 T _ZN18FreePagesAllocator12default_kurdEv
ffff800000054d4a T _ZN18FreePagesAllocator15default_successEv
ffff800000054d80 T _ZN18FreePagesAllocator13default_retryEv
ffff800000054db8 T _ZN18FreePagesAllocator13default_errorEv
ffff800000054dda T _ZN18FreePagesAllocator13default_fatalEv
ffff800000054dfc t _ZZN18FreePagesAllocator4InitENS_10strategy_tEP11vm_intervalENKUlvE_clEv
ffff800000054ea6 t _ZN9Ktemplats11list_doublyIN12_GLOBAL__N_114BCB_plan_entryEEC1Ev
ffff800000054ea6 t _ZN9Ktemplats11list_doublyIN12_GLOBAL__N_114BCB_plan_entryEEC2Ev
ffff800000054ed8 t _ZZN18FreePagesAllocator4InitENS_10strategy_tEP11vm_intervalENKUlmmE_clEmm
ffff800000054f14 T _ZN18FreePagesAllocator4InitENS_10strategy_tEP11vm_interval
ffff800000056b42 T _ZN18FreePagesAllocator17get_memory_crumbsEv
ffff800000056b56 t _ZZ13size_to_ordermENKUlmE_clEm
ffff800000056bbd T _Z13size_to_orderm
ffff800000056c1c t _ZZN18FreePagesAllocator5allocEm18buddy_alloc_params12page_state_tR6KURD_tENKUlvE_clEv
ffff800000056c9e t _ZZN18FreePagesAllocator5allocEm18buddy_alloc_params12page_state_tR6KURD_tENKUlmE_clEm
ffff800000056cf0 t _ZZN18FreePagesAllocator5allocEm18buddy_alloc_params12page_state_tR6KURD_tENKUlmE0_clEm
ffff800000057066 T _ZN18FreePagesAllocator5allocEm18buddy_alloc_params12page_state_tR6KURD_t
ffff8000000577a0 t _ZZN18FreePagesAllocator4freeEmmENKUlvE_clEv
ffff8000000577ce T _ZN18FreePagesAllocator4freeEmm
ffff800000057c56 T _ZN18FreePagesAllocator13get_fpa_statsEv
ffff800000057c8e T _ZN18FreePagesAllocator13get_fpa_statsEm
ffff800000057cf8 T _ZN18FreePagesAllocator17get_fpa_stats_allEv
ffff800000057e54 T _ZN18FreePagesAllocator8activateEv
ffff800000057e7c T _ZN18FreePagesAllocator16interval_polluteE14phymem_segment
ffff800000058102 T _ZN18FreePagesAllocator14interval_cleanE14phymem_segment
ffff8000000583ec T _ZN18FreePagesAllocator30print_all_bcb_pollution_countsEv
ffff800000058632 t _ZN9Ktemplats11list_doublyIN12_GLOBAL__N_114BCB_plan_entryEE5clearEv
ffff8000000586a6 t _ZN9Ktemplats11list_doublyIN12_GLOBAL__N_114BCB_plan_entryEE9push_backERKS2_
ffff800000058742 t _ZNK9Ktemplats11list_doublyIN12_GLOBAL__N_114BCB_plan_entryEE4sizeEv
ffff800000058758 t _ZN9Ktemplats11list_doublyIN12_GLOBAL__N_114BCB_plan_entryEED1Ev
ffff800000058758 t _ZN9Ktemplats11list_doublyIN12_GLOBAL__N_114BCB_plan_entryEED2Ev
ffff80000005877a t _ZN9Ktemplats11list_doublyIN12_GLOBAL__N_114BCB_plan_entryEE5beginEv
ffff8000000587aa t _ZN9Ktemplats11list_doublyIN12_GLOBAL__N_114BCB_plan_entryEE3endEv
ffff8000000587d4 t _ZNK9Ktemplats11list_doublyIN12_GLOBAL__N_114BCB_plan_entryEE8iteratorneERKS4_
ffff8000000587fa t _ZN9Ktemplats11list_doublyIN12_GLOBAL__N_114BCB_plan_entryEE8iteratorppEv
ffff80000005882a t _ZN9Ktemplats11list_doublyIN12_GLOBAL__N_114BCB_plan_entryEE8iteratordeEv
ffff800000058844 t _ZN9Ktemplats11list_doublyIN12_GLOBAL__N_114BCB_plan_entryEE9free_nodeEPNS3_4nodeE
ffff80000005887e t _ZN9Ktemplats11list_doublyIN12_GLOBAL__N_114BCB_plan_entryEE10alloc_nodeERKS2_
ffff800000058926 t _ZN9Ktemplats11list_doublyIN12_GLOBAL__N_114BCB_plan_entryEE8iteratorC1EPNS3_4nodeE
ffff800000058926 t _ZN9Ktemplats11list_doublyIN12_GLOBAL__N_114BCB_plan_entryEE8iteratorC2EPNS3_4nodeE
ffff800000058944 T _ZN18FreePagesAllocator17BuddyControlBlock34is_addr_belong_to_this_BCB_no_lockEm
ffff80000005899c T _ZN18FreePagesAllocator17BuddyControlBlock15default_successEv
ffff8000000589c2 T _ZN18FreePagesAllocator17BuddyControlBlock13default_errorEv
ffff8000000589e8 T _ZN18FreePagesAllocator17BuddyControlBlock13default_fatalEv
ffff800000058a0e T _ZN18FreePagesAllocator17BuddyControlBlock12default_kurdEv
ffff800000058a34 t _ZZN18FreePagesAllocator17BuddyControlBlock13size_to_orderEmENKUlmE_clEm
ffff800000058a9c T _ZN18FreePagesAllocator17BuddyControlBlock13size_to_orderEm
ffff800000058af6 T _ZN18FreePagesAllocator17BuddyControlBlock12cache_insertEhm
ffff800000058be0 T _ZN18FreePagesAllocator17BuddyControlBlock10cache_pickEhRm
ffff800000058d32 T _ZN18FreePagesAllocator17BuddyControlBlock9can_allocEh
ffff800000058daa T _ZN18FreePagesAllocator17BuddyControlBlockC1Emh
ffff800000058daa T _ZN18FreePagesAllocator17BuddyControlBlockC2Emh
ffff800000058e8e T _ZN18FreePagesAllocator17BuddyControlBlockC1Ev
ffff800000058e8e T _ZN18FreePagesAllocator17BuddyControlBlockC2Ev
ffff800000058ed0 T _ZN18FreePagesAllocator17BuddyControlBlock32corebcb_mixedbitmap_base_acclaimEm
ffff800000058f0e T _ZN18FreePagesAllocator17BuddyControlBlock18allocate_buddy_wayEmR6KURD_th
ffff8000000593be T _ZN18FreePagesAllocator17BuddyControlBlock14free_buddy_wayEmm
ffff80000005954a T _ZN18FreePagesAllocator17BuddyControlBlock16free_pages_flushEv
ffff800000059572 T _ZN18FreePagesAllocator17BuddyControlBlock26is_addr_belong_to_this_BCBEm
ffff80000005959e T _ZN18FreePagesAllocator17BuddyControlBlock8get_baseEv
ffff8000000595b4 T _ZN18FreePagesAllocator17BuddyControlBlock9get_orderEv
ffff8000000595ca T _ZN18FreePagesAllocator17BuddyControlBlock13get_max_orderEv
ffff8000000595e0 T _ZN18FreePagesAllocator17BuddyControlBlock16is_bcb_avaliableEv
ffff8000000595f4 T _ZN18FreePagesAllocator17BuddyControlBlock24print_basic_info_no_lockEv
ffff800000059692 T _ZN18FreePagesAllocator17BuddyControlBlock25print_bitmap_info_no_lockEv
ffff8000000596a2 T _ZN18FreePagesAllocator17BuddyControlBlock16print_basic_infoEv
ffff8000000596c4 T _ZN18FreePagesAllocator17BuddyControlBlock17print_bitmap_infoEv
ffff8000000596d4 T _ZN18FreePagesAllocator17BuddyControlBlock40print_bitmap_order_info_compress_no_lockEh
ffff8000000596e8 T _ZN18FreePagesAllocator17BuddyControlBlock44print_bitmap_order_interval_compress_no_lockEhmm
ffff800000059704 T _ZN18FreePagesAllocator17BuddyControlBlock32print_bitmap_order_info_compressEh
ffff800000059730 T _ZN18FreePagesAllocator17BuddyControlBlock36print_bitmap_order_interval_compressEhmm
ffff80000005976a T _ZN18FreePagesAllocator17BuddyControlBlock20print_all_statisticsEv
ffff8000000598ca W _ZNK28BuddyControlBlock_foundation17order_exist_checkEh
ffff800000059908 t _ZN12_GLOBAL__N_1L12make_successEv
ffff80000005994c t _ZN12_GLOBAL__N_1L9make_failEt
ffff800000059993 t _ZN12_GLOBAL__N_1L22alloc_contiguous_pagesEP6KURD_tPPvPmjm
ffff800000059aba T _ZN15NVMe_Controller14wait_for_readyEPNS_11head_regs_tEbj
ffff800000059b32 T _ZN15NVMe_Controller9hmb_allocER6KURD_t
ffff80000005a09e T _ZN15NVMe_Controller8hmb_freeER6KURD_t
ffff80000005a23a T _ZN15NVMe_ControllerC1Em
ffff80000005a23a T _ZN15NVMe_ControllerC2Em
ffff80000005a2f6 T _ZN15NVMe_Controller17second_stage_initEv
ffff80000005b152 T _ZN15NVMe_Controller8pre_initEv
ffff80000005c00e T _ZN15NVMe_Controller11device_initEPS_
ffff80000005c064 T _ZN15NVMe_Controller7offlineEm
ffff80000005c57b W _ZN4NVMe6status8is_errorEt
ffff80000005c592 W _ZN14tid_wait_queueD1Ev
ffff80000005c592 W _ZN14tid_wait_queueD2Ev
ffff80000005c5b4 W _ZN15NVMe_Controller10cq_complexC1Ev
ffff80000005c5b4 W _ZN15NVMe_Controller10cq_complexC2Ev
ffff80000005c5da W _ZN15NVMe_Controller10cq_complexD1Ev
ffff80000005c5da W _ZN15NVMe_Controller10cq_complexD2Ev
ffff80000005c600 t _ZL20scan_pcie_nvme_countv
ffff80000005c7e2 t _ZL22nvme_init_thread_entryPv
ffff80000005c9d0 t _ZL8hex_dumpPKcPKvj
ffff80000005cc4b t _ZL24nvme_iotest_thread_entryPv
ffff80000005d72a T _ZN15NVMe_Controller4InitEm
ffff80000005e52c W _ZN15NVMe_Controller14get_namespacesEv
ffff80000005e546 W _ZNK15NVMe_Controller12get_ns_countEv
ffff80000005e55e T _ZN15NVMe_Controller22cmd_submit_and_processEtN4NVMe7command21submit_command_commonER6KURD_t
ffff80000005e85a T _ZN15NVMe_Controller16interrupt_handleEP17interrupt_token_t
ffff80000005e8b6 T _ZN15NVMe_Controller20cq_interrupt_handlerEt
ffff80000005eb72 T _ZN15NVMe_Controller28ADMIN_cmd_submit_and_processEN4NVMe7command21submit_command_commonER6KURD_t
ffff80000005ebbc T _ZN15NVMe_Controller10aer_submitEtR6KURD_t
ffff80000005ed3a T _ZN15NVMe_Controller16aer_handle_errorEj
ffff80000005eddc T _ZN15NVMe_Controller23aer_handle_smart_healthEj
ffff80000005ee7e T _ZN15NVMe_Controller17aer_handle_noticeEj
ffff80000005ef20 T _ZN15NVMe_Controller26aer_handle_io_cmd_specificEj
ffff80000005efc2 T _ZN15NVMe_Controller19aer_handle_one_shotEj
ffff80000005f064 T _ZN15NVMe_Controller17start_poll_threadEtR6KURD_t
ffff80000005f0c8 T _ZN15NVMe_Controller12default_kurdEv
ffff80000005f10c T _ZN15NVMe_Controller15default_successEv
ffff80000005f11e T _ZN15NVMe_Controller15default_failureEv
ffff80000005f140 T _ZN15NVMe_Controller13default_fatalEv
ffff80000005f162 T _ZN15NVMe_Controller16sq_dorbell_writeEjj
ffff80000005f1a4 T _ZN15NVMe_Controller16cq_dorbell_writeEjj
ffff80000005f1ea T _ZN15NVMe_Controller15sq_dorbell_readEj
ffff80000005f222 T _ZN15NVMe_Controller15cq_dorbell_readEj
ffff80000005f25e T _ZN15NVMe_Controller11msix_enableEjth
ffff80000005f304 T _ZN15NVMe_Controller14msix_vec_allocEjt
ffff80000005f508 T _ZN15NVMe_Controller13msix_vec_freeEt
ffff80000005f62d T _Z19pcie_nvme_on_devicethhhm
ffff80000005f716 T _Z23pcie_nvme_scan_completev
ffff80000005f964 t _ZL7make_okv
ffff80000005f9a8 t _ZL9parse_bdfPKcmPtPhS2_S2_
ffff80000005fc42 t _ZL16find_ecam_by_bdfthhh
ffff80000005fd9c t _ZZL11cmd_nvme_onPK6line_tENKUlPvE_clES2_
ffff80000005febb t _ZZL11cmd_nvme_onPK6line_tENUlPvE_4_FUNES2_
ffff80000005fee2 t _ZZL11cmd_nvme_onPK6line_tENKUlPvE_cvPFS2_S2_EEv
ffff80000005fefa t _ZL11cmd_nvme_onPK6line_t
ffff8000000604f2 t _ZZL12cmd_nvme_offPK6line_tENKUlPvE_clES2_
ffff800000060616 t _ZZL12cmd_nvme_offPK6line_tENUlPvE_4_FUNES2_
ffff80000006063c t _ZZL12cmd_nvme_offPK6line_tENKUlPvE_cvPFS2_S2_EEv
ffff800000060654 t _ZL12cmd_nvme_offPK6line_t
ffff8000000609e4 T _Z29register_nvme_kshell_commandsv
ffff800000060ab2 t _ZL18make_identify_kurdN4NVMe7command23complete_command_commonEt
ffff800000060b77 t _ZL11do_identifyP15NVMe_ControllerjjmR6KURD_t
ffff800000060ca0 T _ZN15NVMe_Controller13identify_ctrlEmR6KURD_t
ffff800000060ce2 T _ZN15NVMe_Controller11identify_nsEjmR6KURD_t
ffff800000060d24 T _ZN15NVMe_Controller16identify_ns_listEjmR6KURD_t
ffff800000060d66 T _ZN15NVMe_Controller17identify_ns_indepEjmR6KURD_t
ffff800000060da8 T _ZN15NVMe_Controller26identify_primary_ctrl_capsEtmR6KURD_t
ffff800000060ede t _ZL13make_set_kurdN4NVMe7command23complete_command_commonE
ffff800000060f9b t _ZL13make_get_kurdN4NVMe7command23complete_command_commonEj
ffff8000000610c0 T _ZN15NVMe_Controller16get_features_cmdEhhR6KURD_t
ffff80000006116a T _ZN15NVMe_Controller16set_features_cmdEhjmR6KURD_t
ffff80000006121e T _ZN15NVMe_Controller23get_features_num_queuesER6KURD_t
ffff8000000612b8 T _ZN15NVMe_Controller23set_features_num_queuesEttR6KURD_t
ffff800000061392 T _ZN15NVMe_Controller27get_features_int_coalescingER6KURD_t
ffff8000000613ee T _ZN15NVMe_Controller27set_features_int_coalescingEhhR6KURD_t
ffff8000000614b6 T _ZN15NVMe_Controller30get_features_int_vector_configER6KURD_t
ffff800000061512 T _ZN15NVMe_Controller30set_features_int_vector_configEtR6KURD_t
ffff8000000615e2 T _ZN15NVMe_Controller31get_features_async_event_configER6KURD_t
ffff80000006163e T _ZN15NVMe_Controller31set_features_async_event_configEhhhhhR6KURD_t
ffff800000061786 T _ZN15NVMe_Controller17get_features_hctmER6KURD_t
ffff8000000617e2 T _ZN15NVMe_Controller17set_features_hctmEttR6KURD_t
ffff8000000618bc t _ZL15make_queue_kurdN4NVMe7command23complete_command_commonEh
ffff800000061982 T _ZN15NVMe_Controller14queue_mgmt_cmdEhttjmR6KURD_t
ffff800000061a54 T _ZN15NVMe_Controller12create_io_cqEttbR6KURD_t
ffff800000061fba T _ZN15NVMe_Controller12create_io_sqEttthR6KURD_t
ffff800000062484 T _ZN15NVMe_Controller12delete_io_sqEtR6KURD_t
ffff800000062924 T _ZN15NVMe_Controller12delete_io_cqEtR6KURD_t
ffff800000062c82 T _ZN15NVMe_Controller13io_queue_initEttR6KURD_t
ffff80000006310a T _ZN15NVMe_Controller13io_queue_freeER6KURD_t
ffff8000000633c0 t _ZL18io_cmd_result_kurdN4NVMe7command23complete_command_commonEh
ffff80000006349f t _ZL16read_param_errort
ffff8000000634e6 T _ZN15NVMe_Controller4readEP11BlockDevice6pbuf_t14LBA_interval_tm
ffff800000063af5 t _ZL24read_advance_param_errort
ffff800000063b3c T _ZN15NVMe_Controller12read_advanceEP11BlockDeviceP10mem_segs_t14LBA_interval_tm
ffff800000064181 t _ZL17write_param_errort
ffff8000000641c8 t _ZL15cmp_param_errort
ffff800000064210 T _ZN15NVMe_Controller5writeEP11BlockDevice6pbuf_t14LBA_interval_tm
ffff8000000647b0 T _ZN15NVMe_Controller13write_advanceEP11BlockDeviceP10mem_segs_t14LBA_interval_tm
ffff800000064df6 T _ZN15NVMe_Controller7compareEP11BlockDevice6pbuf_t14LBA_interval_tm
ffff80000006535e T _ZN15NVMe_Controller15compare_advanceEP11BlockDeviceP10mem_segs_t14LBA_interval_tm
ffff80000006596c t _ZL15fdw_result_kurdN4NVMe7command23complete_command_commonEh
ffff800000065a4b t _ZL17param_error_flusht
ffff800000065a92 t _ZL19param_error_discardt
ffff800000065ad9 t _ZL14param_error_wzt
ffff800000065b20 t _ZL18submit_to_io_queueP15NVMe_ControllerN4NVMe7command21submit_command_commonER6KURD_t
ffff800000065b84 T _ZN15NVMe_Controller5flushEP11BlockDevicem
ffff800000065d2e T _ZN15NVMe_Controller10write_zeroEP11BlockDevice14LBA_interval_tm
ffff800000065fec T _ZN15NVMe_Controller7discardEP11BlockDevice14LBA_interval_tm
ffff800000066552 t _ZL18prp_list_page_zeromj
ffff8000000665a9 t _ZL20prp_list_write_entrymjm
ffff8000000665ef t _ZL15count_mps_pagesRK10mem_segs_tj
ffff8000000666cb t _ZL19fill_mps_page_addrsRK10mem_segs_tjPm
ffff8000000667c2 T _Z14build_PRP_rootmjjP10prp_root_tR6KURD_t
ffff800000066b6f T _Z22build_PRP_root_advanceR10mem_segs_tjP10prp_root_tR6KURD_t
ffff800000067034 T _Z16destroy_PRP_rootRK10prp_root_tjR6KURD_t
ffff800000067100 T InitializeUnicodeSupport
ffff800000067230 T EFIDebugVariable
ffff800000067280 T InitializeLib
ffff800000067380 T memset
ffff800000067420 T memcpy
ffff800000067460 T AllocatePool
ffff800000067490 T AllocateZeroPool
ffff8000000674f0 T ReallocatePool_1
ffff8000000675a0 T FreePool
ffff8000000675c0 T ZeroMem
ffff8000000675d0 T SetMem
ffff8000000675e0 T CopyMem_1
ffff8000000675f0 T CopyMemC
ffff800000067600 T CompareMem
ffff800000067610 T GrowBuffer
ffff800000067720 T LibMemoryMap
ffff800000067800 T LibGetVariableAndSize
ffff8000000678d0 T LibGetVariable
ffff8000000678f0 T LibDeleteVariable
ffff800000067980 T LibSetNVVariable
ffff8000000679b0 T LibSetVariable
ffff8000000679e0 T LibInsertToTailOfBootOrder
ffff800000067b80 T ValidMBR
ffff800000067d60 T DecimaltoBCD
ffff800000067d70 T BCDtoDecimal
ffff800000067d80 T LibGetSystemConfigurationTable
ffff800000067e10 T LibGetUiString
ffff800000067f40 T StrCmp
ffff800000067f50 T StrnCmp
ffff800000067f90 T LibStubStriCmp
ffff800000068030 T LibStubStrLwrUpr
ffff800000068040 T StriCmp
ffff800000068060 T StrLwr
ffff800000068080 T StrUpr
ffff8000000680a0 T StrCpy
ffff8000000680b0 T StrnCpy
ffff8000000680c0 T StpCpy
ffff8000000680d0 T StpnCpy
ffff8000000680e0 T StrCat
ffff8000000680f0 T StrnCat
ffff800000068100 T StrnLen
ffff800000068110 T StrLen
ffff800000068120 T StrSize
ffff800000068130 T StrDuplicate
ffff800000068170 T AsciiStrLen
ffff8000000681a0 T AsciiStrCmp
ffff8000000681e0 T AsciiStrnCmp
ffff800000068230 T xtoi
ffff8000000682f0 T Atoi
ffff800000068350 T MetaMatch
ffff800000068480 T LibStubMetaiMatch
ffff800000068520 T MetaiMatch
ffff800000068540 T RtZeroMem
ffff8000000685d0 T RtSetMem
ffff800000068680 T RtCopyMem
ffff800000068710 T RtCopyMemC
ffff800000068720 T RtCompareMem
ffff800000068770 T RtCompareGuid
ffff8000000687a0 T RtIsZeroGuid
ffff8000000687c0 T RtStrCmp
ffff800000068800 T RtStrCpy
ffff800000068840 T RtStrnCpy
ffff8000000688d0 T RtStpCpy
ffff800000068900 T RtStpnCpy
ffff800000068990 T RtStrCat
ffff8000000689e0 T RtStrnCat
ffff800000068a60 T RtStrLen
ffff800000068a90 T RtStrnLen
ffff800000068ac0 T RtStrSize
ffff800000068af0 T RtBCDtoDecimal
ffff800000068b00 T RtDecimaltoBCD
ffff800000068b30 T InitializeLibPlatform
ffff800000068b31 T efi_call0
ffff800000068b3c T efi_call1
ffff800000068b4a T efi_call2
ffff800000068b58 T efi_call3
ffff800000068b69 T efi_call4
ffff800000068b7d T efi_call5
ffff800000068b96 T efi_call6
ffff800000068bb9 T efi_call7
ffff800000068be6 T efi_call8
ffff800000068c1d T efi_call9
ffff800000068c5e T efi_call10
ffff800000068cc0 t _DevPathEndInstance
ffff800000068cd0 t _DevPathBssBss
ffff800000068d70 t _DevPathMediaProtocol
ffff800000068d90 t _DevPathFilePath
ffff800000068db0 t _DevPathCDROM
ffff800000068dd0 t _DevPathSata
ffff800000068df0 t _DevPathUart
ffff800000068f00 t _DevPathInfiniBand
ffff800000068f30 t _DevPathUri
ffff800000068f50 t _DevPathMacAddr
ffff800000069020 t _DevPathI2O
ffff800000069040 t _DevPathUsb
ffff800000069060 t _DevPath1394
ffff800000069080 t _DevPathFibre
ffff8000000690b0 t _DevPathScsi
ffff8000000690d0 t _DevPathAtapi
ffff800000069110 t _DevPathAcpi
ffff8000000692d0 t _DevPathController
ffff8000000692f0 t _DevPathMemMap
ffff800000069310 t _DevPathPccard
ffff800000069330 t _DevPathPci
ffff800000069350 t _DevPathNodeUnknown
ffff8000000694b0 t _DevPathVendor
ffff800000069560 t _DevPathHardDrive
ffff8000000695b0 t CatPrintIPv6.isra.0
ffff800000069650 t _DevPathIPv6
ffff8000000698d0 t _DevPathIPv4
ffff800000069b60 T DevicePathFromHandle
ffff800000069ba0 T DevicePathInstance
ffff800000069c80 T DevicePathInstanceCount
ffff800000069cc0 T DevicePathSize
ffff800000069d00 T DuplicateDevicePath
ffff800000069d70 T AppendDevicePath
ffff800000069f20 T AppendDevicePathNode
ffff800000069fb0 T FileDevicePath
ffff80000006a060 T UnpackDevicePath
ffff80000006a140 T AppendDevicePathInstance
ffff80000006a240 T LibDevicePathToInterface
ffff80000006a2d0 T DevicePathToStr
ffff80000006a410 T LibMatchDevicePaths
ffff80000006a4a0 T LibDuplicateDevicePathInstance
ffff80000006a520 T InitializeGuid
ffff80000006a530 T CompareGuid_1
ffff80000006a540 T IsZeroGuid
ffff80000006a550 T GuidToString
ffff80000006a640 T LibLocateHandle
ffff80000006a6f0 T LibLocateProtocol
ffff80000006a7c0 T LibLocateHandleByDiskSignature
ffff80000006ab40 T LibOpenRoot
ffff80000006ab90 T LibFileInfo
ffff80000006ac00 T LibFileSystemInfo
ffff80000006ac70 T LibFileSystemVolumeLabelInfo
ffff80000006ace0 T LibInstallProtocolInterfaces
ffff80000006ae90 T LibUninstallProtocolInterfaces
ffff80000006af50 T LibReinstallProtocolInterfaces
ffff80000006b140 T _DbgOut
ffff80000006b160 T _SPrint
ffff80000006b280 T _PoolPrint
ffff80000006b3a0 t ValueToHex.part.0
ffff80000006b450 t ValueToString.part.0
ffff80000006b570 t PPUTC
ffff80000006b640 T UnicodeSPrint
ffff80000006b6d0 T AsciiSPrint
ffff80000006b760 T PoolPrint
ffff80000006b800 T CatPrint
ffff80000006b8b0 T Print
ffff80000006b970 T PrintAt
ffff80000006ba10 T IPrint
ffff80000006bac0 T IPrintAt
ffff80000006bb60 T AsciiPrint
ffff80000006bc20 T ValueToHex
ffff80000006bc40 T ValueToString
ffff80000006bc60 T FloatToString
ffff80000006bda0 T TimeToString
ffff80000006be40 T DbgPrint
ffff80000006d140 T DumpHex
ffff80000006d340 t PPUTC
ffff80000006d410 t _Print
ffff80000006e280 T _PoolCatPrint
ffff80000006e2e0 T UnicodeVSPrint
ffff80000006e320 T VPoolPrint
ffff80000006e360 T _IPrint
ffff80000006e450 T VPrint
ffff80000006e480 T AsciiVSPrint
ffff80000006e5a0 T Output
ffff80000006e5c0 T IInput
ffff80000006e690 T Input
ffff80000006e6c0 T StatusToString
ffff80000006e710 T LibCreateProtocolNotifyEvent
ffff80000006e790 T WaitForSingleEvent
ffff80000006e870 T WaitForEventWithTimeout
ffff80000006e910 T LShiftU64
ffff80000006e920 T RShiftU64
ffff80000006e930 T MultU64x32
ffff80000006e940 T DivU64x32
ffff800000200000 D _data_start
ffff800000200000 d _ZL21g_i8042_command_table
ffff800000200000 T text_end
ffff800000200120 d _ZL20g_uefi_command_table
ffff800000200240 d _ZL19g_mem_command_table
ffff800000200400 d _ZL20g_pcie_command_table
ffff800000200460 d _ZL19g_x86_command_table
ffff800000200620 d _ZL20g_intr_command_table
ffff800000200660 D _ZN15textconsole_GoP19runtime_service_tidE
ffff800000200668 D __stack_chk_guard
ffff800000200670 d _ZN12_GLOBAL__N_1L25i8042_char_subscriber_tidE
ffff800000200678 d _ZN12_GLOBAL__N_1L25text_input_subscriber_tidE
ffff800000200680 d _ZN12_GLOBAL__N_1L26g_uart_runtime_service_tidE
ffff800000200688 D pglv_4_or_5
ffff80000020068a D _ZN18MEMMODULE_LOCAIONS18OUT_SRFACES_EVENTS22EVENT_CODE_PAGES_VFREEE
ffff80000020068c D _ZN18MEMMODULE_LOCAIONS18OUT_SRFACES_EVENTS19PAGES_VFREE_RESULTS12FAIL_REASONS19REMOVE_VMENTRY_FAILE
ffff80000020068e D _ZN18MEMMODULE_LOCAIONS18OUT_SRFACES_EVENTS22EVENT_CODE_PAGES_ALLOCE
ffff80000020068f D _ZN18MEMMODULE_LOCAIONS18OUT_SRFACES_EVENTS21EVENT_CODE_PAGES_FREEE
ffff800000200690 D _ZN18MEMMODULE_LOCAIONS18OUT_SRFACES_EVENTS22EVENT_CODE_KEYWORD_NEWE
ffff800000200691 D _ZN18MEMMODULE_LOCAIONS18OUT_SRFACES_EVENTS25EVENT_CODE_KEYWORD_DELETEE
ffff800000200692 D _ZN18MEMMODULE_LOCAIONS18OUT_SRFACES_EVENTS27EVENT_CODE_DIRECT_MAP_PADDRE
ffff800000200694 D _ZN18MEMMODULE_LOCAIONS18OUT_SRFACES_EVENTS24DIRECT_MAP_PADDR_RESULTS12FAIL_REASONS24REASON_CODE_BAD_INTERVALE
ffff800000200696 D _ZN18MEMMODULE_LOCAIONS18OUT_SRFACES_EVENTS24DIRECT_MAP_PADDR_RESULTS12FAIL_REASONS36REASON_CODE_NO_AVALIABLE_VADDR_SPACEE
ffff800000200698 D _ZN18MEMMODULE_LOCAIONS18OUT_SRFACES_EVENTS24DIRECT_MAP_PADDR_RESULTS12FAIL_REASONS31REASON_CODE_INSERT_VM_DESC_FAILE
ffff80000020069a D _ZN18MEMMODULE_LOCAIONS18OUT_SRFACES_EVENTS24DIRECT_MAP_PADDR_RESULTS12FAIL_REASONS32REASON_CODE_ENABLE_VM_ENTRY_FAILE
ffff80000020069c D _ZN18MEMMODULE_LOCAIONS18OUT_SRFACES_EVENTS29EVENT_CODE_DIRECT_UNMAP_PADDRE
ffff80000020069e D _ZN18MEMMODULE_LOCAIONS18OUT_SRFACES_EVENTS26DIRECT_UNMAP_PADDR_RESULTS12FAIL_REASONS32REASON_CODE_REMOVE_VM_ENTRY_FAILE
ffff8000002006a0 d _ZL13nvme_commands
ffff8000002006e0 D EFIDebug
ffff8000002006f0 D ShellDynamicCommandProtocolGuid
ffff800000200700 D ShellParametersProtocolGuid
ffff800000200710 D ShellProtocolGuid
ffff800000200720 D SimpleTextInputExProtocol
ffff800000200730 D gEfiDebugSupportProtocolGuid
ffff800000200740 D gEfiDebugImageInfoTableGuid
ffff800000200750 D AbsolutePointerProtocol
ffff800000200760 D SimplePointerProtocol
ffff800000200770 D Tcp4Protocol
ffff800000200780 D Tcp4ServiceBindingProtocol
ffff800000200790 D Udp4Protocol
ffff8000002007a0 D Udp4ServiceBindingProtocol
ffff8000002007b0 D Ip4Protocol
ffff8000002007c0 D Ip4ServiceBindingProtocol
ffff8000002007d0 D EfiDtbTableGuid
ffff8000002007e0 D SalSystemTableGuid
ffff8000002007f0 D gEfiSmbios3TableGuid
ffff800000200800 D gEfiSmbiosTableGuid
ffff800000200810 D AcpiTableGuid
ffff800000200820 D MpsTableGuid
ffff800000200830 D UnknownDevice
ffff800000200840 D EfiPartTypeLegacyMbrGuid
ffff800000200850 D EfiPartTypeSystemPartitionGuid
ffff800000200860 D gEfiVTUTF8Guid
ffff800000200870 D gEfiVT100PlusGuid
ffff800000200880 D gEfiVT100Guid
ffff800000200890 D gEfiPcAnsiGuid
ffff8000002008a0 D AdapterDebugProtocol
ffff8000002008b0 D gEfiEdidOverrideProtocolGuid
ffff8000002008c0 D gEfiEdidActiveProtocolGuid
ffff8000002008d0 D gEfiEdidDiscoveredProtocolGuid
ffff8000002008e0 D gEfiGraphicsOutputProtocolGuid
ffff8000002008f0 D TextInSpliterProtocol
ffff800000200900 D ErrorOutSpliterProtocol
ffff800000200910 D TextOutSpliterProtocol
ffff800000200920 D VgaClassProtocol
ffff800000200930 D LegacyBootProtocol
ffff800000200940 D VariableStoreProtocol
ffff800000200950 D InternalShellProtocol
ffff800000200960 D gEfiMpServicesProtocolGuid
ffff800000200970 D gEfiFileSystemVolumeLabelInfoIdGuid
ffff800000200980 D gEfiFileSystemInfoGuid
ffff800000200990 D gEfiFileInfoGuid
ffff8000002009a0 D gEfiEbcProtocolGuid
ffff8000002009b0 D gEfiDriverFamilyOverrideProtocolGuid
ffff8000002009c0 D gEfiBusSpecificDriverOverrideProtocolGuid
ffff8000002009d0 D gEfiPlatformDriverOverrideProtocolGuid
ffff8000002009e0 D gEfiHashProtocolGuid
ffff8000002009f0 D gEfiComponentName2ProtocolGuid
ffff800000200a00 D gEfiComponentNameProtocolGuid
ffff800000200a10 D gEfiDriverBindingProtocolGuid
ffff800000200a20 D gEfiPciRootBridgeIoProtocolGuid
ffff800000200a30 D gEfiPciIoProtocolGuid
ffff800000200a40 D gEFiUiInterfaceProtocolGuid
ffff800000200a50 D gEfiNetworkInterfaceIdentifierProtocolGuid
ffff800000200a60 D gEfiPxeBaseCodeCallbackProtocolGuid
ffff800000200a70 D gEfiPxeBaseCodeProtocolGuid
ffff800000200a80 D gEfiSimpleNetworkProtocolGuid
ffff800000200a90 D gEfiSerialIoProtocolGuid
ffff800000200aa0 D gEfiUnicodeCollationProtocolGuid
ffff800000200ab0 D gEfiDeviceIoProtocolGuid
ffff800000200ac0 D gEfiLoadFile2ProtocolGuid
ffff800000200ad0 D gEfiLoadFileProtocolGuid
ffff800000200ae0 D gEfiLoadedImageDevicePathProtocolGuid
ffff800000200af0 D gEfiSimpleFileSystemProtocolGuid
ffff800000200b00 D gEfiDxeServicesTableGuid
ffff800000200b10 D gEfiDiskIo2ProtocolGuid
ffff800000200b20 D gEfiDiskIoProtocolGuid
ffff800000200b30 D gEfiBlockIo2ProtocolGuid
ffff800000200b40 D gEfiBlockIoProtocolGuid
ffff800000200b50 D gEfiSimpleTextOutProtocolGuid
ffff800000200b60 D gEfiSimpleTextInProtocolGuid
ffff800000200b70 D gEfiLoadedImageProtocolGuid
ffff800000200b80 D gEfiDevicePathUtilitiesProtocolGuid
ffff800000200b90 D gEfiDevicePathFromTextProtocolGuid
ffff800000200ba0 D gEfiDevicePathToTextProtocolGuid
ffff800000200bb0 D gEfiDevicePathProtocolGuid
ffff800000200bc0 D gEfiGlobalVariableGuid
ffff800000200bd0 D EndInstanceDevicePath
ffff800000200bd4 D EndDevicePath
ffff800000200bd8 D RootDevicePath
ffff800000200bdc D PoolAllocationType
ffff800000200be0 D UnicodeInterface
ffff800000200c00 D LibStubUnicodeInterface
ffff800000200c40 D DevPathTable
ffff800000200e00 d SAliasId
ffff800000200e10 d SProtId
ffff800000200e20 d SMapId
ffff800000200e30 d SEnvId
ffff800000200e40 d ShellInterfaceProtocol
ffff800000200e60 d KnownGuids
ffff800000201120 D ErrorCodeTable
ffff8000002013c8 d _GLOBAL_OFFSET_TABLE_
ffff800000202000 D _data_end
ffff800000400000 R _rodata_start
ffff800000400000 r _ZL10empty_kurd
ffff800000400008 r _ZN10level_codeL7INVALIDE
ffff800000400009 r _ZN10level_codeL4INFOE
ffff80000040000a r _ZN10level_codeL6NOTICEE
ffff80000040000b r _ZN10level_codeL7WARNINGE
ffff80000040000c r _ZN10level_codeL5ERRORE
ffff80000040000d r _ZN10level_codeL5FATALE
ffff80000040000e r _ZN11module_codeL7INVALIDE
ffff80000040000f r _ZN11module_codeL6MEMORYE
ffff800000400010 r _ZN11module_codeL9SCHEDULERE
ffff800000400011 r _ZN11module_codeL9INTERRUPTE
ffff800000400012 r _ZN11module_codeL8FIRMWAREE
ffff800000400013 r _ZN11module_codeL3VFSE
ffff800000400014 r _ZN11module_codeL3VMME
ffff800000400015 r _ZN11module_codeL5INFRAE
ffff800000400016 r _ZN11module_codeL6DEVICEE
ffff800000400017 r _ZN11module_codeL12DEVICES_COREE
ffff800000400018 r _ZN11module_codeL14HARDWARE_DEBUGE
ffff800000400019 r _ZN11module_codeL15USER_KERNEL_ABIE
ffff80000040001a r _ZN11module_codeL4TIMEE
ffff80000040001b r _ZN11module_codeL5PANICE
ffff80000040001c r _ZN11result_codeL7SUCCESSE
ffff80000040001e r _ZN11result_codeL23SUCCESS_BUT_SIDE_EFFECTE
ffff800000400020 r _ZN11result_codeL15PARTIAL_SUCCESSE
ffff800000400022 r _ZN11result_codeL4FAILE
ffff800000400024 r _ZN11result_codeL5RETRYE
ffff800000400026 r _ZN11result_codeL5FATALE
ffff800000400028 r _ZN10err_domainL7INVALIDE
ffff800000400029 r _ZN10err_domainL11CORE_MODULEE
ffff80000040002a r _ZN10err_domainL4ARCHE
ffff80000040002b r _ZN10err_domainL4USERE
ffff80000040002c r _ZN10err_domainL10HYPERVISORE
ffff80000040002d r _ZN10err_domainL11OUT_MODULESE
ffff80000040002e r _ZN10err_domainL11FILE_SYSTEME
ffff80000040002f r _ZN10err_domainL8HARDWAREE
ffff800000400030 r _ZL6LOCKED
ffff800000400031 r _ZL8UNLOCKED
ffff800000400038 r _ZL10PAGE_DIRTY
ffff800000400040 r _ZL11PAGE_LOCKED
ffff800000400048 r _ZL14PAGE_WRITEBACK
ffff800000400050 r _ZL13PAGE_UPTODATE
ffff800000400058 r _ZL13PAGE_SWAPPING
ffff800000400060 r _ZL15PAGE_REFERENCED
ffff800000400068 r _ZL11PAGE_ACTIVE
ffff800000400070 r _ZL12PAGE_RECLAIM
ffff800000400078 r _ZL25MAX_PHYADDR_1GB_PGS_COUNT
ffff800000400080 r _ZL18DEFAULT_PAT_CONFIG
ffff800000400088 r _ZL16KSPACE_RW_ACCESS
ffff80000040008a r _ZL17KSPACE_RWX_ACCESS
ffff80000040008c r _ZL19KSPACE_RW_UC_ACCESS
ffff80000040008e r _ZL16KSPACE_RX_ACCESS
ffff800000400090 r _ZL15KSPACE_R_ACCESS
ffff800000400092 r _ZL20KSPACE_RWX_NG_ACCESS
ffff800000400094 r _ZL19KSPACE_RW_WC_ACCESS
ffff800000400096 r _ZL13default_flags
ffff8000004000a0 r _ZL24BUDDY_ALLOC_DEFAULT_FLAG
ffff8000004000b0 r _ZL22BUDDY_ALLOC_ALWAYS_TRY
ffff8000004000c0 r _ZL20BUDDY_ALLOC_DOWN_4GB
ffff8000004000d0 r _ZL33PASS_THROUGH_DEVICE_GRAPHICS_INFO
ffff8000004000d4 r _ZL32VM_ID_architecture_agnostic_base
ffff8000004000d8 r _ZL20VM_ID_BSP_INIT_STACK
ffff8000004000e0 r _ZL19BSP_INIT_STACK_SIZE
ffff8000004000e8 r _ZL25BSP_INIT_STACK_ALIGN_LOG2
ffff8000004000ec r _ZL16VM_ID_FIRST_HEAP
ffff8000004000f0 r _ZL21FIRST_HEAP_SIZE_CONST
ffff8000004000f8 r _ZL21FIRST_HEAP_ALIGN_LOG2
ffff8000004000fc r _ZL23VM_ID_FIRST_HEAP_BITMAP
ffff800000400100 r _ZL22FIRST_HEAP_BITMAP_SIZE
ffff800000400108 r _ZL28FIRST_HEAP_BITMAP_ALIGN_LOG2
ffff80000040010c r _ZL15VM_ID_LOGBUFFER
ffff800000400110 r _ZL14LOGBUFFER_SIZE
ffff800000400118 r _ZL20LOGBUFFER_ALIGN_LOG2
ffff80000040011c r _ZL14VM_ID_KSYMBOLS
ffff800000400120 r _ZL13VM_ID_MEM_MAP
ffff800000400124 r _ZL18VM_ID_BCBS_BITMAPS
ffff800000400128 r _ZL18MEM_MAP_ALIGN_LOG2
ffff80000040012c r _ZL20VM_ID_UP_KSPACE_PDPT
ffff800000400130 r _ZL20VM_ID_GRAPHIC_BUFFER
ffff800000400138 r _ZL19UP_KSPACE_PDPT_SIZE
ffff800000400140 r _ZL25UP_KSPACE_PDPT_ALIGN_LOG2
ffff800000400144 r _ZL15VM_ID_HPET_MMIO
ffff8000004001e0 r _ZL6LOCKED
ffff8000004001e1 r _ZL8UNLOCKED
ffff8000004001e8 r _ZL10empty_kurd
ffff8000004001f0 r _ZN10level_codeL7INVALIDE
ffff8000004001f1 r _ZN10level_codeL4INFOE
ffff8000004001f2 r _ZN10level_codeL6NOTICEE
ffff8000004001f3 r _ZN10level_codeL7WARNINGE
ffff8000004001f4 r _ZN10level_codeL5ERRORE
ffff8000004001f5 r _ZN10level_codeL5FATALE
ffff8000004001f6 r _ZN11module_codeL7INVALIDE
ffff8000004001f7 r _ZN11module_codeL6MEMORYE
ffff8000004001f8 r _ZN11module_codeL9SCHEDULERE
ffff8000004001f9 r _ZN11module_codeL9INTERRUPTE
ffff8000004001fa r _ZN11module_codeL8FIRMWAREE
ffff8000004001fb r _ZN11module_codeL3VFSE
ffff8000004001fc r _ZN11module_codeL3VMME
ffff8000004001fd r _ZN11module_codeL5INFRAE
ffff8000004001fe r _ZN11module_codeL6DEVICEE
ffff8000004001ff r _ZN11module_codeL12DEVICES_COREE
ffff800000400200 r _ZN11module_codeL14HARDWARE_DEBUGE
ffff800000400201 r _ZN11module_codeL15USER_KERNEL_ABIE
ffff800000400202 r _ZN11module_codeL4TIMEE
ffff800000400203 r _ZN11module_codeL5PANICE
ffff800000400204 r _ZN11result_codeL7SUCCESSE
ffff800000400206 r _ZN11result_codeL23SUCCESS_BUT_SIDE_EFFECTE
ffff800000400208 r _ZN11result_codeL15PARTIAL_SUCCESSE
ffff80000040020a r _ZN11result_codeL4FAILE
ffff80000040020c r _ZN11result_codeL5RETRYE
ffff80000040020e r _ZN11result_codeL5FATALE
ffff800000400210 r _ZN10err_domainL7INVALIDE
ffff800000400211 r _ZN10err_domainL11CORE_MODULEE
ffff800000400212 r _ZN10err_domainL4ARCHE
ffff800000400213 r _ZN10err_domainL4USERE
ffff800000400214 r _ZN10err_domainL10HYPERVISORE
ffff800000400215 r _ZN10err_domainL11OUT_MODULESE
ffff800000400216 r _ZN10err_domainL11FILE_SYSTEME
ffff800000400217 r _ZN10err_domainL8HARDWAREE
ffff800000400218 r _ZN18MEMMODULE_LOCAIONSL7INVALIDE
ffff800000400219 r _ZN18MEMMODULE_LOCAIONSL25LOCATION_CODE_BASE_MEMMGRE
ffff80000040021a r _ZN18MEMMODULE_LOCAIONSL29LOCATION_CODE_PHYMEM_ACCESSORE
ffff80000040021b r _ZN18MEMMODULE_LOCAIONSL28LOCATION_CODE_KSPACE_MAP_MGRE
ffff80000040021c r _ZN18MEMMODULE_LOCAIONSL25LOCATION_CODE_ADDRESSPACEE
ffff80000040021d r _ZN18MEMMODULE_LOCAIONSL26LOCATION_CODE_OUT_SURFACESE
ffff800000400220 r _ZL10PAGE_DIRTY
ffff800000400228 r _ZL11PAGE_LOCKED
ffff800000400230 r _ZL14PAGE_WRITEBACK
ffff800000400238 r _ZL13PAGE_UPTODATE
ffff800000400240 r _ZL13PAGE_SWAPPING
ffff800000400248 r _ZL15PAGE_REFERENCED
ffff800000400250 r _ZL11PAGE_ACTIVE
ffff800000400258 r _ZL12PAGE_RECLAIM
ffff800000400260 r _ZL25MAX_PHYADDR_1GB_PGS_COUNT
ffff800000400268 r _ZL18DEFAULT_PAT_CONFIG
ffff800000400270 r _ZL16KSPACE_RW_ACCESS
ffff800000400272 r _ZL17KSPACE_RWX_ACCESS
ffff800000400274 r _ZL19KSPACE_RW_UC_ACCESS
ffff800000400276 r _ZL16KSPACE_RX_ACCESS
ffff800000400278 r _ZL15KSPACE_R_ACCESS
ffff80000040027a r _ZL20KSPACE_RWX_NG_ACCESS
ffff80000040027c r _ZL19KSPACE_RW_WC_ACCESS
ffff80000040027e r _ZL13default_flags
ffff800000400280 r _ZL24BUDDY_ALLOC_DEFAULT_FLAG
ffff800000400290 r _ZL22BUDDY_ALLOC_ALWAYS_TRY
ffff8000004002a0 r _ZL20BUDDY_ALLOC_DOWN_4GB
ffff8000004002b0 r _ZL33PASS_THROUGH_DEVICE_GRAPHICS_INFO
ffff8000004002b4 r _ZL32VM_ID_architecture_agnostic_base
ffff8000004002b8 r _ZL20VM_ID_BSP_INIT_STACK
ffff8000004002c0 r _ZL19BSP_INIT_STACK_SIZE
ffff8000004002c8 r _ZL25BSP_INIT_STACK_ALIGN_LOG2
ffff8000004002cc r _ZL16VM_ID_FIRST_HEAP
ffff8000004002d0 r _ZL21FIRST_HEAP_SIZE_CONST
ffff8000004002d8 r _ZL21FIRST_HEAP_ALIGN_LOG2
ffff8000004002dc r _ZL23VM_ID_FIRST_HEAP_BITMAP
ffff8000004002e0 r _ZL22FIRST_HEAP_BITMAP_SIZE
ffff8000004002e8 r _ZL28FIRST_HEAP_BITMAP_ALIGN_LOG2
ffff8000004002ec r _ZL15VM_ID_LOGBUFFER
ffff8000004002f0 r _ZL14LOGBUFFER_SIZE
ffff8000004002f8 r _ZL20LOGBUFFER_ALIGN_LOG2
ffff8000004002fc r _ZL14VM_ID_KSYMBOLS
ffff800000400300 r _ZL13VM_ID_MEM_MAP
ffff800000400304 r _ZL18VM_ID_BCBS_BITMAPS
ffff800000400308 r _ZL18MEM_MAP_ALIGN_LOG2
ffff80000040030c r _ZL20VM_ID_UP_KSPACE_PDPT
ffff800000400310 r _ZL20VM_ID_GRAPHIC_BUFFER
ffff800000400318 r _ZL19UP_KSPACE_PDPT_SIZE
ffff800000400320 r _ZL25UP_KSPACE_PDPT_ALIGN_LOG2
ffff800000400324 r _ZL15VM_ID_HPET_MMIO
ffff800000400328 r _ZN18MEMMODULE_LOCAIONSL25LOCATION_CODE_KPOOLMEMMGRE
ffff800000400329 r _ZN18MEMMODULE_LOCAIONS18KPOOLMEMMGR_EVENTSL15EVENT_CODE_INITE
ffff80000040032a r _ZN18MEMMODULE_LOCAIONS18KPOOLMEMMGR_EVENTSL16EVENT_CODE_ALLOCE
ffff80000040032c r _ZN18MEMMODULE_LOCAIONS18KPOOLMEMMGR_EVENTS13ALLOC_RESULTS11FAIL_RESONSL28REASON_CODE_NO_AVALIABLE_MEME
ffff80000040032e r _ZN18MEMMODULE_LOCAIONS18KPOOLMEMMGR_EVENTS13ALLOC_RESULTS11FAIL_RESONSL24REASON_CODE_SIZE_IS_ZEROE
ffff800000400330 r _ZN18MEMMODULE_LOCAIONS18KPOOLMEMMGR_EVENTSL18EVENT_CODE_REALLOCE
ffff800000400332 r _ZN18MEMMODULE_LOCAIONS18KPOOLMEMMGR_EVENTS15REALLOC_RESULTS11FAIL_RESONSL31REASON_CODE_DEMAND_SIZE_IS_ZEROE
ffff800000400334 r _ZN18MEMMODULE_LOCAIONS18KPOOLMEMMGR_EVENTS15REALLOC_RESULTS11FAIL_RESONSL31REASON_CODE_PTR_NOT_IN_ANY_HEAPE
ffff800000400336 r _ZN18MEMMODULE_LOCAIONS18KPOOLMEMMGR_EVENTS15REALLOC_RESULTS11FAIL_RESONSL28REASON_CODE_NO_AVALIABLE_MEME
ffff800000400338 r _ZN18MEMMODULE_LOCAIONS18KPOOLMEMMGR_EVENTSL34EVENT_CODE_PER_PROCESSOR_HEAP_INITE
ffff80000040033a r _ZN18MEMMODULE_LOCAIONS18KPOOLMEMMGR_EVENTS31PER_PROCESSOR_HEAP_INIT_RESULTS11FAIL_RESONSL27REASON_CODE_ALREADY_ENABLEDE
ffff80000040033c r _ZN18MEMMODULE_LOCAIONS18KPOOLMEMMGR_EVENTS31PER_PROCESSOR_HEAP_INIT_RESULTS11FAIL_RESONSL31REASON_CODE_BAD_PROCESSOR_COUNTE
ffff80000040033e r _ZN18MEMMODULE_LOCAIONS18KPOOLMEMMGR_EVENTS31PER_PROCESSOR_HEAP_INIT_RESULTS11FAIL_RESONSL26REASON_CODE_NO_VADDR_SPACEE
ffff800000400340 r _ZN18MEMMODULE_LOCAIONS18KPOOLMEMMGR_EVENTS31PER_PROCESSOR_HEAP_INIT_RESULTS11FAIL_RESONSL23REASON_CODE_VM_ADD_FAILE
ffff800000400342 r _ZN18MEMMODULE_LOCAIONS18KPOOLMEMMGR_EVENTS31PER_PROCESSOR_HEAP_INIT_RESULTS11FAIL_RESONSL28REASON_CODE_IDX_OUT_OF_RANGEE
ffff800000400344 r _ZN18MEMMODULE_LOCAIONS18KPOOLMEMMGR_EVENTS31PER_PROCESSOR_HEAP_INIT_RESULTS11FAIL_RESONSL31REASON_CODE_HEAP_ALREADY_EXISTSE
ffff800000400346 r _ZN18MEMMODULE_LOCAIONS18KPOOLMEMMGR_EVENTS31PER_PROCESSOR_HEAP_INIT_RESULTS11FAIL_RESONSL26REASON_CODE_HEAP_NOT_EXISTE
ffff800000400348 r _ZN18MEMMODULE_LOCAIONSL32LOCATION_CODE_KPOOLMEMMGR_HCB_V3E
ffff800000400349 r _ZN18MEMMODULE_LOCAIONS25KPOOLMEMMGR_HCB_V3_EVENTSL17EVENT_CODE_ONLINEE
ffff80000040034a r _ZN18MEMMODULE_LOCAIONS25KPOOLMEMMGR_HCB_V3_EVENTSL18EVENT_CODE_OFFLINEE
ffff80000040034b r _ZN18MEMMODULE_LOCAIONS25KPOOLMEMMGR_HCB_V3_EVENTSL16EVENT_CODE_ALLOCE
ffff80000040034c r _ZN18MEMMODULE_LOCAIONS25KPOOLMEMMGR_HCB_V3_EVENTSL15EVENT_CODE_FREEE
ffff80000040034d r _ZN18MEMMODULE_LOCAIONS25KPOOLMEMMGR_HCB_V3_EVENTSL18EVENT_CODE_REALLOCE
ffff80000040034e r _ZN18MEMMODULE_LOCAIONS25KPOOLMEMMGR_HCB_V3_EVENTSL25EVENT_CODE_INTERNAL_ALLOCE
ffff80000040034f r _ZN18MEMMODULE_LOCAIONS25KPOOLMEMMGR_HCB_V3_EVENTSL24EVENT_CODE_INTERNAL_FREEE
ffff800000400350 r _ZN18MEMMODULE_LOCAIONS25KPOOLMEMMGR_HCB_V3_EVENTSL16EVENT_CODE_CLEARE
ffff800000400352 r _ZN18MEMMODULE_LOCAIONS25KPOOLMEMMGR_HCB_V3_EVENTS19COMMON_FAIL_REASONSL20REASON_CODE_BAD_ADDRE
ffff800000400354 r _ZN18MEMMODULE_LOCAIONS25KPOOLMEMMGR_HCB_V3_EVENTS19COMMON_FAIL_REASONSL30REASON_CODE_ADDR_NOT_THIS_HEAPE
ffff800000400356 r _ZN18MEMMODULE_LOCAIONS25KPOOLMEMMGR_HCB_V3_EVENTS20COMMON_FATAL_REASONSL30REASON_CODE_METADATA_DESTROYEDE
ffff800000400358 r _ZN18MEMMODULE_LOCAIONS25KPOOLMEMMGR_HCB_V3_EVENTS22INTERNAL_ALLOC_RESULTS11FAIL_RESONSL30REASON_CODE_NO_AVALIABLE_BUDDYE
ffff80000040035a r _ZN18MEMMODULE_LOCAIONS25KPOOLMEMMGR_HCB_V3_EVENTS13ALLOC_RESULTS12FAIL_REASONSL24REASON_CODE_SIZE_IS_ZEROE
ffff80000040035c r _ZN18MEMMODULE_LOCAIONS25KPOOLMEMMGR_HCB_V3_EVENTS13ALLOC_RESULTS12FAIL_REASONSL26REASON_CODE_SIZE_TOO_LARGEE
ffff80000040035e r _ZN18MEMMODULE_LOCAIONS25KPOOLMEMMGR_HCB_V3_EVENTS12FREE_RESULTS13FATAL_REASONSL18DOUBLE_FREE_DETECTE
ffff800000400360 r _ZN18MEMMODULE_LOCAIONS25KPOOLMEMMGR_HCB_V3_EVENTS12FREE_RESULTS13FATAL_REASONSL22MERGE_BUT_ALREADY_FREEE
ffff800000400368 r _ZL14HCB_evict_span
ffff800000400370 r _ZL23HCB_evictor_sleep_cycle
ffff800000400378 r _ZN14INFR_LOCATIONSL6KSHELLE
ffff80000040037a r _ZN14INFR_LOCATIONS13KSHELL_EVENTS19COMMON_FAIL_REASONSL21SHELL_NOT_INITIALIZEDE
ffff80000040037c r _ZN14INFR_LOCATIONS13KSHELL_EVENTS19COMMON_FAIL_REASONSL17INVALID_PARAMETERE
ffff80000040037e r _ZN14INFR_LOCATIONS13KSHELL_EVENTS19COMMON_FAIL_REASONSL9NOT_FOUNDE
ffff800000400380 r _ZN14INFR_LOCATIONS13KSHELL_EVENTSL12COMMAND_INITE
ffff800000400381 r _ZN14INFR_LOCATIONS13KSHELL_EVENTSL16COMMAND_REGISTERE
ffff800000400382 r _ZN14INFR_LOCATIONS13KSHELL_EVENTS24COMMAND_REGISTER_RESULTS12FAIL_REASONSL18INSERT_RBTREE_FAILE
ffff800000400384 r _ZN14INFR_LOCATIONS13KSHELL_EVENTSL18COMMAND_UNREGISTERE
ffff800000400385 r _ZN14INFR_LOCATIONS13KSHELL_EVENTSL15COMMAND_EXECUTEE
ffff800000400386 r _ZN14INFR_LOCATIONS13KSHELL_EVENTSL12COMMAND_FINDE
ffff800000400387 r _ZN14INFR_LOCATIONS13KSHELL_EVENTSL13COMMAND_PARSEE
ffff800000400388 r _ZN14INFR_LOCATIONS13KSHELL_EVENTSL12COMMAND_HELPE
ffff800000400389 r _ZN14INFR_LOCATIONS13KSHELL_EVENTSL10SHELL_LOOPE
ffff800000400390 r _ZN4NVMeL17entry_block_tokenE
ffff800000400398 r _ZN4NVMe6statusL21SUCCESSFUL_COMPLETIONE
ffff80000040039a r _ZN4NVMe6statusL22INVALID_COMMAND_OPCODEE
ffff80000040039c r _ZN4NVMe6statusL24INVALID_FIELD_IN_COMMANDE
ffff80000040039e r _ZN4NVMe6statusL19COMMAND_ID_CONFLICTE
ffff8000004003a0 r _ZN4NVMe6statusL19DATA_TRANSFER_ERRORE
ffff8000004003a2 r _ZN4NVMe6statusL47COMMANDS_ABORTED_DUE_TO_POWER_LOSS_NOTIFICATIONE
ffff8000004003a4 r _ZN4NVMe6statusL14INTERNAL_ERRORE
ffff8000004003a6 r _ZN4NVMe6statusL23COMMAND_ABORT_REQUESTEDE
ffff8000004003a8 r _ZN4NVMe6statusL34COMMAND_ABORTED_DUE_TO_SQ_DELETIONE
ffff8000004003aa r _ZN4NVMe6statusL43COMMAND_ABORTED_DUE_TO_FAILED_FUSED_COMMANDE
ffff8000004003ac r _ZN4NVMe6statusL44COMMAND_ABORTED_DUE_TO_MISSING_FUSED_COMMANDE
ffff8000004003ae r _ZN4NVMe6statusL27INVALID_NAMESPACE_OR_FORMATE
ffff8000004003b0 r _ZN4NVMe6statusL22COMMAND_SEQUENCE_ERRORE
ffff8000004003b2 r _ZN4NVMe6statusL30INVALID_SGL_SEGMENT_DESCRIPTORE
ffff8000004003b4 r _ZN4NVMe6statusL33INVALID_NUMBER_OF_SGL_DESCRIPTORSE
ffff8000004003b6 r _ZN4NVMe6statusL23DATA_SGL_LENGTH_INVALIDE
ffff8000004003b8 r _ZN4NVMe6statusL27METADATA_SGL_LENGTH_INVALIDE
ffff8000004003ba r _ZN4NVMe6statusL27SGL_DESCRIPTOR_TYPE_INVALIDE
ffff8000004003bc r _ZN4NVMe6statusL39INVALID_USE_OF_CONTROLLER_MEMORY_BUFFERE
ffff8000004003be r _ZN4NVMe6statusL18PRP_OFFSET_INVALIDE
ffff8000004003c0 r _ZN4NVMe6statusL26ATOMIC_WRITE_UNIT_EXCEEDEDE
ffff8000004003c2 r _ZN4NVMe6statusL16OPERATION_DENIEDE
ffff8000004003c4 r _ZN4NVMe6statusL18SGL_OFFSET_INVALIDE
ffff8000004003c6 r _ZN4NVMe6statusL35HOST_IDENTIFIER_INCONSISTENT_FORMATE
ffff8000004003c8 r _ZN4NVMe6statusL24KEEP_ALIVE_TIMER_EXPIREDE
ffff8000004003ca r _ZN4NVMe6statusL26KEEP_ALIVE_TIMEOUT_INVALIDE
ffff8000004003cc r _ZN4NVMe6statusL40COMMAND_ABORTED_DUE_TO_PREEMPT_AND_ABORTE
ffff8000004003ce r _ZN4NVMe6statusL15SANITIZE_FAILEDE
ffff8000004003d0 r _ZN4NVMe6statusL20SANITIZE_IN_PROGRESSE
ffff8000004003d2 r _ZN4NVMe6statusL34SGL_DATA_BLOCK_GRANULARITY_INVALIDE
ffff8000004003d4 r _ZN4NVMe6statusL38COMMAND_NOT_SUPPORTED_FOR_QUEUE_IN_CMBE
ffff8000004003d6 r _ZN4NVMe6statusL28NAMESPACE_IS_WRITE_PROTECTEDE
ffff8000004003d8 r _ZN4NVMe6statusL19COMMAND_INTERRUPTEDE
ffff8000004003da r _ZN4NVMe6statusL25TRANSIENT_TRANSPORT_ERRORE
ffff8000004003dc r _ZN4NVMe6statusL50COMMAND_PROHIBITED_BY_COMMAND_AND_FEATURE_LOCKDOWNE
ffff8000004003de r _ZN4NVMe6statusL29ADMIN_COMMAND_MEDIA_NOT_READYE
ffff8000004003e0 r _ZN4NVMe6statusL15INVALID_KEY_TAGE
ffff8000004003e2 r _ZN4NVMe6statusL44HOST_DISPERSED_NAMESPACE_SUPPORT_NOT_ENABLEDE
ffff8000004003e4 r _ZN4NVMe6statusL31HOST_IDENTIFIER_NOT_INITIALIZEDE
ffff8000004003e6 r _ZN4NVMe6statusL13INCORRECT_KEYE
ffff8000004003e8 r _ZN4NVMe6statusL12FDP_DISABLEDE
ffff8000004003ea r _ZN4NVMe6statusL29INVALID_PLACEMENT_HANDLE_LISTE
ffff8000004003ec r _ZN4NVMe6statusL16LBA_OUT_OF_RANGEE
ffff8000004003ee r _ZN4NVMe6statusL17CAPACITY_EXCEEDEDE
ffff8000004003f0 r _ZN4NVMe6statusL19NAMESPACE_NOT_READYE
ffff8000004003f2 r _ZN4NVMe6statusL20RESERVATION_CONFLICTE
ffff8000004003f4 r _ZN4NVMe6statusL18FORMAT_IN_PROGRESSE
ffff8000004003f6 r _ZN4NVMe6statusL18INVALID_VALUE_SIZEE
ffff8000004003f8 r _ZN4NVMe6statusL16INVALID_KEY_SIZEE
ffff8000004003fa r _ZN4NVMe7command12admin_opcodeL26DELETE_IO_SUBMISSION_QUEUEE
ffff8000004003fb r _ZN4NVMe7command12admin_opcodeL26CREATE_IO_SUBMISSION_QUEUEE
ffff8000004003fc r _ZN4NVMe7command12admin_opcodeL12GET_LOG_PAGEE
ffff8000004003fd r _ZN4NVMe7command12admin_opcodeL26DELETE_IO_COMPLETION_QUEUEE
ffff8000004003fe r _ZN4NVMe7command12admin_opcodeL26CREATE_IO_COMPLETION_QUEUEE
ffff8000004003ff r _ZN4NVMe7command12admin_opcodeL8IDENTIFYE
ffff800000400400 r _ZN4NVMe7command12admin_opcodeL5ABORTE
ffff800000400401 r _ZN4NVMe7command12admin_opcodeL12SET_FEATURESE
ffff800000400402 r _ZN4NVMe7command12admin_opcodeL12GET_FEATURESE
ffff800000400403 r _ZN4NVMe7command12admin_opcodeL26ASYNCHRONOUS_EVENT_REQUESTE
ffff800000400404 r _ZN4NVMe7command12admin_opcodeL20NAMESPACE_MANAGEMENTE
ffff800000400405 r _ZN4NVMe7command12admin_opcodeL15FIRMWARE_COMMITE
ffff800000400406 r _ZN4NVMe7command12admin_opcodeL23FIRMWARE_IMAGE_DOWNLOADE
ffff800000400407 r _ZN4NVMe7command12admin_opcodeL16DEVICE_SELF_TESTE
ffff800000400408 r _ZN4NVMe7command12admin_opcodeL20NAMESPACE_ATTACHMENTE
ffff800000400409 r _ZN4NVMe7command12admin_opcodeL10KEEP_ALIVEE
ffff80000040040a r _ZN4NVMe7command12admin_opcodeL14DIRECTIVE_SENDE
ffff80000040040b r _ZN4NVMe7command12admin_opcodeL17DIRECTIVE_RECEIVEE
ffff80000040040c r _ZN4NVMe7command12admin_opcodeL25VIRTUALIZATION_MANAGEMENTE
ffff80000040040d r _ZN4NVMe7command12admin_opcodeL12NVME_MI_SENDE
ffff80000040040e r _ZN4NVMe7command12admin_opcodeL15NVME_MI_RECEIVEE
ffff80000040040f r _ZN4NVMe7command12admin_opcodeL19CAPACITY_MANAGEMENTE
ffff800000400410 r _ZN4NVMe7command12admin_opcodeL32DISCOVERY_INFORMATION_MANAGEMENTE
ffff800000400411 r _ZN4NVMe7command12admin_opcodeL21FABRIC_ZONING_RECEIVEE
ffff800000400412 r _ZN4NVMe7command12admin_opcodeL8LOCKDOWNE
ffff800000400413 r _ZN4NVMe7command12admin_opcodeL20FABRIC_ZONING_LOOKUPE
ffff800000400414 r _ZN4NVMe7command12admin_opcodeL34CLEAR_EXPORTED_NVM_RESOURCE_CONFIGE
ffff800000400415 r _ZN4NVMe7command12admin_opcodeL18FABRIC_ZONING_SENDE
ffff800000400416 r _ZN4NVMe7command12admin_opcodeL29CREATE_EXPORTED_NVM_SUBSYSTEME
ffff800000400417 r _ZN4NVMe7command12admin_opcodeL29MANAGE_EXPORTED_NVM_SUBSYSTEME
ffff800000400418 r _ZN4NVMe7command12admin_opcodeL25MANAGE_EXPORTED_NAMESPACEE
ffff800000400419 r _ZN4NVMe7command12admin_opcodeL20MANAGE_EXPORTED_PORTE
ffff80000040041a r _ZN4NVMe7command12admin_opcodeL23SEND_DISCOVERY_LOG_PAGEE
ffff80000040041b r _ZN4NVMe7command12admin_opcodeL10TRACK_SENDE
ffff80000040041c r _ZN4NVMe7command12admin_opcodeL14MIGRATION_SENDE
ffff80000040041d r _ZN4NVMe7command12admin_opcodeL17MIGRATION_RECEIVEE
ffff80000040041e r _ZN4NVMe7command12admin_opcodeL21CONTROLLER_DATA_QUEUEE
ffff80000040041f r _ZN4NVMe7command12admin_opcodeL22DOORBELL_BUFFER_CONFIGE
ffff800000400420 r _ZN4NVMe7command12admin_opcodeL16FABRICS_COMMANDSE
ffff800000400421 r _ZN4NVMe7command12admin_opcodeL10FORMAT_NVME
ffff800000400422 r _ZN4NVMe7command12admin_opcodeL13SECURITY_SENDE
ffff800000400423 r _ZN4NVMe7command12admin_opcodeL16SECURITY_RECEIVEE
ffff800000400424 r _ZN4NVMe7command12admin_opcodeL8SANITIZEE
ffff800000400425 r _ZN4NVMe7command12admin_opcodeL12LOAD_PROGRAME
ffff800000400426 r _ZN4NVMe7command12admin_opcodeL14GET_LBA_STATUSE
ffff800000400427 r _ZN4NVMe7command12admin_opcodeL29PROGRAM_ACTIVATION_MANAGEMENTE
ffff800000400428 r _ZN4NVMe7command12admin_opcodeL27MEMORY_RANGE_SET_MANAGEMENTE
ffff800000400429 r _ZN4NVMe7command12admin_opcodeL20VENDOR_SPECIFIC_BASEE
ffff80000040042a r _ZN4NVMe7command9io_opcodeL5FLUSHE
ffff80000040042b r _ZN4NVMe7command9io_opcodeL5WRITEE
ffff80000040042c r _ZN4NVMe7command9io_opcodeL4READE
ffff80000040042d r _ZN4NVMe7command9io_opcodeL19WRITE_UNCORRECTABLEE
ffff80000040042e r _ZN4NVMe7command9io_opcodeL7COMPAREE
ffff80000040042f r _ZN4NVMe7command9io_opcodeL12WRITE_ZEROESE
ffff800000400430 r _ZN4NVMe7command9io_opcodeL18DATASET_MANAGEMENTE
ffff800000400431 r _ZN4NVMe7command9io_opcodeL6VERIFYE
ffff800000400432 r _ZN4NVMe7command9io_opcodeL20RESERVATION_REGISTERE
ffff800000400433 r _ZN4NVMe7command9io_opcodeL18RESERVATION_REPORTE
ffff800000400434 r _ZN4NVMe7command9io_opcodeL19RESERVATION_ACQUIREE
ffff800000400435 r _ZN4NVMe7command9io_opcodeL19RESERVATION_RELEASEE
ffff800000400436 r _ZN4NVMe7command9io_opcodeL21IO_MANAGEMENT_RECEIVEE
ffff800000400437 r _ZN4NVMe7command9io_opcodeL6CANCELE
ffff800000400438 r _ZN4NVMe7command9io_opcodeL4COPYE
ffff800000400439 r _ZN4NVMe7command9io_opcodeL15FABRIC_COMMANDSE
ffff80000040043a r _ZN4NVMe7command9io_opcodeL20VENDOR_SPECIFIC_BASEE
ffff80000040043b r _ZN4NVMe7command9io_opcodeL11DIR_NO_DATAE
ffff80000040043c r _ZN4NVMe7command9io_opcodeL16DIR_HOST_TO_CTRLE
ffff80000040043d r _ZN4NVMe7command9io_opcodeL16DIR_CTRL_TO_HOSTE
ffff80000040043e r _ZN4NVMe7command9io_opcodeL17DIR_BIDIRECTIONALE
ffff80000040043f r _ZN12DEVICES_locsL4NVMeE
ffff800000400440 r _ZN12DEVICES_locs11NVMe_eventsL4InitE
ffff800000400442 r _ZN12DEVICES_locs11NVMe_events12init_results12fail_reasonsL12already_initE
ffff800000400444 r _ZN12DEVICES_locs11NVMe_events12init_results12fail_reasonsL20ctrl_disable_timeoutE
ffff800000400446 r _ZN12DEVICES_locs11NVMe_events12init_results12fail_reasonsL19ctrl_enable_timeoutE
ffff800000400448 r _ZN12DEVICES_locs11NVMe_events12init_results12fail_reasonsL18identify_ctrl_failE
ffff80000040044a r _ZN12DEVICES_locs11NVMe_eventsL14submit_commandE
ffff80000040044c r _ZN12DEVICES_locs11NVMe_events22submit_command_results12fail_resultsL37tail_increas_fail_dueto_unrelased_cmdE
ffff80000040044e r _ZN12DEVICES_locs11NVMe_eventsL4ReadE
ffff80000040044f r _ZN12DEVICES_locs11NVMe_eventsL5WriteE
ffff800000400450 r _ZN12DEVICES_locs11NVMe_eventsL5flushE
ffff800000400451 r _ZN12DEVICES_locs11NVMe_eventsL7discardE
ffff800000400452 r _ZN12DEVICES_locs11NVMe_eventsL2wzE
ffff800000400453 r _ZN12DEVICES_locs11NVMe_eventsL3cmpE
ffff800000400454 r _ZN12DEVICES_locs11NVMe_eventsL8pre_initE
ffff800000400456 r _ZN12DEVICES_locs11NVMe_events16pre_init_results12fail_reasonsL15this_is_nullptrE
ffff800000400458 r _ZN12DEVICES_locs11NVMe_events16pre_init_results12fail_reasonsL13dev_not_foundE
ffff80000040045a r _ZN12DEVICES_locs11NVMe_events16pre_init_results12fail_reasonsL10bar0_is_ioE
ffff80000040045c r _ZN12DEVICES_locs11NVMe_eventsL14msix_vec_allocE
ffff80000040045e r _ZN12DEVICES_locs11NVMe_events22msix_vec_alloc_results12fail_reasonsL18param_out_of_rangeE
ffff800000400460 r _ZN12DEVICES_locs11NVMe_eventsL16msix_vec_deallocE
ffff800000400462 r _ZN12DEVICES_locs11NVMe_events24msix_vec_dealloc_results12fail_reasonsL19processor_not_foundE
ffff800000400464 r _ZN12DEVICES_locs11NVMe_eventsL12set_featuresE
ffff800000400466 r _ZN12DEVICES_locs11NVMe_events20set_features_results12fail_reasonsL19nvme_status_nonzeroE
ffff800000400468 r _ZN12DEVICES_locs11NVMe_eventsL13io_queue_mgmtE
ffff80000040046a r _ZN12DEVICES_locs11NVMe_events21io_queue_mgmt_results12fail_reasonsL19nvme_status_nonzeroE
ffff80000040046c r _ZN12DEVICES_locs11NVMe_eventsL7OfflineE
ffff80000040046d r _ZN14aer_event_typeL12ERROR_STATUSE
ffff80000040046e r _ZN14aer_event_typeL12SMART_HEALTHE
ffff80000040046f r _ZN14aer_event_typeL6NOTICEE
ffff800000400470 r _ZN14aer_event_typeL15IO_CMD_SPECIFICE
ffff800000400471 r _ZN14aer_event_typeL8ONE_SHOTE
ffff800000400472 r _ZN14aer_event_type10error_infoL11WRITE_FAULTE
ffff800000400473 r _ZN14aer_event_type10error_infoL10READ_FAULTE
ffff800000400474 r _ZN14aer_event_type10error_infoL32UNRECOVERED_DATA_INTEGRITY_ERRORE
ffff800000400475 r _ZN14aer_event_type10error_infoL35PERSISTENT_MEDIA_REGION_WRITE_FAULTE
ffff800000400476 r _ZN14aer_event_type10error_infoL34PERSISTENT_MEDIA_REGION_READ_FAULTE
ffff800000400477 r _ZN14aer_event_type10error_infoL24INVALID_DATA_SGL_SEGMENTE
ffff800000400478 r _ZN14aer_event_type10error_infoL23MEMORY_SPACE_EXCEEDANCEE
ffff800000400479 r _ZN14aer_event_type10error_infoL16LBA_OUT_OF_RANGEE
ffff80000040047a r _ZN14aer_event_type10error_infoL22NAMESPACE_IS_READ_ONLYE
ffff80000040047b r _ZN14aer_event_type10error_infoL21INTERNAL_TARGET_ERRORE
ffff80000040047c r _ZN14aer_event_type10smart_infoL21TEMPERATURE_THRESHOLDE
ffff80000040047d r _ZN14aer_event_type10smart_infoL21SPARE_BELOW_THRESHOLDE
ffff80000040047e r _ZN14aer_event_type10smart_infoL24NVM_RELIABILITY_DEGRADEDE
ffff80000040047f r _ZN14aer_event_type10smart_infoL15MEDIA_READ_ONLYE
ffff800000400480 r _ZN14aer_event_type10smart_infoL36VOLATILE_MEMORY_BACKUP_DEVICE_FAILEDE
ffff800000400481 r _ZN14aer_event_type10smart_infoL14PMR_UNRELIABLEE
ffff800000400482 r _ZN14aer_event_type11notice_infoL28FIRMWARE_ACTIVATION_STARTINGE
ffff800000400483 r _ZN14aer_event_type11notice_infoL27NAMESPACE_ATTRIBUTE_CHANGEDE
ffff800000400484 r _ZN14aer_event_type11notice_infoL30NVM_SUBSYSTEM_HARDWARE_CHANGEDE
ffff800000400485 r _ZN14aer_event_type11notice_infoL22CHANGED_NAMESPACE_LISTE
ffff800000400486 r _ZN14aer_event_type11notice_infoL21TELEMETRY_LOG_CREATEDE
ffff800000400487 r _ZN14aer_event_type11notice_infoL35ASYMMETRIC_NAMESPACE_ACCESS_CHANGEDE
ffff800000400488 r _ZN14aer_event_type11notice_infoL27PREDICTABLE_LATENCY_CHANGEDE
ffff800000400489 r _ZN14aer_event_type11notice_infoL28LBA_STATUS_INFORMATION_ALERTE
ffff80000040048a r _ZN14aer_event_type11notice_infoL21ENDURANCE_GROUP_EVENTE
ffff80000040048b r _ZN14aer_event_type11notice_infoL36EXPORTED_NVM_RESOURCE_CONFIG_CHANGEDE
ffff80000040048c r _ZN14aer_event_type11notice_infoL35DEALLOCATED_OR_UNWRITTEN_DATA_ERRORE
ffff80000040048d r _ZN14aer_event_type11notice_infoL33EXPORTED_NVM_RESOURCE_CONFIG_LOSTE
ffff80000040048e r _ZN14aer_event_type11notice_infoL23ZONE_EVENT_NOTIFICATIONE
ffff80000040048f r _ZN14aer_event_type16io_specific_infoL21RESERVATION_PREEMPTEDE
ffff800000400490 r _ZN14aer_event_type16io_specific_infoL20RESERVATION_RELEASEDE
ffff800000400491 r _ZN14aer_event_type16io_specific_infoL29RESERVATION_PREEMPT_AND_ABORTE
ffff800000400498 r _ZL19soon_ring_bell_mask
ffff8000004004a0 r _ZL20PCI_HEADER_TYPE_MASK
ffff8000004004a1 r _ZL25PCI_HEADER_TYPE_MULTIFUNC
ffff8000004004a2 r _ZL24PCI_HEADER_TYPE_ENDPOINT
ffff8000004004a3 r _ZL26PCI_HEADER_TYPE_PCI_BRIDGE
ffff8000004004a4 r _ZL23PCI_HEADER_TYPE_CARDBUS
ffff8000004004a6 r _ZL9ECAM_size
ffff8000004004a8 r _ZL14func_bit_width
ffff8000004004a9 r _ZL14device_bit_num
ffff8000004004aa r _ZL18PCI_BAR_TYPE_32BIT
ffff8000004004ab r _ZL18PCI_BAR_TYPE_64BIT
ffff8000004004ac r _ZL13PCI_CAP_ID_PM
ffff8000004004ad r _ZL14PCI_CAP_ID_MSI
ffff8000004004ae r _ZL14PCI_CAP_ID_EXP
ffff8000004004af r _ZL15PCI_CAP_ID_MSIX
ffff8000004004c0 r _ZL15PAGE_SIZE_IN_LV
ffff800000400500 r _ZL16PAGE_OFFSET_MASK
ffff800000400528 r _ZL17Max_huge_pg_index
ffff800000400530 r _ZN22lineaddr_index_filtersL17PT_INDEX_MASK_lv0E
ffff800000400538 r _ZN22lineaddr_index_filtersL17PD_INDEX_MASK_lv1E
ffff800000400540 r _ZN22lineaddr_index_filtersL19PDPT_INDEX_MASK_lv2E
ffff800000400548 r _ZN22lineaddr_index_filtersL19PML4_INDEX_MASK_lv3E
ffff800000400550 r _ZN22lineaddr_index_filtersL19PML5_INDEX_MASK_lv4E
ffff800000400558 r _ZL15PHYS_ADDR_WIDTH
ffff800000400560 r _ZL14PHYS_ADDR_MASK
ffff800000400568 r _ZN14PageTableEntryL5P_BITE
ffff800000400570 r _ZN14PageTableEntryL6RW_BITE
ffff800000400578 r _ZN14PageTableEntryL6US_BITE
ffff800000400580 r _ZN14PageTableEntryL7PWT_BITE
ffff800000400588 r _ZN14PageTableEntryL7PCD_BITE
ffff800000400590 r _ZN14PageTableEntryL5A_BITE
ffff800000400598 r _ZN14PageTableEntryL6XD_BITE
ffff8000004005a0 r _ZN14PageTableEntryL6P_MASKE
ffff8000004005a8 r _ZN14PageTableEntryL7RW_MASKE
ffff8000004005b0 r _ZN14PageTableEntryL7US_MASKE
ffff8000004005b8 r _ZN14PageTableEntryL8PWT_MASKE
ffff8000004005c0 r _ZN14PageTableEntryL8PCD_MASKE
ffff8000004005c8 r _ZN14PageTableEntryL6A_MASKE
ffff8000004005d0 r _ZN14PageTableEntryL7XD_MASKE
ffff8000004005d8 r _ZN5PML5EL5R_BITE
ffff8000004005e0 r _ZN5PML5EL6PS_BITE
ffff8000004005e8 r _ZN5PML5EL6R_MASKE
ffff8000004005f0 r _ZN5PML5EL7PS_MASKE
ffff8000004005f8 r _ZN5PML5EL11ADDR_OFFSETE
ffff800000400600 r _ZN5PML5EL9ADDR_BITSE
ffff800000400608 r _ZN5PML5EL9ADDR_MASKE
ffff800000400610 r _ZN5PML4EL5R_BITE
ffff800000400618 r _ZN5PML4EL6PS_BITE
ffff800000400620 r _ZN5PML4EL6R_MASKE
ffff800000400628 r _ZN5PML4EL7PS_MASKE
ffff800000400630 r _ZN5PML4EL11ADDR_OFFSETE
ffff800000400638 r _ZN5PML4EL9ADDR_BITSE
ffff800000400640 r _ZN5PML4EL9ADDR_MASKE
ffff800000400648 r _ZN5PDPTEL5D_BITE
ffff800000400650 r _ZN5PDPTEL6PS_BITE
ffff800000400658 r _ZN5PDPTEL5G_BITE
ffff800000400660 r _ZN5PDPTEL5R_BITE
ffff800000400668 r _ZN5PDPTEL7PAT_BITE
ffff800000400670 r _ZN5PDPTEL7PK_BITSE
ffff800000400678 r _ZN5PDPTEL6D_MASKE
ffff800000400680 r _ZN5PDPTEL7PS_MASKE
ffff800000400688 r _ZN5PDPTEL6G_MASKE
ffff800000400690 r _ZN5PDPTEL6R_MASKE
ffff800000400698 r _ZN5PDPTEL8PAT_MASKE
ffff8000004006a0 r _ZN5PDPTEL7PK_MASKE
ffff8000004006a8 r _ZN5PDPTEL14ADDR_PD_OFFSETE
ffff8000004006b0 r _ZN5PDPTEL12ADDR_PD_BITSE
ffff8000004006b8 r _ZN5PDPTEL12ADDR_PD_MASKE
ffff8000004006c0 r _ZN5PDPTEL15ADDR_1GB_OFFSETE
ffff8000004006c8 r _ZN5PDPTEL13ADDR_1GB_BITSE
ffff8000004006d0 r _ZN5PDPTEL13ADDR_1GB_MASKE
ffff8000004006d8 r _ZN3PDEL5D_BITE
ffff8000004006e0 r _ZN3PDEL6PS_BITE
ffff8000004006e8 r _ZN3PDEL5G_BITE
ffff8000004006f0 r _ZN3PDEL5R_BITE
ffff8000004006f8 r _ZN3PDEL7PAT_BITE
ffff800000400700 r _ZN3PDEL7PK_BITSE
ffff800000400708 r _ZN3PDEL6D_MASKE
ffff800000400710 r _ZN3PDEL7PS_MASKE
ffff800000400718 r _ZN3PDEL6G_MASKE
ffff800000400720 r _ZN3PDEL6R_MASKE
ffff800000400728 r _ZN3PDEL8PAT_MASKE
ffff800000400730 r _ZN3PDEL7PK_MASKE
ffff800000400738 r _ZN3PDEL14ADDR_PT_OFFSETE
ffff800000400740 r _ZN3PDEL12ADDR_PT_BITSE
ffff800000400748 r _ZN3PDEL12ADDR_PT_MASKE
ffff800000400750 r _ZN3PDEL15ADDR_2MB_OFFSETE
ffff800000400758 r _ZN3PDEL13ADDR_2MB_BITSE
ffff800000400760 r _ZN3PDEL13ADDR_2MB_MASKE
ffff800000400768 r _ZN3PTEL5D_BITE
ffff800000400770 r _ZN3PTEL7PAT_BITE
ffff800000400778 r _ZN3PTEL5G_BITE
ffff800000400780 r _ZN3PTEL5R_BITE
ffff800000400788 r _ZN3PTEL7PK_BITSE
ffff800000400790 r _ZN3PTEL6D_MASKE
ffff800000400798 r _ZN3PTEL8PAT_MASKE
ffff8000004007a0 r _ZN3PTEL6G_MASKE
ffff8000004007a8 r _ZN3PTEL6R_MASKE
ffff8000004007b0 r _ZN3PTEL7PK_MASKE
ffff8000004007b8 r _ZN3PTEL11ADDR_OFFSETE
ffff8000004007c0 r _ZN3PTEL9ADDR_BITSE
ffff8000004007c8 r _ZN3PTEL9ADDR_MASKE
ffff8000004007d0 r _ZL13ENTRY_PRESENT
ffff8000004007d1 r _ZL17ENTRY_PRESENT_NOT
ffff8000004007d2 r _ZL17RWBIT_WRITE_ALLOW
ffff8000004007d3 r _ZL21RWBIT_WRITE_ALLOW_NOT
ffff8000004007d4 r _ZL16KERNE_BIT_KERNEL
ffff8000004007d5 r _ZL20KERNE_BIT_KERNEL_NOT
ffff8000004007d6 r _ZL17XD_BIT_EXECUTABLE
ffff8000004007d7 r _ZL21XD_BIT_EXECUTABLE_NOT
ffff8000004007d8 r _ZL20MAX_PROCESSORS_COUNT
ffff8000004007dc r _ZN13PAGE_TBALE_LVL4LV_4E
ffff8000004007dd r _ZN13PAGE_TBALE_LVL4LV_5E
ffff8000004007de r _ZL17KERNEL_SPACE_PCID
ffff8000004007e0 r _ZN18MEMMODULE_LOCAIONS18ADDRESSPACE_EVENTSL15EVENT_CODE_INITE
ffff8000004007e1 r _ZN18MEMMODULE_LOCAIONS18ADDRESSPACE_EVENTSL25EVENT_CODE_ENABLE_VMENTRYE
ffff8000004007e2 r _ZN18MEMMODULE_LOCAIONS18ADDRESSPACE_EVENTSL26EVENT_CODE_DISABLE_VMENTRYE
ffff8000004007e3 r _ZN18MEMMODULE_LOCAIONS18ADDRESSPACE_EVENTSL22EVENT_CODE_TRAN_TO_PHYE
ffff8000004007e4 r _ZN18MEMMODULE_LOCAIONS18ADDRESSPACE_EVENTSL25EVENT_CODE_INVALIDATE_TLBE
ffff8000004007e5 r _ZN18MEMMODULE_LOCAIONS18ADDRESSPACE_EVENTSL51EVENT_CODE_BUILD_INDENTITY_MAP_ONLY_ON_gKERNELSPACEE
ffff8000004007e6 r _ZN18MEMMODULE_LOCAIONS18ADDRESSPACE_EVENTSL19EVENT_CODE_UNREGISTE
ffff8000004007e8 r _ZN18MEMMODULE_LOCAIONS18ADDRESSPACE_EVENTS22ENABLE_VMENTRY_RESULTS12FAIL_REASONSL40REASON_CODE_VMENTRY_congruence_vlidationE
ffff8000004007ea r _ZN18MEMMODULE_LOCAIONS18ADDRESSPACE_EVENTS22ENABLE_VMENTRY_RESULTS12FAIL_REASONSL23REASON_CODE_BAD_VMENTRYE
ffff8000004007ec r _ZN18MEMMODULE_LOCAIONS18ADDRESSPACE_EVENTS22ENABLE_VMENTRY_RESULTS12FAIL_REASONSL34REASON_CODE_BAD_VMENTRY_CANT_SPLITE
ffff8000004007ee r _ZN18MEMMODULE_LOCAIONS18ADDRESSPACE_EVENTS22ENABLE_VMENTRY_RESULTS12FAIL_REASONSL34REASON_CODE_NOT_SUPPORT_LV5_PAGINGE
ffff8000004007f0 r _ZN18MEMMODULE_LOCAIONS18ADDRESSPACE_EVENTS22ENABLE_VMENTRY_RESULTS13FATAL_REASONSL44REASON_CODE_TRY_TO_GET_SUB_PAGE_IN_ATOM_PAGEE
ffff8000004007f2 r _ZN18MEMMODULE_LOCAIONS18ADDRESSPACE_EVENTS22ENABLE_VMENTRY_RESULTS13FATAL_REASONSL26REASON_CODE_PAGES_SET_FALTE
ffff8000004007f4 r _ZN18MEMMODULE_LOCAIONS18ADDRESSPACE_EVENTS22ENABLE_VMENTRY_RESULTS13FATAL_REASONSL29REASON_CODE_INVALID_PAGE_SIZEE
ffff8000004007f6 r _ZN18MEMMODULE_LOCAIONS18ADDRESSPACE_EVENTS22ENABLE_VMENTRY_RESULTS24SUCCESS_BUT_SIDE_AFFECTSL23REASON_CODE_MAP_LOW_16KE
ffff8000004007f8 r _ZN18MEMMODULE_LOCAIONS18ADDRESSPACE_EVENTS24TRAN_TO_PHY_RESULTS_CODE12FAIL_REASONSL31REASON_CODE_NOT_ALLOW_KSPACE_VAE
ffff8000004007fa r _ZN18MEMMODULE_LOCAIONS18ADDRESSPACE_EVENTS24TRAN_TO_PHY_RESULTS_CODE12FAIL_REASONSL29REASON_CODE_NOT_PRESENT_ENTRYE
ffff8000004007fc r _ZN18MEMMODULE_LOCAIONS18ADDRESSPACE_EVENTS24TRAN_TO_PHY_RESULTS_CODE12FAIL_REASONSL34REASON_CODE_NOT_SUPPORT_LV5_PAGINGE
ffff8000004007fe r _ZN18MEMMODULE_LOCAIONS18ADDRESSPACE_EVENTS23DISABLE_VMENTRY_RESULTS12FAIL_REASONSL35REASON_CODE_INVALID_PAGETABLE_ENTRYE
ffff800000400800 r _ZN18MEMMODULE_LOCAIONS18ADDRESSPACE_EVENTS23DISABLE_VMENTRY_RESULTS12FAIL_REASONSL63REASON_CODE_BAD_VMENTRY_TRY_TO_MAP_LOW_MEM_WHO_NOT_gKernelSpaceE
ffff800000400802 r _ZN18MEMMODULE_LOCAIONS18ADDRESSPACE_EVENTS23DISABLE_VMENTRY_RESULTS12FAIL_REASONSL23REASON_CODE_BAD_VMENTRYE
ffff800000400804 r _ZN18MEMMODULE_LOCAIONS18ADDRESSPACE_EVENTS23DISABLE_VMENTRY_RESULTS12FAIL_REASONSL34REASON_CODE_BAD_VMENTRY_CANT_SPLITE
ffff800000400806 r _ZN18MEMMODULE_LOCAIONS18ADDRESSPACE_EVENTS23DISABLE_VMENTRY_RESULTS12FAIL_REASONSL34REASON_CODE_NOT_SUPPORT_LV5_PAGINGE
ffff800000400808 r _ZN18MEMMODULE_LOCAIONS18ADDRESSPACE_EVENTS23DISABLE_VMENTRY_RESULTS13FATAL_REASONSL44REASON_CODE_TRY_TO_GET_SUB_PAGE_IN_ATOM_PAGEE
ffff80000040080a r _ZN18MEMMODULE_LOCAIONS18ADDRESSPACE_EVENTS23DISABLE_VMENTRY_RESULTS13FATAL_REASONSL26REASON_CODE_PAGES_SET_FALTE
ffff80000040080c r _ZN18MEMMODULE_LOCAIONS18ADDRESSPACE_EVENTS23DISABLE_VMENTRY_RESULTS13FATAL_REASONSL29REASON_CODE_INVALID_PAGE_SIZEE
ffff80000040080e r _ZN18MEMMODULE_LOCAIONS18ADDRESSPACE_EVENTS23DISABLE_VMENTRY_RESULTS13FATAL_REASONSL51REASON_CODE_TRY_TO_GET_SUB_PAGE_OF_NOT_PRESENT_PAGEE
ffff800000400810 r _ZN18MEMMODULE_LOCAIONS18ADDRESSPACE_EVENTS23DISABLE_VMENTRY_RESULTS13FATAL_REASONSL39REASON_CODE_TRY_TO_CLEAR_UNPRESENT_PAGEE
ffff800000400812 r _ZN18MEMMODULE_LOCAIONS18ADDRESSPACE_EVENTS23DISABLE_VMENTRY_RESULTS13FATAL_REASONSL61REASON_CODE_CONSISTENCY_VIOLATION_WHEN_CLEAR_PAGE_TABLE_ENTRYE
ffff800000400814 r _ZN18MEMMODULE_LOCAIONS18ADDRESSPACE_EVENTS23DISABLE_VMENTRY_RESULTS13FATAL_REASONSL33REASON_CODE_OTHER_PAGES_SET_FATALE
ffff800000400816 r _ZN18MEMMODULE_LOCAIONS18ADDRESSPACE_EVENTS22INVALIDATE_TLB_RESULTS12FAIL_REASONSL24REASON_CODE_BAD_VM_ENTRYE
ffff800000400818 r _ZN18MEMMODULE_LOCAIONS18ADDRESSPACE_EVENTS22INVALIDATE_TLB_RESULTS13FATAL_REASONSL29REASON_CODE_INVALID_PAGE_SIZEE
ffff80000040081a r _ZN18MEMMODULE_LOCAIONS18ADDRESSPACE_EVENTS40BUILD_INDENTITY_MAP_ONLY_ON_gKERNELSPACE12FAIL_REASONSL28REASON_CODE_NOT_gKERNELSPACEE
ffff80000040081c r _ZN18MEMMODULE_LOCAIONSL43LOCATION_CODE_KSPACE_MAP_MGR_VMENTRY_RBTREEE
ffff80000040081d r _ZN18MEMMODULE_LOCAIONS20KSPACE_MAPPER_EVENTSL15EVENT_CODE_INITE
ffff80000040081e r _ZN18MEMMODULE_LOCAIONS20KSPACE_MAPPER_EVENTS12INIT_RESULTS12FAIL_REASONSL31USER_TEST_KERNEL_IMAGE_SET_FAILE
ffff800000400820 r _ZN18MEMMODULE_LOCAIONS20KSPACE_MAPPER_EVENTS12INIT_RESULTS12FAIL_REASONSL36USER_TEST_KERNEL_IMAGE_BAD_ELF_MAGICE
ffff800000400822 r _ZN18MEMMODULE_LOCAIONS20KSPACE_MAPPER_EVENTSL25EVENT_CODE_ENABLE_VMENTRYE
ffff800000400823 r _ZN18MEMMODULE_LOCAIONS20KSPACE_MAPPER_EVENTSL26EVENT_CODE_DISABLE_VMENTRYE
ffff800000400824 r _ZN18MEMMODULE_LOCAIONS20KSPACE_MAPPER_EVENTSL28EVENT_CODE_TRAN_TO_PHY_ENTRYE
ffff800000400826 r _ZN18MEMMODULE_LOCAIONS20KSPACE_MAPPER_EVENTS30TRAN_TO_PHY_ENTRY_RESULTS_CODE12FAIL_REASONSL29REASON_CODE_NOT_PRESENT_ENTRYE
ffff800000400828 r _ZN18MEMMODULE_LOCAIONS20KSPACE_MAPPER_EVENTS30TRAN_TO_PHY_ENTRY_RESULTS_CODE12FAIL_REASONSL34REASON_CODE_NOT_SUPPORT_LV5_PAGINGE
ffff80000040082a r _ZN18MEMMODULE_LOCAIONS20KSPACE_MAPPER_EVENTS30TRAN_TO_PHY_ENTRY_RESULTS_CODE13FATAL_REASONSL28REASON_CODE_UNREACHABLE_CODEE
ffff80000040082c r _ZN18MEMMODULE_LOCAIONS20KSPACE_MAPPER_EVENTSL25EVENT_CODE_INVALIDATE_TLBE
ffff80000040082e r _ZN18MEMMODULE_LOCAIONS20KSPACE_MAPPER_EVENTS22INVALIDATE_TLB_RESULTS12FAIL_REASONSL35SHARED_INFO_PACKAGE_NOT_INITILAIZEDE
ffff800000400830 r _ZN18MEMMODULE_LOCAIONS20KSPACE_MAPPER_EVENTSL19EVENT_CODE_UNREGISTE
ffff800000400832 r _ZN18MEMMODULE_LOCAIONS20KSPACE_MAPPER_EVENTS22ENABLE_VMENTRY_RESULTS12FAIL_REASONSL40REASON_CODE_VMENTRY_congruence_vlidationE
ffff800000400834 r _ZN18MEMMODULE_LOCAIONS20KSPACE_MAPPER_EVENTS22ENABLE_VMENTRY_RESULTS12FAIL_REASONSL23REASON_CODE_BAD_VMENTRYE
ffff800000400836 r _ZN18MEMMODULE_LOCAIONS20KSPACE_MAPPER_EVENTS22ENABLE_VMENTRY_RESULTS12FAIL_REASONSL34REASON_CODE_NOT_SUPPORT_LV5_PAGINGE
ffff800000400838 r _ZN18MEMMODULE_LOCAIONS20KSPACE_MAPPER_EVENTS22ENABLE_VMENTRY_RESULTS13FATAL_REASONSL31REASON_CODE_INVALIDE_PAGES_SIZEE
ffff80000040083a r _ZN18MEMMODULE_LOCAIONS20KSPACE_MAPPER_EVENTS23DISABLE_VMENTRY_RESULTS12FAIL_REASONSL23REASON_CODE_BAD_VMENTRYE
ffff80000040083c r _ZN18MEMMODULE_LOCAIONS20KSPACE_MAPPER_EVENTS23DISABLE_VMENTRY_RESULTS13FATAL_REASONSL31REASON_CODE_INVALIDE_PAGES_SIZEE
ffff80000040083e r _ZN18MEMMODULE_LOCAIONS20KSPACE_MAPPER_EVENTS23DISABLE_VMENTRY_RESULTS13FATAL_REASONSL42REASON_CODE_BROADCAST_TLB_SHUTDOWN_TIMEOUTE
ffff800000400840 r _ZN18MEMMODULE_LOCAIONS20KSPACE_MAPPER_EVENTS23DISABLE_VMENTRY_RESULTS13FATAL_REASONSL36REASON_CODE_INVALID_CONGRUENCE_LEVELE
ffff800000400842 r _ZN18MEMMODULE_LOCAIONS20KSPACE_MAPPER_EVENTS22INVALIDATE_TLB_RESULTS12FAIL_REASONSL24REASON_CODE_BAD_VM_ENTRYE
ffff800000400844 r _ZN18MEMMODULE_LOCAIONS20KSPACE_MAPPER_EVENTS22INVALIDATE_TLB_RESULTS13FATAL_REASONSL29REASON_CODE_INVALID_PAGE_SIZEE
ffff800000400846 r _ZN18MEMMODULE_LOCAIONS20KSPACE_MAPPER_EVENTS40BUILD_INDENTITY_MAP_ONLY_ON_gKERNELSPACE12FAIL_REASONSL28REASON_CODE_NOT_gKERNELSPACEE
ffff800000400848 r _ZN18MEMMODULE_LOCAIONS20KSPACE_MAPPER_EVENTSL20EVENT_CODE_PAGES_SETE
ffff80000040084a r _ZN18MEMMODULE_LOCAIONS20KSPACE_MAPPER_EVENTS22PAGES_SET_RESULTS_CODE12FAIL_REASONSL21REASON_CODE_BAD_COUNTE
ffff80000040084c r _ZN18MEMMODULE_LOCAIONS20KSPACE_MAPPER_EVENTS22PAGES_SET_RESULTS_CODE12FAIL_REASONSL44REASON_CODE_COUNT_AND_BASEINDEX_OUT_OF_RANGEE
ffff80000040084e r _ZN18MEMMODULE_LOCAIONS20KSPACE_MAPPER_EVENTS22PAGES_SET_RESULTS_CODE12FAIL_REASONSL28REASON_CODE_BASE_NOT_ALIGNEDE
ffff800000400850 r _ZN18MEMMODULE_LOCAIONS20KSPACE_MAPPER_EVENTS22PAGES_SET_RESULTS_CODE13FATAL_REASONSL35REASON_CODE_HUGE_PDPTE_WHEN_GET_SUBE
ffff800000400852 r _ZN18MEMMODULE_LOCAIONS20KSPACE_MAPPER_EVENTS22PAGES_SET_RESULTS_CODE13FATAL_REASONSL33REASON_CODE_HUGE_PDE_WHEN_GET_SUBE
ffff800000400854 r _ZN18MEMMODULE_LOCAIONS20KSPACE_MAPPER_EVENTSL22EVENT_CODE_PAGES_CLEARE
ffff800000400856 r _ZN18MEMMODULE_LOCAIONS20KSPACE_MAPPER_EVENTS24PAGES_CLEAR_RESULTS_CODE12FAIL_REASONSL21REASON_CODE_BAD_COUNTE
ffff800000400858 r _ZN18MEMMODULE_LOCAIONS20KSPACE_MAPPER_EVENTS24PAGES_CLEAR_RESULTS_CODE12FAIL_REASONSL44REASON_CODE_COUNT_AND_BASEINDEX_OUT_OF_RANGEE
ffff80000040085a r _ZN18MEMMODULE_LOCAIONS20KSPACE_MAPPER_EVENTS24PAGES_CLEAR_RESULTS_CODE12FAIL_REASONSL28REASON_CODE_BASE_NOT_ALIGNEDE
ffff80000040085c r _ZN18MEMMODULE_LOCAIONS20KSPACE_MAPPER_EVENTS24PAGES_CLEAR_RESULTS_CODE13FATAL_REASONSL41REASON_CODE_HUGE_PDPTE_SUBTABLE_NOT_EXISTE
ffff80000040085e r _ZN18MEMMODULE_LOCAIONS20KSPACE_MAPPER_EVENTS24PAGES_CLEAR_RESULTS_CODE13FATAL_REASONSL39REASON_CODE_HUGE_PDE_SUBTABLE_NOT_EXISTE
ffff800000400860 r _ZN18MEMMODULE_LOCAIONS20KSPACE_MAPPER_EVENTS24PAGES_CLEAR_RESULTS_CODE13FATAL_REASONSL31REASON_CODE_HUGE_PDPTE_UNTIMELYE
ffff800000400862 r _ZN18MEMMODULE_LOCAIONS20KSPACE_MAPPER_EVENTS24PAGES_CLEAR_RESULTS_CODE13FATAL_REASONSL32REASON_CODE_HUGE_PDPTE_NOT_EXISTE
ffff800000400864 r _ZN18MEMMODULE_LOCAIONS20KSPACE_MAPPER_EVENTS24PAGES_CLEAR_RESULTS_CODE13FATAL_REASONSL29REASON_CODE_HUGE_PDE_UNTIMELYE
ffff800000400866 r _ZN18MEMMODULE_LOCAIONS20KSPACE_MAPPER_EVENTS24PAGES_CLEAR_RESULTS_CODE13FATAL_REASONSL30REASON_CODE_HUGE_PDE_NOT_EXISTE
ffff800000400868 r _ZN18MEMMODULE_LOCAIONS20KSPACE_MAPPER_EVENTSL30EVENT_CODE_SEG_TO_INFO_PACKAGEE
ffff800000400869 r _ZN18MEMMODULE_LOCAIONS20KSPACE_MAPPER_EVENTSL28EVENT_CODE_VM_SEARCH_BY_ADDRE
ffff80000040086a r _ZN18MEMMODULE_LOCAIONS20KSPACE_MAPPER_EVENTS25VM_SEARCH_BY_ADDR_RESULTS12FAIL_REASONSL21REASON_CODE_NOT_FOUNDE
ffff80000040086c r _ZN18MEMMODULE_LOCAIONSL43LOCATION_CODE_KSPACE_MAP_MGR_PGS_PAGE_TABLEE
ffff80000040086d r _ZL28PROCESSOR_RSP0_STACK_BTM_IDX
ffff80000040086e r _ZL21PROCESSOR_ID_GS_INDEX
ffff80000040086f r _ZL21TIME_COMPLEX_GS_INDEX
ffff800000400870 r _ZL35PROCESSOR_NOW_RUNNING_TASK_GS_INDEX
ffff800000400871 r _ZL22PROCESSOR_USER_RSP_TMP
ffff800000400872 r _ZL20SLOT_IS_SLOT_MAX_IDX
ffff800000400874 r _ZL11ARCH_x86_64
ffff800000400878 r _ZL9fs_per_ns
ffff800000400880 r _ZL11FS_per_mius
ffff800000400888 r _ZN18MEMMODULE_LOCAIONSL31LOCATION_CODE_TRANSPARNENT_PAGEE
ffff800000400889 r _ZN18MEMMODULE_LOCAIONS24TRANSPARNENT_PAGE_EVENTSL16EVENT_CODE_SPILTE
ffff80000040088a r _ZN18MEMMODULE_LOCAIONS24TRANSPARNENT_PAGE_EVENTSL16EVENT_CODE_MERGEE
ffff80000040088b r _ZN18MEMMODULE_LOCAIONS24TRANSPARNENT_PAGE_EVENTSL21EVENT_CODE_MERGE_FREEE
ffff80000040088c r _ZN18MEMMODULE_LOCAIONS24TRANSPARNENT_PAGE_EVENTS18SPILT_RESULTS_CODE17FAIL_REASONS_CODEL37FAIL_REASON_CODE_INVALID_TARGET_ORDERE
ffff80000040088e r _ZN18MEMMODULE_LOCAIONS24TRANSPARNENT_PAGE_EVENTS18SPILT_RESULTS_CODE17FAIL_REASONS_CODEL41FAIL_REASON_CODE_TARGET_ORDER_NOT_SMALLERE
ffff800000400890 r _ZN18MEMMODULE_LOCAIONS24TRANSPARNENT_PAGE_EVENTS18SPILT_RESULTS_CODE17FAIL_REASONS_CODEL38FAIL_REASON_CODE_INDEX_ALIGN_TOO_SMALLE
ffff800000400892 r _ZN18MEMMODULE_LOCAIONS24TRANSPARNENT_PAGE_EVENTS18SPILT_RESULTS_CODE17FAIL_REASONS_CODEL13NOT_HEAD_PAGEE
ffff800000400894 r _ZN18MEMMODULE_LOCAIONS24TRANSPARNENT_PAGE_EVENTS18SPILT_RESULTS_CODE17FAIL_REASONS_CODEL29FAIL_REASON_CODE_OUT_OF_RANGEE
ffff800000400896 r _ZN18MEMMODULE_LOCAIONS24TRANSPARNENT_PAGE_EVENTS18SPILT_RESULTS_CODE18FATAL_REASONS_CODEL21CONSISTENCY_VIOLATIONE
ffff800000400898 r _ZN18MEMMODULE_LOCAIONS24TRANSPARNENT_PAGE_EVENTS18MERGE_RESULTS_CODE17FAIL_REASONS_CODEL37FAIL_REASON_CODE_INVALID_TARGET_ORDERE
ffff80000040089a r _ZN18MEMMODULE_LOCAIONS24TRANSPARNENT_PAGE_EVENTS18MERGE_RESULTS_CODE17FAIL_REASONS_CODEL41FAIL_REASON_CODE_TARGET_ORDER_NOT_GREATERE
ffff80000040089c r _ZN18MEMMODULE_LOCAIONS24TRANSPARNENT_PAGE_EVENTS18MERGE_RESULTS_CODE17FAIL_REASONS_CODEL38FAIL_REASON_CODE_INDEX_ALIGN_TOO_SMALLE
ffff80000040089e r _ZN18MEMMODULE_LOCAIONS24TRANSPARNENT_PAGE_EVENTS18MERGE_RESULTS_CODE17FAIL_REASONS_CODEL29FAIL_REASON_CODE_OUT_OF_RANGEE
ffff8000004008a0 r _ZN18MEMMODULE_LOCAIONS24TRANSPARNENT_PAGE_EVENTS18MERGE_RESULTS_CODE17FAIL_REASONS_CODEL30FAIL_REASON_CODE_NOT_HEAD_PAGEE
ffff8000004008a2 r _ZN18MEMMODULE_LOCAIONS24TRANSPARNENT_PAGE_EVENTS18MERGE_RESULTS_CODE17FAIL_REASONS_CODEL31FAIL_REASON_CODE_ORDER_MISMATCHE
ffff8000004008a4 r _ZN18MEMMODULE_LOCAIONS24TRANSPARNENT_PAGE_EVENTS18MERGE_RESULTS_CODE17FAIL_REASONS_CODEL30FAIL_REASON_CODE_TYPE_MISMATCHE
ffff8000004008a6 r _ZN18MEMMODULE_LOCAIONS24TRANSPARNENT_PAGE_EVENTS18MERGE_RESULTS_CODE17FAIL_REASONS_CODEL41FAIL_REASON_CODE_TRANSPARENT_PAGE_INVALIDE
ffff8000004008a8 r _ZN18MEMMODULE_LOCAIONS24TRANSPARNENT_PAGE_EVENTS18MERGE_RESULTS_CODE17FAIL_REASONS_CODEL34FAIL_REASON_CODE_HEAD_PTR_MISMATCHE
ffff8000004008aa r _ZN18MEMMODULE_LOCAIONS24TRANSPARNENT_PAGE_EVENTS18MERGE_RESULTS_CODE17FAIL_REASONS_CODEL36FAIL_REASON_CODE_HUGE_ORDER_MISMATCHE
ffff8000004008ac r _ZN18MEMMODULE_LOCAIONS24TRANSPARNENT_PAGE_EVENTS18MERGE_RESULTS_CODE17FAIL_REASONS_CODEL13NOT_HEAD_PAGEE
ffff8000004008ae r _ZN18MEMMODULE_LOCAIONS24TRANSPARNENT_PAGE_EVENTS23MERGE_FREE_RESULTS_CODE17FAIL_REASONS_CODEL37FAIL_REASON_CODE_INVALID_TARGET_ORDERE
ffff8000004008b0 r _ZN18MEMMODULE_LOCAIONS24TRANSPARNENT_PAGE_EVENTS23MERGE_FREE_RESULTS_CODE17FAIL_REASONS_CODEL41FAIL_REASON_CODE_TARGET_ORDER_NOT_GREATERE
ffff8000004008b2 r _ZN18MEMMODULE_LOCAIONS24TRANSPARNENT_PAGE_EVENTS23MERGE_FREE_RESULTS_CODE17FAIL_REASONS_CODEL38FAIL_REASON_CODE_INDEX_ALIGN_TOO_SMALLE
ffff8000004008b4 r _ZN18MEMMODULE_LOCAIONS24TRANSPARNENT_PAGE_EVENTS23MERGE_FREE_RESULTS_CODE17FAIL_REASONS_CODEL29FAIL_REASON_CODE_OUT_OF_RANGEE
ffff8000004008b6 r _ZN18MEMMODULE_LOCAIONS24TRANSPARNENT_PAGE_EVENTS23MERGE_FREE_RESULTS_CODE17FAIL_REASONS_CODEL30FAIL_REASON_CODE_NOT_HEAD_PAGEE
ffff8000004008b8 r _ZN18MEMMODULE_LOCAIONS24TRANSPARNENT_PAGE_EVENTS23MERGE_FREE_RESULTS_CODE17FAIL_REASONS_CODEL31FAIL_REASON_CODE_ORDER_MISMATCHE
ffff8000004008ba r _ZN18MEMMODULE_LOCAIONS24TRANSPARNENT_PAGE_EVENTS23MERGE_FREE_RESULTS_CODE17FAIL_REASONS_CODEL25FAIL_REASON_CODE_NOT_FREEE
ffff8000004008bc r _ZN18MEMMODULE_LOCAIONS24TRANSPARNENT_PAGE_EVENTS23MERGE_FREE_RESULTS_CODE17FAIL_REASONS_CODEL32FAIL_REASON_CODE_NOT_ALLOCATABLEE
ffff8000004008be r _ZN18MEMMODULE_LOCAIONS24TRANSPARNENT_PAGE_EVENTS23MERGE_FREE_RESULTS_CODE17FAIL_REASONS_CODEL33FAIL_REASON_CODE_REFCOUNT_NONZEROE
ffff8000004008c0 r _ZN18MEMMODULE_LOCAIONS24TRANSPARNENT_PAGE_EVENTS23MERGE_FREE_RESULTS_CODE17FAIL_REASONS_CODEL41FAIL_REASON_CODE_TRANSPARENT_PAGE_INVALIDE
ffff8000004008c2 r _ZN18MEMMODULE_LOCAIONS24TRANSPARNENT_PAGE_EVENTS23MERGE_FREE_RESULTS_CODE17FAIL_REASONS_CODEL34FAIL_REASON_CODE_HEAD_PTR_MISMATCHE
ffff8000004008c4 r _ZN18MEMMODULE_LOCAIONS24TRANSPARNENT_PAGE_EVENTS23MERGE_FREE_RESULTS_CODE17FAIL_REASONS_CODEL36FAIL_REASON_CODE_HUGE_ORDER_MISMATCHE
ffff8000004008c6 r _ZN18MEMMODULE_LOCAIONS24TRANSPARNENT_PAGE_EVENTS23MERGE_FREE_RESULTS_CODE17FAIL_REASONS_CODEL13NOT_HEAD_PAGEE
ffff8000004008c8 r _ZN18MEMMODULE_LOCAIONSL23LOCATION_CODE_PAGES_ARRE
ffff8000004008c9 r _ZN18MEMMODULE_LOCAIONS16PAGES_ARR_EVENTSL25EVENT_CODE_SIMP_PAGES_SETE
ffff8000004008ca r _ZN18MEMMODULE_LOCAIONS16PAGES_ARR_EVENTS27SIMP_PAGES_SET_RESULTS_CODE17FAIL_REASONS_CODEL40FAIL_REASON_CODE_INTERVAL_NOT_IN_FREERAME
ffff8000004008cc r _ZN9SchedulerL14self_schedulerE
ffff8000004008cd r _ZN9SchedulerL19scheduler_task_poolE
ffff8000004008ce r _ZN9Scheduler16task_pool_eventsL4initE
ffff8000004008cf r _ZN9Scheduler16task_pool_eventsL10slot_allocE
ffff8000004008d0 r _ZN9Scheduler16task_pool_events13alloc_results12fail_reasonsL9not_foundE
ffff8000004008d2 r _ZN9Scheduler16task_pool_eventsL9slot_freeE
ffff8000004008d4 r _ZN9Scheduler16task_pool_events12free_results12fail_reasonsL18index_out_of_rangeE
ffff8000004008d6 r _ZN9Scheduler16task_pool_events12free_results12fail_reasonsL13not_allocatedE
ffff8000004008d8 r _ZN9Scheduler16task_pool_events12free_results12fail_reasonsL7bad_tidE
ffff8000004008da r _ZN9Scheduler16task_pool_events12free_results12fail_reasonsL19sub_table_not_existE
ffff8000004008dc r _ZN9Scheduler16task_pool_events17try_free_subtable12fail_reasonsL9null_poolE
ffff8000004008de r _ZN9Scheduler16task_pool_events17try_free_subtable12fail_reasonsL13not_all_emptyE
ffff8000004008e0 r _ZN9Scheduler21self_scheduler_eventsL15timer_cpp_enterE
ffff8000004008e2 r _ZN9Scheduler21self_scheduler_events23timer_cpp_enter_results13fatal_reasonsL14null_schedulerE
ffff8000004008e4 r _ZN9Scheduler21self_scheduler_events23timer_cpp_enter_results13fatal_reasonsL23invalid_running_task_idE
ffff8000004008e6 r _ZN9Scheduler21self_scheduler_events23timer_cpp_enter_results13fatal_reasonsL13null_task_ptrE
ffff8000004008e8 r _ZN9Scheduler21self_scheduler_events23timer_cpp_enter_results13fatal_reasonsL10invalid_csE
ffff8000004008ea r _ZN9Scheduler21self_scheduler_events23timer_cpp_enter_results13fatal_reasonsL20null_kthread_contextE
ffff8000004008ec r _ZN9Scheduler21self_scheduler_events23timer_cpp_enter_results13fatal_reasonsL18invalid_stack_sizeE
ffff8000004008ee r _ZN9Scheduler21self_scheduler_events23timer_cpp_enter_results13fatal_reasonsL16rsp_out_of_rangeE
ffff8000004008f0 r _ZN9Scheduler21self_scheduler_events23timer_cpp_enter_results13fatal_reasonsL23null_userthread_contextE
ffff8000004008f2 r _ZN9Scheduler21self_scheduler_events23timer_cpp_enter_results13fatal_reasonsL17invalid_task_typeE
ffff8000004008f4 r _ZN9Scheduler21self_scheduler_eventsL19kthread_yield_enterE
ffff8000004008f6 r _ZN9Scheduler21self_scheduler_events27kthread_yield_enter_results13fatal_reasonsL14null_schedulerE
ffff8000004008f8 r _ZN9Scheduler21self_scheduler_events27kthread_yield_enter_results13fatal_reasonsL23invalid_running_task_idE
ffff8000004008fa r _ZN9Scheduler21self_scheduler_events27kthread_yield_enter_results13fatal_reasonsL13null_task_ptrE
ffff8000004008fc r _ZN9Scheduler21self_scheduler_events27kthread_yield_enter_results13fatal_reasonsL20null_kthread_contextE
ffff8000004008fe r _ZN9Scheduler21self_scheduler_events27kthread_yield_enter_results13fatal_reasonsL18invalid_stack_sizeE
ffff800000400900 r _ZN9Scheduler21self_scheduler_events27kthread_yield_enter_results13fatal_reasonsL16rsp_out_of_rangeE
ffff800000400902 r _ZN9Scheduler21self_scheduler_events27kthread_yield_enter_results13fatal_reasonsL17invalid_task_typeE
ffff800000400904 r _ZN9Scheduler21self_scheduler_eventsL19schedule_and_switchE
ffff800000400906 r _ZN9Scheduler21self_scheduler_events27schedule_and_switch_results13fatal_reasonsL13empty_no_idleE
ffff800000400908 r _ZN9Scheduler21self_scheduler_events27schedule_and_switch_results13fatal_reasonsL13null_task_ptrE
ffff80000040090a r _ZN9Scheduler21self_scheduler_eventsL17insert_ready_taskE
ffff80000040090c r _ZN9Scheduler21self_scheduler_events25insert_ready_task_results12fail_reasonsL13null_task_ptrE
ffff80000040090e r _ZN9Scheduler21self_scheduler_events25insert_ready_task_results12fail_reasonsL13bad_task_typeE
ffff800000400910 r _ZN9Scheduler21self_scheduler_events25insert_ready_task_results12fail_reasonsL11insert_failE
ffff800000400912 r _ZN9Scheduler21self_scheduler_eventsL15wake_up_kthreadE
ffff800000400914 r _ZN9Scheduler21self_scheduler_events23wake_up_kthread_results15success_reasonsL19other_entity_wakeupE
ffff800000400916 r _ZN9Scheduler21self_scheduler_events23wake_up_kthread_results15success_reasonsL25already_wakeup_or_runningE
ffff800000400918 r _ZN9Scheduler21self_scheduler_events23wake_up_kthread_results12fail_reasonsL14bad_task_stateE
ffff80000040091a r _ZN9Scheduler21self_scheduler_events23wake_up_kthread_results12fail_reasonsL38kthread_cant_wake_for_bad_block_reasonE
ffff80000040091c r _ZN9Scheduler21self_scheduler_eventsL13kthread_blockE
ffff80000040091e r _ZN9Scheduler21self_scheduler_events21kthread_block_results13fatal_reasonsL13bad_task_typeE
ffff800000400920 r _ZN9Scheduler21self_scheduler_events21kthread_block_results13fatal_reasonsL15context_nullptrE
ffff800000400922 r _ZN9Scheduler21self_scheduler_events21kthread_block_results13fatal_reasonsL23context_null_stack_sizeE
ffff800000400924 r _ZN9Scheduler21self_scheduler_events21kthread_block_results13fatal_reasonsL29context_stackptr_out_of_rangeE
ffff800000400926 r _ZN9Scheduler21self_scheduler_events21kthread_block_results13fatal_reasonsL13illeage_stateE
ffff800000400928 r _ZN9Scheduler21self_scheduler_eventsL17sleep_task_insertE
ffff80000040092a r _ZN9Scheduler21self_scheduler_events25sleep_task_insert_results12fail_reasonsL13null_task_ptrE
ffff80000040092c r _ZN9Scheduler21self_scheduler_events25sleep_task_insert_results12fail_reasonsL13bad_task_typeE
ffff80000040092e r _ZN9Scheduler21self_scheduler_events25sleep_task_insert_results12fail_reasonsL11insert_failE
ffff800000400930 r _ZN9Scheduler21self_scheduler_eventsL13kthread_sleepE
ffff800000400932 r _ZN9Scheduler21self_scheduler_events21kthread_sleep_results13fatal_reasonsL14bad_task_stateE
ffff800000400934 r _ZN9Scheduler21self_scheduler_events21kthread_sleep_results13fatal_reasonsL15context_nullptrE
ffff800000400936 r _ZN9Scheduler21self_scheduler_events21kthread_sleep_results13fatal_reasonsL23context_null_stack_sizeE
ffff800000400938 r _ZN9Scheduler21self_scheduler_events21kthread_sleep_results13fatal_reasonsL29context_stackptr_out_of_rangeE
ffff80000040093a r _ZN9Scheduler21self_scheduler_events21kthread_sleep_results13fatal_reasonsL13illeage_stateE
ffff80000040093c r _ZN9Scheduler21self_scheduler_eventsL12kthread_waitE
ffff80000040093e r _ZN9Scheduler21self_scheduler_events20kthread_wait_results13fatal_reasonsL14bad_task_stateE
ffff800000400940 r _ZN9Scheduler21self_scheduler_events20kthread_wait_results13fatal_reasonsL29context_stackptr_out_of_rangeE
ffff800000400942 r _ZN9Scheduler21self_scheduler_eventsL12kthread_exitE
ffff800000400944 r _ZN9Scheduler21self_scheduler_events20kthread_exit_results13fatal_reasonsL14bad_task_stateE
ffff800000400946 r _ZN9Scheduler21self_scheduler_events20kthread_exit_results13fatal_reasonsL23waiter_bad_block_reasonE
ffff800000400948 r _ZN9Scheduler21self_scheduler_events20kthread_exit_results13fatal_reasonsL29context_stackptr_out_of_rangeE
ffff80000040094a r _ZN9Scheduler21self_scheduler_eventsL19kthread_block_queueE
ffff80000040094c r _ZN9Scheduler21self_scheduler_events27kthread_block_queue_results13fatal_reasonsL13bad_task_typeE
ffff80000040094e r _ZN9Scheduler21self_scheduler_events27kthread_block_queue_results13fatal_reasonsL15context_nullptrE
ffff800000400950 r _ZN9Scheduler21self_scheduler_events27kthread_block_queue_results13fatal_reasonsL23context_null_stack_sizeE
ffff800000400952 r _ZN9Scheduler21self_scheduler_events27kthread_block_queue_results13fatal_reasonsL29context_stackptr_out_of_rangeE
ffff800000400954 r _ZN9Scheduler21self_scheduler_events27kthread_block_queue_results13fatal_reasonsL13illeage_stateE
ffff800000400956 r _ZN9Scheduler21self_scheduler_eventsL28kthread_block_queue_if_equalE
ffff800000400958 r _ZN9Scheduler21self_scheduler_events36kthread_block_queue_if_equal_results13fatal_reasonsL13bad_task_typeE
ffff80000040095a r _ZN9Scheduler21self_scheduler_events36kthread_block_queue_if_equal_results13fatal_reasonsL15context_nullptrE
ffff80000040095c r _ZN9Scheduler21self_scheduler_events36kthread_block_queue_if_equal_results13fatal_reasonsL23context_null_stack_sizeE
ffff80000040095e r _ZN9Scheduler21self_scheduler_events36kthread_block_queue_if_equal_results13fatal_reasonsL29context_stackptr_out_of_rangeE
ffff800000400960 r _ZN9Scheduler21self_scheduler_events36kthread_block_queue_if_equal_results13fatal_reasonsL13illeage_stateE
ffff800000400962 r _ZN9Scheduler21self_scheduler_eventsL19kthread_common_saveE
ffff800000400964 r _ZN9Scheduler21self_scheduler_events27kthread_common_save_results13fatal_reasonsL13bad_task_typeE
ffff800000400966 r _ZN9Scheduler21self_scheduler_events27kthread_common_save_results13fatal_reasonsL15context_nullptrE
ffff800000400968 r _ZN9Scheduler21self_scheduler_events27kthread_common_save_results13fatal_reasonsL14bad_task_stateE
ffff80000040096a r _ZN9Scheduler21self_scheduler_events27kthread_common_save_results13fatal_reasonsL29context_stackptr_out_of_rangeE
ffff80000040096c r _ZN9Scheduler21self_scheduler_events27kthread_common_save_results12fail_reasonsL13nullptr_paramE
ffff800000400970 r _ZN16kthread_call_numL4exitE
ffff800000400978 r _ZN16kthread_call_numL5sleepE
ffff800000400980 r _ZN16kthread_call_numL5yieldE
ffff800000400988 r _ZN16kthread_call_numL4waitE
ffff800000400990 r _ZN16kthread_call_numL5blockE
ffff800000400998 r _ZN16kthread_call_numL14block_to_queueE
ffff8000004009a0 r _ZN16kthread_call_numL23block_to_queue_if_equalE
ffff8000004009a8 r _ZL11INVALID_TID
ffff8000004009b0 r _ZL22DEFAULT_STACK_PG_COUNT
ffff8000004009b4 r _ZL18DEFAULT_STACK_SIZE
ffff8000004009b8 r _ZL23DEFALUT_TIMER_SPAN_MIUS
ffff8000004009c0 r _ZL19INIT_DEFAULT_RFLAGS
ffff8000004009c8 r _ZL18INVALID_NODE_INDEX
ffff8000004009cc r _ZN14x86_exceptionsL12DIVIDE_ERRORE
ffff8000004009cd r _ZN14x86_exceptionsL5DEBUGE
ffff8000004009ce r _ZN14x86_exceptionsL3NMIE
ffff8000004009cf r _ZN14x86_exceptionsL10BREAKPOINTE
ffff8000004009d0 r _ZN14x86_exceptionsL8OVERFLOWE
ffff8000004009d1 r _ZN14x86_exceptionsL20BOUND_RANGE_EXCEEDEDE
ffff8000004009d2 r _ZN14x86_exceptionsL14INVALID_OPCODEE
ffff8000004009d3 r _ZN14x86_exceptionsL20DEVICE_NOT_AVAILABLEE
ffff8000004009d4 r _ZN14x86_exceptionsL12DOUBLE_FAULTE
ffff8000004009d5 r _ZN14x86_exceptionsL27COPROCESSOR_SEGMENT_OVERRUNE
ffff8000004009d6 r _ZN14x86_exceptionsL11INVALID_TSSE
ffff8000004009d7 r _ZN14x86_exceptionsL19SEGMENT_NOT_PRESENTE
ffff8000004009d8 r _ZN14x86_exceptionsL19STACK_SEGMENT_FAULTE
ffff8000004009d9 r _ZN14x86_exceptionsL24GENERAL_PROTECTION_FAULTE
ffff8000004009da r _ZN14x86_exceptionsL10PAGE_FAULTE
ffff8000004009db r _ZN14x86_exceptionsL13X87_FPU_ERRORE
ffff8000004009dc r _ZN14x86_exceptionsL15ALIGNMENT_CHECKE
ffff8000004009dd r _ZN14x86_exceptionsL13MACHINE_CHECKE
ffff8000004009de r _ZN14x86_exceptionsL29SIMD_FLOATING_POINT_EXCEPTIONE
ffff8000004009df r _ZN14x86_exceptionsL24VIRTUALIZATION_EXCEPTIONE
ffff8000004009e0 r _ZN14x86_exceptionsL28CONTROL_PROTECTION_EXCEPTIONE
ffff8000004009e1 r _ZN21x86_softinterrupt_abiL9ASM_PANICE
ffff8000004009e2 r _ZN21x86_softinterrupt_abiL12KTHREAD_CALLE
ffff8000004009e3 r _ZN21x86_softinterrupt_abiL14USER_ABI_ENTERE
ffff8000004009e4 r _ZN8ipi_vecsL11IPI_RUNAWAYE
ffff8000004009e5 r _ZN8ipi_vecsL14IPI_RETURNABLEE
ffff8000004009e6 r _ZN8ipi_vecsL8IPI_HALTE
ffff8000004009e7 r _ZN8ipi_vecsL11IPI_RESCHEDE
ffff8000004009e8 r _ZL18SUPRIOUS_INTERRUPT
ffff8000004009f0 r _ZL30TOKEN_FLAG_MASK_TOKEN_SCHEDULE
ffff800000400be0 r _ZL15I8042_CMD_COUNT
ffff800000400d98 r _ZL14UEFI_CMD_COUNT
ffff800000401080 r _ZL13MEM_CMD_COUNT
ffff800000401170 r _ZL14PCIE_CMD_COUNT
ffff800000401348 r _ZL13X86_CMD_COUNT
ffff8000004013c8 r _ZL14INTR_CMD_COUNT
ffff8000004014d0 r _ZL10empty_kurd
ffff8000004014d8 r _ZN10level_codeL7INVALIDE
ffff8000004014d9 r _ZN10level_codeL4INFOE
ffff8000004014da r _ZN10level_codeL6NOTICEE
ffff8000004014db r _ZN10level_codeL7WARNINGE
ffff8000004014dc r _ZN10level_codeL5ERRORE
ffff8000004014dd r _ZN10level_codeL5FATALE
ffff8000004014de r _ZN11module_codeL7INVALIDE
ffff8000004014df r _ZN11module_codeL6MEMORYE
ffff8000004014e0 r _ZN11module_codeL9SCHEDULERE
ffff8000004014e1 r _ZN11module_codeL9INTERRUPTE
ffff8000004014e2 r _ZN11module_codeL8FIRMWAREE
ffff8000004014e3 r _ZN11module_codeL3VFSE
ffff8000004014e4 r _ZN11module_codeL3VMME
ffff8000004014e5 r _ZN11module_codeL5INFRAE
ffff8000004014e6 r _ZN11module_codeL6DEVICEE
ffff8000004014e7 r _ZN11module_codeL12DEVICES_COREE
ffff8000004014e8 r _ZN11module_codeL14HARDWARE_DEBUGE
ffff8000004014e9 r _ZN11module_codeL15USER_KERNEL_ABIE
ffff8000004014ea r _ZN11module_codeL4TIMEE
ffff8000004014eb r _ZN11module_codeL5PANICE
ffff8000004014ec r _ZN11result_codeL7SUCCESSE
ffff8000004014ee r _ZN11result_codeL23SUCCESS_BUT_SIDE_EFFECTE
ffff8000004014f0 r _ZN11result_codeL15PARTIAL_SUCCESSE
ffff8000004014f2 r _ZN11result_codeL4FAILE
ffff8000004014f4 r _ZN11result_codeL5RETRYE
ffff8000004014f6 r _ZN11result_codeL5FATALE
ffff8000004014f8 r _ZN10err_domainL7INVALIDE
ffff8000004014f9 r _ZN10err_domainL11CORE_MODULEE
ffff8000004014fa r _ZN10err_domainL4ARCHE
ffff8000004014fb r _ZN10err_domainL4USERE
ffff8000004014fc r _ZN10err_domainL10HYPERVISORE
ffff8000004014fd r _ZN10err_domainL11OUT_MODULESE
ffff8000004014fe r _ZN10err_domainL11FILE_SYSTEME
ffff8000004014ff r _ZN10err_domainL8HARDWAREE
ffff800000401500 r _ZL16panic_will_magic
ffff800000401508 r _ZL18panic_will_version
ffff800000401510 r _ZL18x86_64_arch_spcify
ffff800000401518 r _ZL29default_panic_behaviors_flags
ffff80000040151c r _ZL6LOCKED
ffff80000040151d r _ZL8UNLOCKED
ffff800000401520 r _ZL10PAGE_DIRTY
ffff800000401528 r _ZL11PAGE_LOCKED
ffff800000401530 r _ZL14PAGE_WRITEBACK
ffff800000401538 r _ZL13PAGE_UPTODATE
ffff800000401540 r _ZL13PAGE_SWAPPING
ffff800000401548 r _ZL15PAGE_REFERENCED
ffff800000401550 r _ZL11PAGE_ACTIVE
ffff800000401558 r _ZL12PAGE_RECLAIM
ffff800000401560 r _ZL25MAX_PHYADDR_1GB_PGS_COUNT
ffff800000401568 r _ZL18DEFAULT_PAT_CONFIG
ffff800000401570 r _ZL16KSPACE_RW_ACCESS
ffff800000401572 r _ZL17KSPACE_RWX_ACCESS
ffff800000401574 r _ZL19KSPACE_RW_UC_ACCESS
ffff800000401576 r _ZL16KSPACE_RX_ACCESS
ffff800000401578 r _ZL15KSPACE_R_ACCESS
ffff80000040157a r _ZL20KSPACE_RWX_NG_ACCESS
ffff80000040157c r _ZL19KSPACE_RW_WC_ACCESS
ffff80000040157e r _ZL13default_flags
ffff800000401580 r _ZL24BUDDY_ALLOC_DEFAULT_FLAG
ffff800000401590 r _ZL22BUDDY_ALLOC_ALWAYS_TRY
ffff8000004015a0 r _ZL20BUDDY_ALLOC_DOWN_4GB
ffff8000004015b0 r _ZL33PASS_THROUGH_DEVICE_GRAPHICS_INFO
ffff8000004015b4 r _ZL32VM_ID_architecture_agnostic_base
ffff8000004015b8 r _ZL20VM_ID_BSP_INIT_STACK
ffff8000004015c0 r _ZL19BSP_INIT_STACK_SIZE
ffff8000004015c8 r _ZL25BSP_INIT_STACK_ALIGN_LOG2
ffff8000004015cc r _ZL16VM_ID_FIRST_HEAP
ffff8000004015d0 r _ZL21FIRST_HEAP_SIZE_CONST
ffff8000004015d8 r _ZL21FIRST_HEAP_ALIGN_LOG2
ffff8000004015dc r _ZL23VM_ID_FIRST_HEAP_BITMAP
ffff8000004015e0 r _ZL22FIRST_HEAP_BITMAP_SIZE
ffff8000004015e8 r _ZL28FIRST_HEAP_BITMAP_ALIGN_LOG2
ffff8000004015ec r _ZL15VM_ID_LOGBUFFER
ffff8000004015f0 r _ZL14LOGBUFFER_SIZE
ffff8000004015f8 r _ZL20LOGBUFFER_ALIGN_LOG2
ffff8000004015fc r _ZL14VM_ID_KSYMBOLS
ffff800000401600 r _ZL13VM_ID_MEM_MAP
ffff800000401604 r _ZL18VM_ID_BCBS_BITMAPS
ffff800000401608 r _ZL18MEM_MAP_ALIGN_LOG2
ffff80000040160c r _ZL20VM_ID_UP_KSPACE_PDPT
ffff800000401610 r _ZL20VM_ID_GRAPHIC_BUFFER
ffff800000401618 r _ZL19UP_KSPACE_PDPT_SIZE
ffff800000401620 r _ZL25UP_KSPACE_PDPT_ALIGN_LOG2
ffff800000401624 r _ZL15VM_ID_HPET_MMIO
ffff800000401628 r _ZN3msrL9IA32_EFERE
ffff80000040162c r _ZN3msr4apicL14IA32_APIC_BASEE
ffff800000401630 r _ZN3msr4apicL14IA32_X2APIC_IDE
ffff800000401634 r _ZN3msr4apicL19IA32_X2APIC_VERSIONE
ffff800000401638 r _ZN3msr4apicL15IA32_X2APIC_TPRE
ffff80000040163c r _ZN3msr4apicL15IA32_X2APIC_PPRE
ffff800000401640 r _ZN3msr4apicL15IA32_X2APIC_EOIE
ffff800000401644 r _ZN3msr4apicL15IA32_X2APIC_LDRE
ffff800000401648 r _ZN3msr4apicL15IA32_X2APIC_SVRE
ffff80000040164c r _ZN3msr4apicL16IA32_X2APIC_ISR0E
ffff800000401650 r _ZN3msr4apicL16IA32_X2APIC_ISR1E
ffff800000401654 r _ZN3msr4apicL16IA32_X2APIC_ISR2E
ffff800000401658 r _ZN3msr4apicL16IA32_X2APIC_ISR3E
ffff80000040165c r _ZN3msr4apicL16IA32_X2APIC_ISR4E
ffff800000401660 r _ZN3msr4apicL16IA32_X2APIC_ISR5E
ffff800000401664 r _ZN3msr4apicL16IA32_X2APIC_ISR6E
ffff800000401668 r _ZN3msr4apicL16IA32_X2APIC_ISR7E
ffff80000040166c r _ZN3msr4apicL16IA32_X2APIC_TMR0E
ffff800000401670 r _ZN3msr4apicL16IA32_X2APIC_TMR1E
ffff800000401674 r _ZN3msr4apicL16IA32_X2APIC_TMR2E
ffff800000401678 r _ZN3msr4apicL16IA32_X2APIC_TMR3E
ffff80000040167c r _ZN3msr4apicL16IA32_X2APIC_TMR4E
ffff800000401680 r _ZN3msr4apicL16IA32_X2APIC_TMR5E
ffff800000401684 r _ZN3msr4apicL16IA32_X2APIC_TMR6E
ffff800000401688 r _ZN3msr4apicL16IA32_X2APIC_TMR7E
ffff80000040168c r _ZN3msr4apicL16IA32_X2APIC_IRR0E
ffff800000401690 r _ZN3msr4apicL16IA32_X2APIC_IRR1E
ffff800000401694 r _ZN3msr4apicL16IA32_X2APIC_IRR2E
ffff800000401698 r _ZN3msr4apicL16IA32_X2APIC_IRR3E
ffff80000040169c r _ZN3msr4apicL16IA32_X2APIC_IRR4E
ffff8000004016a0 r _ZN3msr4apicL16IA32_X2APIC_IRR5E
ffff8000004016a4 r _ZN3msr4apicL16IA32_X2APIC_IRR6E
ffff8000004016a8 r _ZN3msr4apicL16IA32_X2APIC_IRR7E
ffff8000004016ac r _ZN3msr4apicL15IA32_X2APIC_ESRE
ffff8000004016b0 r _ZN3msr4apicL20IA32_X2APIC_LVT_CMCIE
ffff8000004016b4 r _ZN3msr4apicL15IA32_X2APIC_ICRE
ffff8000004016b8 r _ZN3msr4apicL21IA32_X2APIC_LVT_TIMERE
ffff8000004016bc r _ZN3msr4apicL23IA32_X2APIC_LVT_THERMALE
ffff8000004016c0 r _ZN3msr4apicL19IA32_X2APIC_LVT_PMIE
ffff8000004016c4 r _ZN3msr4apicL21IA32_X2APIC_LVT_LINT0E
ffff8000004016c8 r _ZN3msr4apicL21IA32_X2APIC_LVT_LINT1E
ffff8000004016cc r _ZN3msr4apicL21IA32_X2APIC_LVT_ERRORE
ffff8000004016d0 r _ZN3msr4apicL31IA32_X2APIC_TIMER_INITIAL_COUNTE
ffff8000004016d4 r _ZN3msr4apicL31IA32_X2APIC_TIMER_CURRENT_COUNTE
ffff8000004016d8 r _ZN3msr4apicL31IA32_X2APIC_TIMER_DIVIDE_CONFIGE
ffff8000004016dc r _ZN3msr4apicL20IA32_X2APIC_SELF_IPIE
ffff8000004016e0 r _ZN3msr6systemL20IA32_FEATURE_CONTROLE
ffff8000004016e4 r _ZN3msr6systemL8IA32_TSCE
ffff8000004016e8 r _ZN3msr6systemL16IA32_PLATFORM_IDE
ffff8000004016ec r _ZN3msr6systemL19IA32_EBL_CR_POWERONE
ffff8000004016f0 r _ZN3msr6systemL21IA32_EBC_FREQUENCY_IDE
ffff8000004016f4 r _ZN3msr5debugL13IA32_DEBUGCTLE
ffff8000004016f8 r _ZN3msr5debugL21IA32_LASTBRANCHFROMIPE
ffff8000004016fc r _ZN3msr5debugL19IA32_LASTBRANCHTOIPE
ffff800000401700 r _ZN3msr5debugL18IA32_LASTINTFROMIPE
ffff800000401704 r _ZN3msr5debugL16IA32_LASTINTTOIPE
ffff800000401708 r _ZN3msr11performanceL10IA32_MPERFE
ffff80000040170c r _ZN3msr11performanceL10IA32_APERFE
ffff800000401710 r _ZN3msr11performanceL16IA32_PERF_STATUSE
ffff800000401714 r _ZN3msr11performanceL13IA32_PERF_CTLE
ffff800000401718 r _ZN3msr16power_managementL21IA32_CLOCK_MODULATIONE
ffff80000040171c r _ZN3msr16power_managementL20IA32_THERM_INTERRUPTE
ffff800000401720 r _ZN3msr16power_managementL17IA32_THERM_STATUSE
ffff800000401724 r _ZN3msr16power_managementL16IA32_MISC_ENABLEE
ffff800000401728 r _ZN3msr4mtrrL13IA32_MTRR_CAPE
ffff80000040172c r _ZN3msr4mtrrL18IA32_MTRR_DEF_TYPEE
ffff800000401730 r _ZN3msr4mtrrL19IA32_MTRR_PHYSBASE0E
ffff800000401734 r _ZN3msr4mtrrL19IA32_MTRR_PHYSMASK0E
ffff800000401738 r _ZN3msr4mtrrL19IA32_MTRR_PHYSBASE1E
ffff80000040173c r _ZN3msr4mtrrL19IA32_MTRR_PHYSMASK1E
ffff800000401740 r _ZN3msr4mtrrL19IA32_MTRR_PHYSBASE2E
ffff800000401744 r _ZN3msr4mtrrL19IA32_MTRR_PHYSMASK2E
ffff800000401748 r _ZN3msr4mtrrL19IA32_MTRR_PHYSBASE3E
ffff80000040174c r _ZN3msr4mtrrL19IA32_MTRR_PHYSMASK3E
ffff800000401750 r _ZN3msr4mtrrL19IA32_MTRR_PHYSBASE4E
ffff800000401754 r _ZN3msr4mtrrL19IA32_MTRR_PHYSMASK4E
ffff800000401758 r _ZN3msr4mtrrL19IA32_MTRR_PHYSBASE5E
ffff80000040175c r _ZN3msr4mtrrL19IA32_MTRR_PHYSMASK5E
ffff800000401760 r _ZN3msr4mtrrL19IA32_MTRR_PHYSBASE6E
ffff800000401764 r _ZN3msr4mtrrL19IA32_MTRR_PHYSMASK6E
ffff800000401768 r _ZN3msr4mtrrL19IA32_MTRR_PHYSBASE7E
ffff80000040176c r _ZN3msr4mtrrL19IA32_MTRR_PHYSMASK7E
ffff800000401770 r _ZN3msr4mtrrL19IA32_MTRR_PHYSBASE8E
ffff800000401774 r _ZN3msr4mtrrL19IA32_MTRR_PHYSMASK8E
ffff800000401778 r _ZN3msr4mtrrL19IA32_MTRR_PHYSBASE9E
ffff80000040177c r _ZN3msr4mtrrL19IA32_MTRR_PHYSMASK9E
ffff800000401780 r _ZN3msr4mtrrL22IA32_MTRR_FIX64K_00000E
ffff800000401784 r _ZN3msr4mtrrL22IA32_MTRR_FIX16K_80000E
ffff800000401788 r _ZN3msr4mtrrL22IA32_MTRR_FIX16K_A0000E
ffff80000040178c r _ZN3msr4mtrrL21IA32_MTRR_FIX4K_C0000E
ffff800000401790 r _ZN3msr4mtrrL21IA32_MTRR_FIX4K_C8000E
ffff800000401794 r _ZN3msr4mtrrL21IA32_MTRR_FIX4K_D0000E
ffff800000401798 r _ZN3msr4mtrrL21IA32_MTRR_FIX4K_D8000E
ffff80000040179c r _ZN3msr4mtrrL21IA32_MTRR_FIX4K_E0000E
ffff8000004017a0 r _ZN3msr4mtrrL21IA32_MTRR_FIX4K_E8000E
ffff8000004017a4 r _ZN3msr4mtrrL21IA32_MTRR_FIX4K_F0000E
ffff8000004017a8 r _ZN3msr4mtrrL21IA32_MTRR_FIX4K_F8000E
ffff8000004017ac r _ZN3msr4mtrrL8IA32_PATE
ffff8000004017b0 r _ZN3msr3vmxL14IA32_VMX_BASICE
ffff8000004017b4 r _ZN3msr3vmxL22IA32_VMX_PINBASED_CTLSE
ffff8000004017b8 r _ZN3msr3vmxL23IA32_VMX_PROCBASED_CTLSE
ffff8000004017bc r _ZN3msr3vmxL18IA32_VMX_EXIT_CTLSE
ffff8000004017c0 r _ZN3msr3vmxL19IA32_VMX_ENTRY_CTLSE
ffff8000004017c4 r _ZN3msr3vmxL13IA32_VMX_MISCE
ffff8000004017c8 r _ZN3msr3vmxL19IA32_VMX_CR0_FIXED0E
ffff8000004017cc r _ZN3msr3vmxL19IA32_VMX_CR0_FIXED1E
ffff8000004017d0 r _ZN3msr3vmxL19IA32_VMX_CR4_FIXED0E
ffff8000004017d4 r _ZN3msr3vmxL19IA32_VMX_CR4_FIXED1E
ffff8000004017d8 r _ZN3msr3vmxL18IA32_VMX_VMCS_ENUME
ffff8000004017dc r _ZN3msr3vmxL24IA32_VMX_PROCBASED_CTLS2E
ffff8000004017e0 r _ZN3msr3vmxL21IA32_VMX_EPT_VPID_CAPE
ffff8000004017e4 r _ZN3msr3vmxL27IA32_VMX_TRUE_PINBASED_CTLSE
ffff8000004017e8 r _ZN3msr3vmxL28IA32_VMX_TRUE_PROCBASED_CTLSE
ffff8000004017ec r _ZN3msr3vmxL23IA32_VMX_TRUE_EXIT_CTLSE
ffff8000004017f0 r _ZN3msr3vmxL24IA32_VMX_TRUE_ENTRY_CTLSE
ffff8000004017f4 r _ZN3msr3vmxL15IA32_VMX_VMFUNCE
ffff8000004017f8 r _ZN3msr3sgxL21IA32_SGXLEPUBKEYHASH0E
ffff8000004017fc r _ZN3msr3sgxL21IA32_SGXLEPUBKEYHASH1E
ffff800000401800 r _ZN3msr3sgxL21IA32_SGXLEPUBKEYHASH2E
ffff800000401804 r _ZN3msr3sgxL21IA32_SGXLEPUBKEYHASH3E
ffff800000401808 r _ZN3msr4fredL14IA32_FRED_RSP0E
ffff80000040180c r _ZN3msr4fredL14IA32_FRED_RSP1E
ffff800000401810 r _ZN3msr4fredL14IA32_FRED_RSP2E
ffff800000401814 r _ZN3msr4fredL14IA32_FRED_RSP3E
ffff800000401818 r _ZN3msr4fredL17IA32_FRED_STKLVLSE
ffff80000040181c r _ZN3msr4fredL14IA32_FRED_SSP1E
ffff800000401820 r _ZN3msr4fredL14IA32_FRED_SSP2E
ffff800000401824 r _ZN3msr4fredL14IA32_FRED_SSP3E
ffff800000401828 r _ZN3msr4fredL16IA32_FRED_CONFIGE
ffff800000401830 r _ZN3msr4fred6configL8CSL_MASKE
ffff800000401838 r _ZN3msr4fred6configL17RSP_DEC_STEP_MASKE
ffff800000401840 r _ZN3msr4fred6configL15INT_STKLVL_MASKE
ffff800000401848 r _ZN3msr4fred6configL15ENTRY_PAGE_MASKE
ffff800000401850 r _ZN3msrL12IA32_PL0_SSPE
ffff800000401854 r _ZN3msr5timerL17IA32_TSC_DEADLINEE
ffff800000401858 r _ZN3msr7syscallL16IA32_SYSENTER_CSE
ffff80000040185c r _ZN3msr7syscallL17IA32_SYSENTER_ESPE
ffff800000401860 r _ZN3msr7syscallL17IA32_SYSENTER_EIPE
ffff800000401864 r _ZN3msr7syscallL9IA32_STARE
ffff800000401868 r _ZN3msr7syscallL10IA32_LSTARE
ffff80000040186c r _ZN3msr7syscallL10IA32_FMASKE
ffff800000401870 r _ZN3msr7syscallL12IA32_FS_BASEE
ffff800000401874 r _ZN3msr7syscallL12IA32_GS_BASEE
ffff800000401878 r _ZN3msr7syscallL19IA32_KERNEL_GS_BASEE
ffff80000040187c r _ZN3msr7syscallL12IA32_TSC_AUXE
ffff800000401880 r _ZN14x86_exceptionsL12DIVIDE_ERRORE
ffff800000401881 r _ZN14x86_exceptionsL5DEBUGE
ffff800000401882 r _ZN14x86_exceptionsL3NMIE
ffff800000401883 r _ZN14x86_exceptionsL10BREAKPOINTE
ffff800000401884 r _ZN14x86_exceptionsL8OVERFLOWE
ffff800000401885 r _ZN14x86_exceptionsL20BOUND_RANGE_EXCEEDEDE
ffff800000401886 r _ZN14x86_exceptionsL14INVALID_OPCODEE
ffff800000401887 r _ZN14x86_exceptionsL20DEVICE_NOT_AVAILABLEE
ffff800000401888 r _ZN14x86_exceptionsL12DOUBLE_FAULTE
ffff800000401889 r _ZN14x86_exceptionsL27COPROCESSOR_SEGMENT_OVERRUNE
ffff80000040188a r _ZN14x86_exceptionsL11INVALID_TSSE
ffff80000040188b r _ZN14x86_exceptionsL19SEGMENT_NOT_PRESENTE
ffff80000040188c r _ZN14x86_exceptionsL19STACK_SEGMENT_FAULTE
ffff80000040188d r _ZN14x86_exceptionsL24GENERAL_PROTECTION_FAULTE
ffff80000040188e r _ZN14x86_exceptionsL10PAGE_FAULTE
ffff80000040188f r _ZN14x86_exceptionsL13X87_FPU_ERRORE
ffff800000401890 r _ZN14x86_exceptionsL15ALIGNMENT_CHECKE
ffff800000401891 r _ZN14x86_exceptionsL13MACHINE_CHECKE
ffff800000401892 r _ZN14x86_exceptionsL29SIMD_FLOATING_POINT_EXCEPTIONE
ffff800000401893 r _ZN14x86_exceptionsL24VIRTUALIZATION_EXCEPTIONE
ffff800000401894 r _ZN14x86_exceptionsL28CONTROL_PROTECTION_EXCEPTIONE
ffff800000401895 r _ZN21x86_softinterrupt_abiL9ASM_PANICE
ffff800000401896 r _ZN21x86_softinterrupt_abiL12KTHREAD_CALLE
ffff800000401897 r _ZN21x86_softinterrupt_abiL14USER_ABI_ENTERE
ffff800000401898 r _ZN8ipi_vecsL11IPI_RUNAWAYE
ffff800000401899 r _ZN8ipi_vecsL14IPI_RETURNABLEE
ffff80000040189a r _ZN8ipi_vecsL8IPI_HALTE
ffff80000040189b r _ZN8ipi_vecsL11IPI_RESCHEDE
ffff80000040189c r _ZL18SUPRIOUS_INTERRUPT
ffff8000004018a0 r _ZL11ARCH_x86_64
ffff8000004018a8 r _ZL30TOKEN_FLAG_MASK_TOKEN_SCHEDULE
ffff8000004018b0 r _ZN6x2apic8ESR_BITSL19SEND_CHECKSUM_ERRORE
ffff8000004018b1 r _ZN6x2apic8ESR_BITSL22RECEIVE_CHECKSUM_ERRORE
ffff8000004018b2 r _ZN6x2apic8ESR_BITSL17SEND_ACCEPT_ERRORE
ffff8000004018b3 r _ZN6x2apic8ESR_BITSL20RECEIVE_ACCEPT_ERRORE
ffff8000004018b4 r _ZN6x2apic8ESR_BITSL16REDIRECTABLE_IPIE
ffff8000004018b5 r _ZN6x2apic8ESR_BITSL19SEND_ILLEGAL_VECTORE
ffff8000004018b6 r _ZN6x2apic8ESR_BITSL22RECEIVE_ILLEGAL_VECTORE
ffff8000004018b7 r _ZN6x2apic8ESR_BITSL21ILLEGAL_REGISTER_ADDRE
ffff8000004018b8 r _ZN6x2apic8ESR_BITSL14RESERVED_STARTE
ffff8000004018b9 r _ZN6x2apic8ESR_BITSL12RESERVED_ENDE
ffff8000004018bc r _ZN6x2apic9ESR_MASKSL19SEND_CHECKSUM_ERRORE
ffff8000004018c0 r _ZN6x2apic9ESR_MASKSL22RECEIVE_CHECKSUM_ERRORE
ffff8000004018c4 r _ZN6x2apic9ESR_MASKSL17SEND_ACCEPT_ERRORE
ffff8000004018c8 r _ZN6x2apic9ESR_MASKSL20RECEIVE_ACCEPT_ERRORE
ffff8000004018cc r _ZN6x2apic9ESR_MASKSL16REDIRECTABLE_IPIE
ffff8000004018d0 r _ZN6x2apic9ESR_MASKSL19SEND_ILLEGAL_VECTORE
ffff8000004018d4 r _ZN6x2apic9ESR_MASKSL22RECEIVE_ILLEGAL_VECTORE
ffff8000004018d8 r _ZN6x2apic9ESR_MASKSL21ILLEGAL_REGISTER_ADDRE
ffff8000004018dc r _ZN6x2apic9ESR_MASKSL13RESERVED_MASKE
ffff8000004018e0 r _ZN6x2apic9ESR_MASKSL16ERROR_FLAGS_MASKE
ffff8000004018e4 r _ZN6x2apic9ESR_MASKSL15CHECKSUM_ERRORSE
ffff8000004018e8 r _ZN6x2apic9ESR_MASKSL13ACCEPT_ERRORSE
ffff8000004018ec r _ZN6x2apic9ESR_MASKSL21ILLEGAL_VECTOR_ERRORSE
ffff8000004018f0 r _ZN6x2apic9ESR_MASKSL15ALL_ERROR_FLAGSE
ffff8000004018f8 r _ZN6x2apicL12ddline_timerE
ffff800000401900 r _ZN31INTERRUPT_SUB_MODULES_LOCATIONSL24LOCATION_CODE_PROCESSORSE
ffff800000401901 r _ZN31INTERRUPT_SUB_MODULES_LOCATIONSL13loc_processorE
ffff800000401902 r _ZN18MEMMODULE_LOCAIONSL7INVALIDE
ffff800000401903 r _ZN18MEMMODULE_LOCAIONSL25LOCATION_CODE_BASE_MEMMGRE
ffff800000401904 r _ZN18MEMMODULE_LOCAIONSL29LOCATION_CODE_PHYMEM_ACCESSORE
ffff800000401905 r _ZN18MEMMODULE_LOCAIONSL28LOCATION_CODE_KSPACE_MAP_MGRE
ffff800000401906 r _ZN18MEMMODULE_LOCAIONSL25LOCATION_CODE_ADDRESSPACEE
ffff800000401907 r _ZN18MEMMODULE_LOCAIONSL26LOCATION_CODE_OUT_SURFACESE
ffff800000401908 r _ZN18MEMMODULE_LOCAIONSL25LOCATION_CODE_KPOOLMEMMGRE
ffff800000401909 r _ZN18MEMMODULE_LOCAIONS18KPOOLMEMMGR_EVENTSL15EVENT_CODE_INITE
ffff80000040190a r _ZN18MEMMODULE_LOCAIONS18KPOOLMEMMGR_EVENTSL16EVENT_CODE_ALLOCE
ffff80000040190c r _ZN18MEMMODULE_LOCAIONS18KPOOLMEMMGR_EVENTS13ALLOC_RESULTS11FAIL_RESONSL28REASON_CODE_NO_AVALIABLE_MEME
ffff80000040190e r _ZN18MEMMODULE_LOCAIONS18KPOOLMEMMGR_EVENTS13ALLOC_RESULTS11FAIL_RESONSL24REASON_CODE_SIZE_IS_ZEROE
ffff800000401910 r _ZN18MEMMODULE_LOCAIONS18KPOOLMEMMGR_EVENTSL18EVENT_CODE_REALLOCE
ffff800000401912 r _ZN18MEMMODULE_LOCAIONS18KPOOLMEMMGR_EVENTS15REALLOC_RESULTS11FAIL_RESONSL31REASON_CODE_DEMAND_SIZE_IS_ZEROE
ffff800000401914 r _ZN18MEMMODULE_LOCAIONS18KPOOLMEMMGR_EVENTS15REALLOC_RESULTS11FAIL_RESONSL31REASON_CODE_PTR_NOT_IN_ANY_HEAPE
ffff800000401916 r _ZN18MEMMODULE_LOCAIONS18KPOOLMEMMGR_EVENTS15REALLOC_RESULTS11FAIL_RESONSL28REASON_CODE_NO_AVALIABLE_MEME
ffff800000401918 r _ZN18MEMMODULE_LOCAIONS18KPOOLMEMMGR_EVENTSL34EVENT_CODE_PER_PROCESSOR_HEAP_INITE
ffff80000040191a r _ZN18MEMMODULE_LOCAIONS18KPOOLMEMMGR_EVENTS31PER_PROCESSOR_HEAP_INIT_RESULTS11FAIL_RESONSL27REASON_CODE_ALREADY_ENABLEDE
ffff80000040191c r _ZN18MEMMODULE_LOCAIONS18KPOOLMEMMGR_EVENTS31PER_PROCESSOR_HEAP_INIT_RESULTS11FAIL_RESONSL31REASON_CODE_BAD_PROCESSOR_COUNTE
ffff80000040191e r _ZN18MEMMODULE_LOCAIONS18KPOOLMEMMGR_EVENTS31PER_PROCESSOR_HEAP_INIT_RESULTS11FAIL_RESONSL26REASON_CODE_NO_VADDR_SPACEE
ffff800000401920 r _ZN18MEMMODULE_LOCAIONS18KPOOLMEMMGR_EVENTS31PER_PROCESSOR_HEAP_INIT_RESULTS11FAIL_RESONSL23REASON_CODE_VM_ADD_FAILE
ffff800000401922 r _ZN18MEMMODULE_LOCAIONS18KPOOLMEMMGR_EVENTS31PER_PROCESSOR_HEAP_INIT_RESULTS11FAIL_RESONSL28REASON_CODE_IDX_OUT_OF_RANGEE
ffff800000401924 r _ZN18MEMMODULE_LOCAIONS18KPOOLMEMMGR_EVENTS31PER_PROCESSOR_HEAP_INIT_RESULTS11FAIL_RESONSL31REASON_CODE_HEAP_ALREADY_EXISTSE
ffff800000401926 r _ZN18MEMMODULE_LOCAIONS18KPOOLMEMMGR_EVENTS31PER_PROCESSOR_HEAP_INIT_RESULTS11FAIL_RESONSL26REASON_CODE_HEAP_NOT_EXISTE
ffff800000401928 r _ZN18MEMMODULE_LOCAIONSL32LOCATION_CODE_KPOOLMEMMGR_HCB_V3E
ffff800000401929 r _ZN18MEMMODULE_LOCAIONS25KPOOLMEMMGR_HCB_V3_EVENTSL17EVENT_CODE_ONLINEE
ffff80000040192a r _ZN18MEMMODULE_LOCAIONS25KPOOLMEMMGR_HCB_V3_EVENTSL18EVENT_CODE_OFFLINEE
ffff80000040192b r _ZN18MEMMODULE_LOCAIONS25KPOOLMEMMGR_HCB_V3_EVENTSL16EVENT_CODE_ALLOCE
ffff80000040192c r _ZN18MEMMODULE_LOCAIONS25KPOOLMEMMGR_HCB_V3_EVENTSL15EVENT_CODE_FREEE
ffff80000040192d r _ZN18MEMMODULE_LOCAIONS25KPOOLMEMMGR_HCB_V3_EVENTSL18EVENT_CODE_REALLOCE
ffff80000040192e r _ZN18MEMMODULE_LOCAIONS25KPOOLMEMMGR_HCB_V3_EVENTSL25EVENT_CODE_INTERNAL_ALLOCE
ffff80000040192f r _ZN18MEMMODULE_LOCAIONS25KPOOLMEMMGR_HCB_V3_EVENTSL24EVENT_CODE_INTERNAL_FREEE
ffff800000401930 r _ZN18MEMMODULE_LOCAIONS25KPOOLMEMMGR_HCB_V3_EVENTSL16EVENT_CODE_CLEARE
ffff800000401932 r _ZN18MEMMODULE_LOCAIONS25KPOOLMEMMGR_HCB_V3_EVENTS19COMMON_FAIL_REASONSL20REASON_CODE_BAD_ADDRE
ffff800000401934 r _ZN18MEMMODULE_LOCAIONS25KPOOLMEMMGR_HCB_V3_EVENTS19COMMON_FAIL_REASONSL30REASON_CODE_ADDR_NOT_THIS_HEAPE
ffff800000401936 r _ZN18MEMMODULE_LOCAIONS25KPOOLMEMMGR_HCB_V3_EVENTS20COMMON_FATAL_REASONSL30REASON_CODE_METADATA_DESTROYEDE
ffff800000401938 r _ZN18MEMMODULE_LOCAIONS25KPOOLMEMMGR_HCB_V3_EVENTS22INTERNAL_ALLOC_RESULTS11FAIL_RESONSL30REASON_CODE_NO_AVALIABLE_BUDDYE
ffff80000040193a r _ZN18MEMMODULE_LOCAIONS25KPOOLMEMMGR_HCB_V3_EVENTS13ALLOC_RESULTS12FAIL_REASONSL24REASON_CODE_SIZE_IS_ZEROE
ffff80000040193c r _ZN18MEMMODULE_LOCAIONS25KPOOLMEMMGR_HCB_V3_EVENTS13ALLOC_RESULTS12FAIL_REASONSL26REASON_CODE_SIZE_TOO_LARGEE
ffff80000040193e r _ZN18MEMMODULE_LOCAIONS25KPOOLMEMMGR_HCB_V3_EVENTS12FREE_RESULTS13FATAL_REASONSL18DOUBLE_FREE_DETECTE
ffff800000401940 r _ZN18MEMMODULE_LOCAIONS25KPOOLMEMMGR_HCB_V3_EVENTS12FREE_RESULTS13FATAL_REASONSL22MERGE_BUT_ALREADY_FREEE
ffff800000401948 r _ZL14HCB_evict_span
ffff800000401950 r _ZL23HCB_evictor_sleep_cycle
ffff800000401958 r _ZN8gdtentryL17execute_only_typeE
ffff800000401959 r _ZN8gdtentryL15read_write_typeE
ffff80000040195a r _ZN31INTERRUPT_SUB_MODULES_LOCATIONS21PROCESSORS_EVENT_CODEL25EVENT_CODE_RUNTIME_RESGISE
ffff80000040195b r _ZN31INTERRUPT_SUB_MODULES_LOCATIONS21PROCESSORS_EVENT_CODEL19EVENT_CODE_APS_INITE
ffff80000040195c r _ZN31INTERRUPT_SUB_MODULES_LOCATIONS21PROCESSORS_EVENT_CODE21APS_INIT_RESULTS_CODE17RETRY_REASON_CODEL43RETRY_REASON_CODE_DEPENDIES_NOT_INITIALIZEDE
ffff80000040195e r _ZN31INTERRUPT_SUB_MODULES_LOCATIONS21PROCESSORS_EVENT_CODE21APS_INIT_RESULTS_CODE20PARTIAL_SUCCESS_CODEL42PARTIAL_SUCCESS_CODE_SOME_APS_IPI_TIME_OUTE
ffff80000040195f r _ZN31INTERRUPT_SUB_MODULES_LOCATIONS21PROCESSORS_EVENT_CODE21APS_INIT_RESULTS_CODE12FATAL_REASONL13AP_STAGE_FAILE
ffff800000401960 r _ZL18kspace_DS_SS_entry
ffff800000401968 r _ZL15kspace_CS_entry
ffff800000401970 r _ZL21userspace_DS_SS_entry
ffff800000401978 r _ZL18userspace_CS_entry
ffff800000401980 r _ZL10base0_mask
ffff800000401988 r _ZL10base1_mask
ffff800000401990 r _ZL10base2_mask
ffff800000401998 r _ZL10base3_mask
ffff8000004019a0 r _ZL13gdt_headcount
ffff8000004019a4 r _ZL23GS_SLOT_MAX_ENTRY_COUNT
ffff8000004019a8 r _ZL26STACK_PROTECTOR_CANARY_IDX
ffff8000004019a9 r _ZL8K_cs_idx
ffff8000004019aa r _ZL11K_ds_ss_idx
ffff8000004019ab r _ZL8U_cs_idx
ffff8000004019ac r _ZL11U_ds_ss_idx
ffff8000004019b0 r _ZL14RSP0_STACKSIZE
ffff8000004019b4 r _ZL12DF_STACKSIZE
ffff8000004019b8 r _ZL12MC_STACKSIZE
ffff8000004019bc r _ZL13NMI_STACKSIZE
ffff8000004019c0 r _ZL16BP_DBG_STACKSIZE
ffff8000004019c4 r _ZL16total_stack_size
ffff8000004019c8 r _ZL18L_PROCESSOR_GS_IDX
ffff8000004019cc r _ZN16Interrupt_moduleL16modloc_vec_demuxE
ffff8000004019ce r _ZN16Interrupt_module16vec_demux_events23common_fail_reason_codeL11INVALID_VECE
ffff8000004019d0 r _ZN16Interrupt_module16vec_demux_events23common_fail_reason_codeL20INVALID_PROCESSOR_IDE
ffff8000004019d2 r _ZN16Interrupt_module16vec_demux_eventsL4initE
ffff8000004019d3 r _ZN16Interrupt_module16vec_demux_events12init_results17fatal_reason_codeL24SYMBOL_TABLE_UNAVAILABLEE
ffff8000004019d4 r _ZN16Interrupt_module16vec_demux_events12init_results17fatal_reason_codeL17NOT_ALL_IDT_FOUNDE
ffff8000004019d5 r _ZN16Interrupt_module16vec_demux_eventsL9alloc_vecE
ffff8000004019d6 r _ZN16Interrupt_module16vec_demux_events17alloc_vec_results16fail_reason_codeL11NO_FREE_VECE
ffff8000004019d8 r _ZN16Interrupt_module16vec_demux_events17alloc_vec_results16fail_reason_codeL12BAD_FUNC_PTRE
ffff8000004019da r _ZN16Interrupt_module16vec_demux_events17alloc_vec_results16fail_reason_codeL13SYM_NOT_FOUNDE
ffff8000004019dc r _ZN16Interrupt_module16vec_demux_eventsL8free_vecE
ffff8000004019de r _ZN16Interrupt_module16vec_demux_events16free_vec_results16fail_reason_codeL15VEC_NOT_ALLOCEDE
ffff8000004019e0 r _ZN16Interrupt_module16vec_demux_eventsL7get_vecE
ffff8000004019e1 r _ZN16Interrupt_module16vec_demux_eventsL8dispatchE
ffff8000004019e2 r _ZN16Interrupt_module16vec_demux_events16dispatch_results17fatal_reason_codeL16BAD_VEC_RECIEVEDE
ffff8000004019e4 r _ZL21INVALID_INTERRUPT_VEC
ffff800000401c20 r _ZL6LOCKED
ffff800000401c21 r _ZL8UNLOCKED
ffff800000401c24 r _ZL16UART_TC_RING_CAP
ffff800000401c28 r _ZL25UART_TC_SERVICE_POP_BATCH
ffff800000401c30 r _ZL10empty_kurd
ffff800000401c38 r _ZN10level_codeL7INVALIDE
ffff800000401c39 r _ZN10level_codeL4INFOE
ffff800000401c3a r _ZN10level_codeL6NOTICEE
ffff800000401c3b r _ZN10level_codeL7WARNINGE
ffff800000401c3c r _ZN10level_codeL5ERRORE
ffff800000401c3d r _ZN10level_codeL5FATALE
ffff800000401c3e r _ZN11module_codeL7INVALIDE
ffff800000401c3f r _ZN11module_codeL6MEMORYE
ffff800000401c40 r _ZN11module_codeL9SCHEDULERE
ffff800000401c41 r _ZN11module_codeL9INTERRUPTE
ffff800000401c42 r _ZN11module_codeL8FIRMWAREE
ffff800000401c43 r _ZN11module_codeL3VFSE
ffff800000401c44 r _ZN11module_codeL3VMME
ffff800000401c45 r _ZN11module_codeL5INFRAE
ffff800000401c46 r _ZN11module_codeL6DEVICEE
ffff800000401c47 r _ZN11module_codeL12DEVICES_COREE
ffff800000401c48 r _ZN11module_codeL14HARDWARE_DEBUGE
ffff800000401c49 r _ZN11module_codeL15USER_KERNEL_ABIE
ffff800000401c4a r _ZN11module_codeL4TIMEE
ffff800000401c4b r _ZN11module_codeL5PANICE
ffff800000401c4c r _ZN11result_codeL7SUCCESSE
ffff800000401c4e r _ZN11result_codeL23SUCCESS_BUT_SIDE_EFFECTE
ffff800000401c50 r _ZN11result_codeL15PARTIAL_SUCCESSE
ffff800000401c52 r _ZN11result_codeL4FAILE
ffff800000401c54 r _ZN11result_codeL5RETRYE
ffff800000401c56 r _ZN11result_codeL5FATALE
ffff800000401c58 r _ZN10err_domainL7INVALIDE
ffff800000401c59 r _ZN10err_domainL11CORE_MODULEE
ffff800000401c5a r _ZN10err_domainL4ARCHE
ffff800000401c5b r _ZN10err_domainL4USERE
ffff800000401c5c r _ZN10err_domainL10HYPERVISORE
ffff800000401c5d r _ZN10err_domainL11OUT_MODULESE
ffff800000401c5e r _ZN10err_domainL11FILE_SYSTEME
ffff800000401c5f r _ZN10err_domainL8HARDWAREE
ffff800000401c60 r _ZL10PAGE_DIRTY
ffff800000401c68 r _ZL11PAGE_LOCKED
ffff800000401c70 r _ZL14PAGE_WRITEBACK
ffff800000401c78 r _ZL13PAGE_UPTODATE
ffff800000401c80 r _ZL13PAGE_SWAPPING
ffff800000401c88 r _ZL15PAGE_REFERENCED
ffff800000401c90 r _ZL11PAGE_ACTIVE
ffff800000401c98 r _ZL12PAGE_RECLAIM
ffff800000401ca0 r _ZL25MAX_PHYADDR_1GB_PGS_COUNT
ffff800000401ca8 r _ZL18DEFAULT_PAT_CONFIG
ffff800000401cb0 r _ZL16KSPACE_RW_ACCESS
ffff800000401cb2 r _ZL17KSPACE_RWX_ACCESS
ffff800000401cb4 r _ZL19KSPACE_RW_UC_ACCESS
ffff800000401cb6 r _ZL16KSPACE_RX_ACCESS
ffff800000401cb8 r _ZL15KSPACE_R_ACCESS
ffff800000401cba r _ZL20KSPACE_RWX_NG_ACCESS
ffff800000401cbc r _ZL19KSPACE_RW_WC_ACCESS
ffff800000401cbe r _ZL13default_flags
ffff800000401cc0 r _ZL24BUDDY_ALLOC_DEFAULT_FLAG
ffff800000401cd0 r _ZL22BUDDY_ALLOC_ALWAYS_TRY
ffff800000401ce0 r _ZL20BUDDY_ALLOC_DOWN_4GB
ffff800000401cf0 r _ZL33PASS_THROUGH_DEVICE_GRAPHICS_INFO
ffff800000401cf4 r _ZL32VM_ID_architecture_agnostic_base
ffff800000401cf8 r _ZL20VM_ID_BSP_INIT_STACK
ffff800000401d00 r _ZL19BSP_INIT_STACK_SIZE
ffff800000401d08 r _ZL25BSP_INIT_STACK_ALIGN_LOG2
ffff800000401d0c r _ZL16VM_ID_FIRST_HEAP
ffff800000401d10 r _ZL21FIRST_HEAP_SIZE_CONST
ffff800000401d18 r _ZL21FIRST_HEAP_ALIGN_LOG2
ffff800000401d1c r _ZL23VM_ID_FIRST_HEAP_BITMAP
ffff800000401d20 r _ZL22FIRST_HEAP_BITMAP_SIZE
ffff800000401d28 r _ZL28FIRST_HEAP_BITMAP_ALIGN_LOG2
ffff800000401d2c r _ZL15VM_ID_LOGBUFFER
ffff800000401d30 r _ZL14LOGBUFFER_SIZE
ffff800000401d38 r _ZL20LOGBUFFER_ALIGN_LOG2
ffff800000401d3c r _ZL14VM_ID_KSYMBOLS
ffff800000401d40 r _ZL13VM_ID_MEM_MAP
ffff800000401d44 r _ZL18VM_ID_BCBS_BITMAPS
ffff800000401d48 r _ZL18MEM_MAP_ALIGN_LOG2
ffff800000401d4c r _ZL20VM_ID_UP_KSPACE_PDPT
ffff800000401d50 r _ZL20VM_ID_GRAPHIC_BUFFER
ffff800000401d58 r _ZL19UP_KSPACE_PDPT_SIZE
ffff800000401d60 r _ZL25UP_KSPACE_PDPT_ALIGN_LOG2
ffff800000401d64 r _ZL15VM_ID_HPET_MMIO
ffff800000401d68 r _ZN23COREHARDWARES_LOCATIONSL27LOCATION_CODE_GOP_PRIMITIVEE
ffff800000401d69 r _ZN23COREHARDWARES_LOCATIONS28GOP_PRIMITIVE_DRIVERS_EVENTSL4INITE
ffff800000401d6a r _ZN23COREHARDWARES_LOCATIONS28GOP_PRIMITIVE_DRIVERS_EVENTS12INIT_RESULTS12FAIL_REASONSL21PARAM_METAINF_NULLPTRE
ffff800000401d6c r _ZN23COREHARDWARES_LOCATIONS28GOP_PRIMITIVE_DRIVERS_EVENTS12INIT_RESULTS12FAIL_REASONSL9BAD_PARAME
ffff800000401d6e r _ZN23COREHARDWARES_LOCATIONS28GOP_PRIMITIVE_DRIVERS_EVENTS12INIT_RESULTS12FAIL_REASONSL13ALLREADE_INITE
ffff800000401d70 r _ZN23COREHARDWARES_LOCATIONSL22LOCATION_CODE_INIT_GOPE
ffff800000401d71 r _ZN23COREHARDWARES_LOCATIONS15INIT_GOP_EVENTSL4INITE
ffff800000401d72 r _ZN23COREHARDWARES_LOCATIONS15INIT_GOP_EVENTS12INIT_RESULTS12FAIL_REASONSL21PARAM_METAINF_NULLPTRE
ffff800000401d74 r _ZN23COREHARDWARES_LOCATIONS15INIT_GOP_EVENTS12INIT_RESULTS12FAIL_REASONSL9BAD_PARAME
ffff800000401d76 r _ZN23COREHARDWARES_LOCATIONS15INIT_GOP_EVENTS12INIT_RESULTS12FAIL_REASONSL13ALLREADE_INITE
ffff800000401d78 r _ZN23COREHARDWARES_LOCATIONS15INIT_GOP_EVENTS12INIT_RESULTS12FAIL_REASONSL20MODIFY_ACCESS_FAILEDE
ffff800000401d80 r _ZN4NVMeL17entry_block_tokenE
ffff800000401d88 r _ZN4NVMe6statusL21SUCCESSFUL_COMPLETIONE
ffff800000401d8a r _ZN4NVMe6statusL22INVALID_COMMAND_OPCODEE
ffff800000401d8c r _ZN4NVMe6statusL24INVALID_FIELD_IN_COMMANDE
ffff800000401d8e r _ZN4NVMe6statusL19COMMAND_ID_CONFLICTE
ffff800000401d90 r _ZN4NVMe6statusL19DATA_TRANSFER_ERRORE
ffff800000401d92 r _ZN4NVMe6statusL47COMMANDS_ABORTED_DUE_TO_POWER_LOSS_NOTIFICATIONE
ffff800000401d94 r _ZN4NVMe6statusL14INTERNAL_ERRORE
ffff800000401d96 r _ZN4NVMe6statusL23COMMAND_ABORT_REQUESTEDE
ffff800000401d98 r _ZN4NVMe6statusL34COMMAND_ABORTED_DUE_TO_SQ_DELETIONE
ffff800000401d9a r _ZN4NVMe6statusL43COMMAND_ABORTED_DUE_TO_FAILED_FUSED_COMMANDE
ffff800000401d9c r _ZN4NVMe6statusL44COMMAND_ABORTED_DUE_TO_MISSING_FUSED_COMMANDE
ffff800000401d9e r _ZN4NVMe6statusL27INVALID_NAMESPACE_OR_FORMATE
ffff800000401da0 r _ZN4NVMe6statusL22COMMAND_SEQUENCE_ERRORE
ffff800000401da2 r _ZN4NVMe6statusL30INVALID_SGL_SEGMENT_DESCRIPTORE
ffff800000401da4 r _ZN4NVMe6statusL33INVALID_NUMBER_OF_SGL_DESCRIPTORSE
ffff800000401da6 r _ZN4NVMe6statusL23DATA_SGL_LENGTH_INVALIDE
ffff800000401da8 r _ZN4NVMe6statusL27METADATA_SGL_LENGTH_INVALIDE
ffff800000401daa r _ZN4NVMe6statusL27SGL_DESCRIPTOR_TYPE_INVALIDE
ffff800000401dac r _ZN4NVMe6statusL39INVALID_USE_OF_CONTROLLER_MEMORY_BUFFERE
ffff800000401dae r _ZN4NVMe6statusL18PRP_OFFSET_INVALIDE
ffff800000401db0 r _ZN4NVMe6statusL26ATOMIC_WRITE_UNIT_EXCEEDEDE
ffff800000401db2 r _ZN4NVMe6statusL16OPERATION_DENIEDE
ffff800000401db4 r _ZN4NVMe6statusL18SGL_OFFSET_INVALIDE
ffff800000401db6 r _ZN4NVMe6statusL35HOST_IDENTIFIER_INCONSISTENT_FORMATE
ffff800000401db8 r _ZN4NVMe6statusL24KEEP_ALIVE_TIMER_EXPIREDE
ffff800000401dba r _ZN4NVMe6statusL26KEEP_ALIVE_TIMEOUT_INVALIDE
ffff800000401dbc r _ZN4NVMe6statusL40COMMAND_ABORTED_DUE_TO_PREEMPT_AND_ABORTE
ffff800000401dbe r _ZN4NVMe6statusL15SANITIZE_FAILEDE
ffff800000401dc0 r _ZN4NVMe6statusL20SANITIZE_IN_PROGRESSE
ffff800000401dc2 r _ZN4NVMe6statusL34SGL_DATA_BLOCK_GRANULARITY_INVALIDE
ffff800000401dc4 r _ZN4NVMe6statusL38COMMAND_NOT_SUPPORTED_FOR_QUEUE_IN_CMBE
ffff800000401dc6 r _ZN4NVMe6statusL28NAMESPACE_IS_WRITE_PROTECTEDE
ffff800000401dc8 r _ZN4NVMe6statusL19COMMAND_INTERRUPTEDE
ffff800000401dca r _ZN4NVMe6statusL25TRANSIENT_TRANSPORT_ERRORE
ffff800000401dcc r _ZN4NVMe6statusL50COMMAND_PROHIBITED_BY_COMMAND_AND_FEATURE_LOCKDOWNE
ffff800000401dce r _ZN4NVMe6statusL29ADMIN_COMMAND_MEDIA_NOT_READYE
ffff800000401dd0 r _ZN4NVMe6statusL15INVALID_KEY_TAGE
ffff800000401dd2 r _ZN4NVMe6statusL44HOST_DISPERSED_NAMESPACE_SUPPORT_NOT_ENABLEDE
ffff800000401dd4 r _ZN4NVMe6statusL31HOST_IDENTIFIER_NOT_INITIALIZEDE
ffff800000401dd6 r _ZN4NVMe6statusL13INCORRECT_KEYE
ffff800000401dd8 r _ZN4NVMe6statusL12FDP_DISABLEDE
ffff800000401dda r _ZN4NVMe6statusL29INVALID_PLACEMENT_HANDLE_LISTE
ffff800000401ddc r _ZN4NVMe6statusL16LBA_OUT_OF_RANGEE
ffff800000401dde r _ZN4NVMe6statusL17CAPACITY_EXCEEDEDE
ffff800000401de0 r _ZN4NVMe6statusL19NAMESPACE_NOT_READYE
ffff800000401de2 r _ZN4NVMe6statusL20RESERVATION_CONFLICTE
ffff800000401de4 r _ZN4NVMe6statusL18FORMAT_IN_PROGRESSE
ffff800000401de6 r _ZN4NVMe6statusL18INVALID_VALUE_SIZEE
ffff800000401de8 r _ZN4NVMe6statusL16INVALID_KEY_SIZEE
ffff800000401dea r _ZN4NVMe7command12admin_opcodeL26DELETE_IO_SUBMISSION_QUEUEE
ffff800000401deb r _ZN4NVMe7command12admin_opcodeL26CREATE_IO_SUBMISSION_QUEUEE
ffff800000401dec r _ZN4NVMe7command12admin_opcodeL12GET_LOG_PAGEE
ffff800000401ded r _ZN4NVMe7command12admin_opcodeL26DELETE_IO_COMPLETION_QUEUEE
ffff800000401dee r _ZN4NVMe7command12admin_opcodeL26CREATE_IO_COMPLETION_QUEUEE
ffff800000401def r _ZN4NVMe7command12admin_opcodeL8IDENTIFYE
ffff800000401df0 r _ZN4NVMe7command12admin_opcodeL5ABORTE
ffff800000401df1 r _ZN4NVMe7command12admin_opcodeL12SET_FEATURESE
ffff800000401df2 r _ZN4NVMe7command12admin_opcodeL12GET_FEATURESE
ffff800000401df3 r _ZN4NVMe7command12admin_opcodeL26ASYNCHRONOUS_EVENT_REQUESTE
ffff800000401df4 r _ZN4NVMe7command12admin_opcodeL20NAMESPACE_MANAGEMENTE
ffff800000401df5 r _ZN4NVMe7command12admin_opcodeL15FIRMWARE_COMMITE
ffff800000401df6 r _ZN4NVMe7command12admin_opcodeL23FIRMWARE_IMAGE_DOWNLOADE
ffff800000401df7 r _ZN4NVMe7command12admin_opcodeL16DEVICE_SELF_TESTE
ffff800000401df8 r _ZN4NVMe7command12admin_opcodeL20NAMESPACE_ATTACHMENTE
ffff800000401df9 r _ZN4NVMe7command12admin_opcodeL10KEEP_ALIVEE
ffff800000401dfa r _ZN4NVMe7command12admin_opcodeL14DIRECTIVE_SENDE
ffff800000401dfb r _ZN4NVMe7command12admin_opcodeL17DIRECTIVE_RECEIVEE
ffff800000401dfc r _ZN4NVMe7command12admin_opcodeL25VIRTUALIZATION_MANAGEMENTE
ffff800000401dfd r _ZN4NVMe7command12admin_opcodeL12NVME_MI_SENDE
ffff800000401dfe r _ZN4NVMe7command12admin_opcodeL15NVME_MI_RECEIVEE
ffff800000401dff r _ZN4NVMe7command12admin_opcodeL19CAPACITY_MANAGEMENTE
ffff800000401e00 r _ZN4NVMe7command12admin_opcodeL32DISCOVERY_INFORMATION_MANAGEMENTE
ffff800000401e01 r _ZN4NVMe7command12admin_opcodeL21FABRIC_ZONING_RECEIVEE
ffff800000401e02 r _ZN4NVMe7command12admin_opcodeL8LOCKDOWNE
ffff800000401e03 r _ZN4NVMe7command12admin_opcodeL20FABRIC_ZONING_LOOKUPE
ffff800000401e04 r _ZN4NVMe7command12admin_opcodeL34CLEAR_EXPORTED_NVM_RESOURCE_CONFIGE
ffff800000401e05 r _ZN4NVMe7command12admin_opcodeL18FABRIC_ZONING_SENDE
ffff800000401e06 r _ZN4NVMe7command12admin_opcodeL29CREATE_EXPORTED_NVM_SUBSYSTEME
ffff800000401e07 r _ZN4NVMe7command12admin_opcodeL29MANAGE_EXPORTED_NVM_SUBSYSTEME
ffff800000401e08 r _ZN4NVMe7command12admin_opcodeL25MANAGE_EXPORTED_NAMESPACEE
ffff800000401e09 r _ZN4NVMe7command12admin_opcodeL20MANAGE_EXPORTED_PORTE
ffff800000401e0a r _ZN4NVMe7command12admin_opcodeL23SEND_DISCOVERY_LOG_PAGEE
ffff800000401e0b r _ZN4NVMe7command12admin_opcodeL10TRACK_SENDE
ffff800000401e0c r _ZN4NVMe7command12admin_opcodeL14MIGRATION_SENDE
ffff800000401e0d r _ZN4NVMe7command12admin_opcodeL17MIGRATION_RECEIVEE
ffff800000401e0e r _ZN4NVMe7command12admin_opcodeL21CONTROLLER_DATA_QUEUEE
ffff800000401e0f r _ZN4NVMe7command12admin_opcodeL22DOORBELL_BUFFER_CONFIGE
ffff800000401e10 r _ZN4NVMe7command12admin_opcodeL16FABRICS_COMMANDSE
ffff800000401e11 r _ZN4NVMe7command12admin_opcodeL10FORMAT_NVME
ffff800000401e12 r _ZN4NVMe7command12admin_opcodeL13SECURITY_SENDE
ffff800000401e13 r _ZN4NVMe7command12admin_opcodeL16SECURITY_RECEIVEE
ffff800000401e14 r _ZN4NVMe7command12admin_opcodeL8SANITIZEE
ffff800000401e15 r _ZN4NVMe7command12admin_opcodeL12LOAD_PROGRAME
ffff800000401e16 r _ZN4NVMe7command12admin_opcodeL14GET_LBA_STATUSE
ffff800000401e17 r _ZN4NVMe7command12admin_opcodeL29PROGRAM_ACTIVATION_MANAGEMENTE
ffff800000401e18 r _ZN4NVMe7command12admin_opcodeL27MEMORY_RANGE_SET_MANAGEMENTE
ffff800000401e19 r _ZN4NVMe7command12admin_opcodeL20VENDOR_SPECIFIC_BASEE
ffff800000401e1a r _ZN4NVMe7command9io_opcodeL5FLUSHE
ffff800000401e1b r _ZN4NVMe7command9io_opcodeL5WRITEE
ffff800000401e1c r _ZN4NVMe7command9io_opcodeL4READE
ffff800000401e1d r _ZN4NVMe7command9io_opcodeL19WRITE_UNCORRECTABLEE
ffff800000401e1e r _ZN4NVMe7command9io_opcodeL7COMPAREE
ffff800000401e1f r _ZN4NVMe7command9io_opcodeL12WRITE_ZEROESE
ffff800000401e20 r _ZN4NVMe7command9io_opcodeL18DATASET_MANAGEMENTE
ffff800000401e21 r _ZN4NVMe7command9io_opcodeL6VERIFYE
ffff800000401e22 r _ZN4NVMe7command9io_opcodeL20RESERVATION_REGISTERE
ffff800000401e23 r _ZN4NVMe7command9io_opcodeL18RESERVATION_REPORTE
ffff800000401e24 r _ZN4NVMe7command9io_opcodeL19RESERVATION_ACQUIREE
ffff800000401e25 r _ZN4NVMe7command9io_opcodeL19RESERVATION_RELEASEE
ffff800000401e26 r _ZN4NVMe7command9io_opcodeL21IO_MANAGEMENT_RECEIVEE
ffff800000401e27 r _ZN4NVMe7command9io_opcodeL6CANCELE
ffff800000401e28 r _ZN4NVMe7command9io_opcodeL4COPYE
ffff800000401e29 r _ZN4NVMe7command9io_opcodeL15FABRIC_COMMANDSE
ffff800000401e2a r _ZN4NVMe7command9io_opcodeL20VENDOR_SPECIFIC_BASEE
ffff800000401e2b r _ZN4NVMe7command9io_opcodeL11DIR_NO_DATAE
ffff800000401e2c r _ZN4NVMe7command9io_opcodeL16DIR_HOST_TO_CTRLE
ffff800000401e2d r _ZN4NVMe7command9io_opcodeL16DIR_CTRL_TO_HOSTE
ffff800000401e2e r _ZN4NVMe7command9io_opcodeL17DIR_BIDIRECTIONALE
ffff800000401e2f r _ZN12DEVICES_locsL4NVMeE
ffff800000401e30 r _ZN12DEVICES_locs11NVMe_eventsL4InitE
ffff800000401e32 r _ZN12DEVICES_locs11NVMe_events12init_results12fail_reasonsL12already_initE
ffff800000401e34 r _ZN12DEVICES_locs11NVMe_events12init_results12fail_reasonsL20ctrl_disable_timeoutE
ffff800000401e36 r _ZN12DEVICES_locs11NVMe_events12init_results12fail_reasonsL19ctrl_enable_timeoutE
ffff800000401e38 r _ZN12DEVICES_locs11NVMe_events12init_results12fail_reasonsL18identify_ctrl_failE
ffff800000401e3a r _ZN12DEVICES_locs11NVMe_eventsL14submit_commandE
ffff800000401e3c r _ZN12DEVICES_locs11NVMe_events22submit_command_results12fail_resultsL37tail_increas_fail_dueto_unrelased_cmdE
ffff800000401e3e r _ZN12DEVICES_locs11NVMe_eventsL4ReadE
ffff800000401e3f r _ZN12DEVICES_locs11NVMe_eventsL5WriteE
ffff800000401e40 r _ZN12DEVICES_locs11NVMe_eventsL5flushE
ffff800000401e41 r _ZN12DEVICES_locs11NVMe_eventsL7discardE
ffff800000401e42 r _ZN12DEVICES_locs11NVMe_eventsL2wzE
ffff800000401e43 r _ZN12DEVICES_locs11NVMe_eventsL3cmpE
ffff800000401e44 r _ZN12DEVICES_locs11NVMe_eventsL8pre_initE
ffff800000401e46 r _ZN12DEVICES_locs11NVMe_events16pre_init_results12fail_reasonsL15this_is_nullptrE
ffff800000401e48 r _ZN12DEVICES_locs11NVMe_events16pre_init_results12fail_reasonsL13dev_not_foundE
ffff800000401e4a r _ZN12DEVICES_locs11NVMe_events16pre_init_results12fail_reasonsL10bar0_is_ioE
ffff800000401e4c r _ZN12DEVICES_locs11NVMe_eventsL14msix_vec_allocE
ffff800000401e4e r _ZN12DEVICES_locs11NVMe_events22msix_vec_alloc_results12fail_reasonsL18param_out_of_rangeE
ffff800000401e50 r _ZN12DEVICES_locs11NVMe_eventsL16msix_vec_deallocE
ffff800000401e52 r _ZN12DEVICES_locs11NVMe_events24msix_vec_dealloc_results12fail_reasonsL19processor_not_foundE
ffff800000401e54 r _ZN12DEVICES_locs11NVMe_eventsL12set_featuresE
ffff800000401e56 r _ZN12DEVICES_locs11NVMe_events20set_features_results12fail_reasonsL19nvme_status_nonzeroE
ffff800000401e58 r _ZN12DEVICES_locs11NVMe_eventsL13io_queue_mgmtE
ffff800000401e5a r _ZN12DEVICES_locs11NVMe_events21io_queue_mgmt_results12fail_reasonsL19nvme_status_nonzeroE
ffff800000401e5c r _ZN12DEVICES_locs11NVMe_eventsL7OfflineE
ffff800000401e5d r _ZN14aer_event_typeL12ERROR_STATUSE
ffff800000401e5e r _ZN14aer_event_typeL12SMART_HEALTHE
ffff800000401e5f r _ZN14aer_event_typeL6NOTICEE
ffff800000401e60 r _ZN14aer_event_typeL15IO_CMD_SPECIFICE
ffff800000401e61 r _ZN14aer_event_typeL8ONE_SHOTE
ffff800000401e62 r _ZN14aer_event_type10error_infoL11WRITE_FAULTE
ffff800000401e63 r _ZN14aer_event_type10error_infoL10READ_FAULTE
ffff800000401e64 r _ZN14aer_event_type10error_infoL32UNRECOVERED_DATA_INTEGRITY_ERRORE
ffff800000401e65 r _ZN14aer_event_type10error_infoL35PERSISTENT_MEDIA_REGION_WRITE_FAULTE
ffff800000401e66 r _ZN14aer_event_type10error_infoL34PERSISTENT_MEDIA_REGION_READ_FAULTE
ffff800000401e67 r _ZN14aer_event_type10error_infoL24INVALID_DATA_SGL_SEGMENTE
ffff800000401e68 r _ZN14aer_event_type10error_infoL23MEMORY_SPACE_EXCEEDANCEE
ffff800000401e69 r _ZN14aer_event_type10error_infoL16LBA_OUT_OF_RANGEE
ffff800000401e6a r _ZN14aer_event_type10error_infoL22NAMESPACE_IS_READ_ONLYE
ffff800000401e6b r _ZN14aer_event_type10error_infoL21INTERNAL_TARGET_ERRORE
ffff800000401e6c r _ZN14aer_event_type10smart_infoL21TEMPERATURE_THRESHOLDE
ffff800000401e6d r _ZN14aer_event_type10smart_infoL21SPARE_BELOW_THRESHOLDE
ffff800000401e6e r _ZN14aer_event_type10smart_infoL24NVM_RELIABILITY_DEGRADEDE
ffff800000401e6f r _ZN14aer_event_type10smart_infoL15MEDIA_READ_ONLYE
ffff800000401e70 r _ZN14aer_event_type10smart_infoL36VOLATILE_MEMORY_BACKUP_DEVICE_FAILEDE
ffff800000401e71 r _ZN14aer_event_type10smart_infoL14PMR_UNRELIABLEE
ffff800000401e72 r _ZN14aer_event_type11notice_infoL28FIRMWARE_ACTIVATION_STARTINGE
ffff800000401e73 r _ZN14aer_event_type11notice_infoL27NAMESPACE_ATTRIBUTE_CHANGEDE
ffff800000401e74 r _ZN14aer_event_type11notice_infoL30NVM_SUBSYSTEM_HARDWARE_CHANGEDE
ffff800000401e75 r _ZN14aer_event_type11notice_infoL22CHANGED_NAMESPACE_LISTE
ffff800000401e76 r _ZN14aer_event_type11notice_infoL21TELEMETRY_LOG_CREATEDE
ffff800000401e77 r _ZN14aer_event_type11notice_infoL35ASYMMETRIC_NAMESPACE_ACCESS_CHANGEDE
ffff800000401e78 r _ZN14aer_event_type11notice_infoL27PREDICTABLE_LATENCY_CHANGEDE
ffff800000401e79 r _ZN14aer_event_type11notice_infoL28LBA_STATUS_INFORMATION_ALERTE
ffff800000401e7a r _ZN14aer_event_type11notice_infoL21ENDURANCE_GROUP_EVENTE
ffff800000401e7b r _ZN14aer_event_type11notice_infoL36EXPORTED_NVM_RESOURCE_CONFIG_CHANGEDE
ffff800000401e7c r _ZN14aer_event_type11notice_infoL35DEALLOCATED_OR_UNWRITTEN_DATA_ERRORE
ffff800000401e7d r _ZN14aer_event_type11notice_infoL33EXPORTED_NVM_RESOURCE_CONFIG_LOSTE
ffff800000401e7e r _ZN14aer_event_type11notice_infoL23ZONE_EVENT_NOTIFICATIONE
ffff800000401e7f r _ZN14aer_event_type16io_specific_infoL21RESERVATION_PREEMPTEDE
ffff800000401e80 r _ZN14aer_event_type16io_specific_infoL20RESERVATION_RELEASEDE
ffff800000401e81 r _ZN14aer_event_type16io_specific_infoL29RESERVATION_PREEMPT_AND_ABORTE
ffff800000401e88 r _ZL19soon_ring_bell_mask
ffff800000401e90 r _ZN18MEMMODULE_LOCAIONSL7INVALIDE
ffff800000401e91 r _ZN18MEMMODULE_LOCAIONSL25LOCATION_CODE_BASE_MEMMGRE
ffff800000401e92 r _ZN18MEMMODULE_LOCAIONSL29LOCATION_CODE_PHYMEM_ACCESSORE
ffff800000401e93 r _ZN18MEMMODULE_LOCAIONSL28LOCATION_CODE_KSPACE_MAP_MGRE
ffff800000401e94 r _ZN18MEMMODULE_LOCAIONSL25LOCATION_CODE_ADDRESSPACEE
ffff800000401e95 r _ZN18MEMMODULE_LOCAIONSL26LOCATION_CODE_OUT_SURFACESE
ffff800000401e96 r _ZN18MEMMODULE_LOCAIONSL25LOCATION_CODE_KPOOLMEMMGRE
ffff800000401e97 r _ZN18MEMMODULE_LOCAIONS18KPOOLMEMMGR_EVENTSL15EVENT_CODE_INITE
ffff800000401e98 r _ZN18MEMMODULE_LOCAIONS18KPOOLMEMMGR_EVENTSL16EVENT_CODE_ALLOCE
ffff800000401e9a r _ZN18MEMMODULE_LOCAIONS18KPOOLMEMMGR_EVENTS13ALLOC_RESULTS11FAIL_RESONSL28REASON_CODE_NO_AVALIABLE_MEME
ffff800000401e9c r _ZN18MEMMODULE_LOCAIONS18KPOOLMEMMGR_EVENTS13ALLOC_RESULTS11FAIL_RESONSL24REASON_CODE_SIZE_IS_ZEROE
ffff800000401e9e r _ZN18MEMMODULE_LOCAIONS18KPOOLMEMMGR_EVENTSL18EVENT_CODE_REALLOCE
ffff800000401ea0 r _ZN18MEMMODULE_LOCAIONS18KPOOLMEMMGR_EVENTS15REALLOC_RESULTS11FAIL_RESONSL31REASON_CODE_DEMAND_SIZE_IS_ZEROE
ffff800000401ea2 r _ZN18MEMMODULE_LOCAIONS18KPOOLMEMMGR_EVENTS15REALLOC_RESULTS11FAIL_RESONSL31REASON_CODE_PTR_NOT_IN_ANY_HEAPE
ffff800000401ea4 r _ZN18MEMMODULE_LOCAIONS18KPOOLMEMMGR_EVENTS15REALLOC_RESULTS11FAIL_RESONSL28REASON_CODE_NO_AVALIABLE_MEME
ffff800000401ea6 r _ZN18MEMMODULE_LOCAIONS18KPOOLMEMMGR_EVENTSL34EVENT_CODE_PER_PROCESSOR_HEAP_INITE
ffff800000401ea8 r _ZN18MEMMODULE_LOCAIONS18KPOOLMEMMGR_EVENTS31PER_PROCESSOR_HEAP_INIT_RESULTS11FAIL_RESONSL27REASON_CODE_ALREADY_ENABLEDE
ffff800000401eaa r _ZN18MEMMODULE_LOCAIONS18KPOOLMEMMGR_EVENTS31PER_PROCESSOR_HEAP_INIT_RESULTS11FAIL_RESONSL31REASON_CODE_BAD_PROCESSOR_COUNTE
ffff800000401eac r _ZN18MEMMODULE_LOCAIONS18KPOOLMEMMGR_EVENTS31PER_PROCESSOR_HEAP_INIT_RESULTS11FAIL_RESONSL26REASON_CODE_NO_VADDR_SPACEE
ffff800000401eae r _ZN18MEMMODULE_LOCAIONS18KPOOLMEMMGR_EVENTS31PER_PROCESSOR_HEAP_INIT_RESULTS11FAIL_RESONSL23REASON_CODE_VM_ADD_FAILE
ffff800000401eb0 r _ZN18MEMMODULE_LOCAIONS18KPOOLMEMMGR_EVENTS31PER_PROCESSOR_HEAP_INIT_RESULTS11FAIL_RESONSL28REASON_CODE_IDX_OUT_OF_RANGEE
ffff800000401eb2 r _ZN18MEMMODULE_LOCAIONS18KPOOLMEMMGR_EVENTS31PER_PROCESSOR_HEAP_INIT_RESULTS11FAIL_RESONSL31REASON_CODE_HEAP_ALREADY_EXISTSE
ffff800000401eb4 r _ZN18MEMMODULE_LOCAIONS18KPOOLMEMMGR_EVENTS31PER_PROCESSOR_HEAP_INIT_RESULTS11FAIL_RESONSL26REASON_CODE_HEAP_NOT_EXISTE
ffff800000401eb6 r _ZN18MEMMODULE_LOCAIONSL32LOCATION_CODE_KPOOLMEMMGR_HCB_V3E
ffff800000401eb7 r _ZN18MEMMODULE_LOCAIONS25KPOOLMEMMGR_HCB_V3_EVENTSL17EVENT_CODE_ONLINEE
ffff800000401eb8 r _ZN18MEMMODULE_LOCAIONS25KPOOLMEMMGR_HCB_V3_EVENTSL18EVENT_CODE_OFFLINEE
ffff800000401eb9 r _ZN18MEMMODULE_LOCAIONS25KPOOLMEMMGR_HCB_V3_EVENTSL16EVENT_CODE_ALLOCE
ffff800000401eba r _ZN18MEMMODULE_LOCAIONS25KPOOLMEMMGR_HCB_V3_EVENTSL15EVENT_CODE_FREEE
ffff800000401ebb r _ZN18MEMMODULE_LOCAIONS25KPOOLMEMMGR_HCB_V3_EVENTSL18EVENT_CODE_REALLOCE
ffff800000401ebc r _ZN18MEMMODULE_LOCAIONS25KPOOLMEMMGR_HCB_V3_EVENTSL25EVENT_CODE_INTERNAL_ALLOCE
ffff800000401ebd r _ZN18MEMMODULE_LOCAIONS25KPOOLMEMMGR_HCB_V3_EVENTSL24EVENT_CODE_INTERNAL_FREEE
ffff800000401ebe r _ZN18MEMMODULE_LOCAIONS25KPOOLMEMMGR_HCB_V3_EVENTSL16EVENT_CODE_CLEARE
ffff800000401ec0 r _ZN18MEMMODULE_LOCAIONS25KPOOLMEMMGR_HCB_V3_EVENTS19COMMON_FAIL_REASONSL20REASON_CODE_BAD_ADDRE
ffff800000401ec2 r _ZN18MEMMODULE_LOCAIONS25KPOOLMEMMGR_HCB_V3_EVENTS19COMMON_FAIL_REASONSL30REASON_CODE_ADDR_NOT_THIS_HEAPE
ffff800000401ec4 r _ZN18MEMMODULE_LOCAIONS25KPOOLMEMMGR_HCB_V3_EVENTS20COMMON_FATAL_REASONSL30REASON_CODE_METADATA_DESTROYEDE
ffff800000401ec6 r _ZN18MEMMODULE_LOCAIONS25KPOOLMEMMGR_HCB_V3_EVENTS22INTERNAL_ALLOC_RESULTS11FAIL_RESONSL30REASON_CODE_NO_AVALIABLE_BUDDYE
ffff800000401ec8 r _ZN18MEMMODULE_LOCAIONS25KPOOLMEMMGR_HCB_V3_EVENTS13ALLOC_RESULTS12FAIL_REASONSL24REASON_CODE_SIZE_IS_ZEROE
ffff800000401eca r _ZN18MEMMODULE_LOCAIONS25KPOOLMEMMGR_HCB_V3_EVENTS13ALLOC_RESULTS12FAIL_REASONSL26REASON_CODE_SIZE_TOO_LARGEE
ffff800000401ecc r _ZN18MEMMODULE_LOCAIONS25KPOOLMEMMGR_HCB_V3_EVENTS12FREE_RESULTS13FATAL_REASONSL18DOUBLE_FREE_DETECTE
ffff800000401ece r _ZN18MEMMODULE_LOCAIONS25KPOOLMEMMGR_HCB_V3_EVENTS12FREE_RESULTS13FATAL_REASONSL22MERGE_BUT_ALREADY_FREEE
ffff800000401ed0 r _ZL14HCB_evict_span
ffff800000401ed8 r _ZL23HCB_evictor_sleep_cycle
ffff800000401ee0 r _ZL20PCI_HEADER_TYPE_MASK
ffff800000401ee1 r _ZL25PCI_HEADER_TYPE_MULTIFUNC
ffff800000401ee2 r _ZL24PCI_HEADER_TYPE_ENDPOINT
ffff800000401ee3 r _ZL26PCI_HEADER_TYPE_PCI_BRIDGE
ffff800000401ee4 r _ZL23PCI_HEADER_TYPE_CARDBUS
ffff800000401ee6 r _ZL9ECAM_size
ffff800000401ee8 r _ZL14func_bit_width
ffff800000401ee9 r _ZL14device_bit_num
ffff800000401eea r _ZL18PCI_BAR_TYPE_32BIT
ffff800000401eeb r _ZL18PCI_BAR_TYPE_64BIT
ffff800000401eec r _ZL13PCI_CAP_ID_PM
ffff800000401eed r _ZL14PCI_CAP_ID_MSI
ffff800000401eee r _ZL14PCI_CAP_ID_EXP
ffff800000401eef r _ZL15PCI_CAP_ID_MSIX
ffff800000401f00 r _ZL15PAGE_SIZE_IN_LV
ffff800000401f40 r _ZL16PAGE_OFFSET_MASK
ffff800000401f68 r _ZL17Max_huge_pg_index
ffff800000401f70 r _ZN22lineaddr_index_filtersL17PT_INDEX_MASK_lv0E
ffff800000401f78 r _ZN22lineaddr_index_filtersL17PD_INDEX_MASK_lv1E
ffff800000401f80 r _ZN22lineaddr_index_filtersL19PDPT_INDEX_MASK_lv2E
ffff800000401f88 r _ZN22lineaddr_index_filtersL19PML4_INDEX_MASK_lv3E
ffff800000401f90 r _ZN22lineaddr_index_filtersL19PML5_INDEX_MASK_lv4E
ffff800000401f98 r _ZL15PHYS_ADDR_WIDTH
ffff800000401fa0 r _ZL14PHYS_ADDR_MASK
ffff800000401fa8 r _ZN14PageTableEntryL5P_BITE
ffff800000401fb0 r _ZN14PageTableEntryL6RW_BITE
ffff800000401fb8 r _ZN14PageTableEntryL6US_BITE
ffff800000401fc0 r _ZN14PageTableEntryL7PWT_BITE
ffff800000401fc8 r _ZN14PageTableEntryL7PCD_BITE
ffff800000401fd0 r _ZN14PageTableEntryL5A_BITE
ffff800000401fd8 r _ZN14PageTableEntryL6XD_BITE
ffff800000401fe0 r _ZN14PageTableEntryL6P_MASKE
ffff800000401fe8 r _ZN14PageTableEntryL7RW_MASKE
ffff800000401ff0 r _ZN14PageTableEntryL7US_MASKE
ffff800000401ff8 r _ZN14PageTableEntryL8PWT_MASKE
ffff800000402000 r _ZN14PageTableEntryL8PCD_MASKE
ffff800000402008 r _ZN14PageTableEntryL6A_MASKE
ffff800000402010 r _ZN14PageTableEntryL7XD_MASKE
ffff800000402018 r _ZN5PML5EL5R_BITE
ffff800000402020 r _ZN5PML5EL6PS_BITE
ffff800000402028 r _ZN5PML5EL6R_MASKE
ffff800000402030 r _ZN5PML5EL7PS_MASKE
ffff800000402038 r _ZN5PML5EL11ADDR_OFFSETE
ffff800000402040 r _ZN5PML5EL9ADDR_BITSE
ffff800000402048 r _ZN5PML5EL9ADDR_MASKE
ffff800000402050 r _ZN5PML4EL5R_BITE
ffff800000402058 r _ZN5PML4EL6PS_BITE
ffff800000402060 r _ZN5PML4EL6R_MASKE
ffff800000402068 r _ZN5PML4EL7PS_MASKE
ffff800000402070 r _ZN5PML4EL11ADDR_OFFSETE
ffff800000402078 r _ZN5PML4EL9ADDR_BITSE
ffff800000402080 r _ZN5PML4EL9ADDR_MASKE
ffff800000402088 r _ZN5PDPTEL5D_BITE
ffff800000402090 r _ZN5PDPTEL6PS_BITE
ffff800000402098 r _ZN5PDPTEL5G_BITE
ffff8000004020a0 r _ZN5PDPTEL5R_BITE
ffff8000004020a8 r _ZN5PDPTEL7PAT_BITE
ffff8000004020b0 r _ZN5PDPTEL7PK_BITSE
ffff8000004020b8 r _ZN5PDPTEL6D_MASKE
ffff8000004020c0 r _ZN5PDPTEL7PS_MASKE
ffff8000004020c8 r _ZN5PDPTEL6G_MASKE
ffff8000004020d0 r _ZN5PDPTEL6R_MASKE
ffff8000004020d8 r _ZN5PDPTEL8PAT_MASKE
ffff8000004020e0 r _ZN5PDPTEL7PK_MASKE
ffff8000004020e8 r _ZN5PDPTEL14ADDR_PD_OFFSETE
ffff8000004020f0 r _ZN5PDPTEL12ADDR_PD_BITSE
ffff8000004020f8 r _ZN5PDPTEL12ADDR_PD_MASKE
ffff800000402100 r _ZN5PDPTEL15ADDR_1GB_OFFSETE
ffff800000402108 r _ZN5PDPTEL13ADDR_1GB_BITSE
ffff800000402110 r _ZN5PDPTEL13ADDR_1GB_MASKE
ffff800000402118 r _ZN3PDEL5D_BITE
ffff800000402120 r _ZN3PDEL6PS_BITE
ffff800000402128 r _ZN3PDEL5G_BITE
ffff800000402130 r _ZN3PDEL5R_BITE
ffff800000402138 r _ZN3PDEL7PAT_BITE
ffff800000402140 r _ZN3PDEL7PK_BITSE
ffff800000402148 r _ZN3PDEL6D_MASKE
ffff800000402150 r _ZN3PDEL7PS_MASKE
ffff800000402158 r _ZN3PDEL6G_MASKE
ffff800000402160 r _ZN3PDEL6R_MASKE
ffff800000402168 r _ZN3PDEL8PAT_MASKE
ffff800000402170 r _ZN3PDEL7PK_MASKE
ffff800000402178 r _ZN3PDEL14ADDR_PT_OFFSETE
ffff800000402180 r _ZN3PDEL12ADDR_PT_BITSE
ffff800000402188 r _ZN3PDEL12ADDR_PT_MASKE
ffff800000402190 r _ZN3PDEL15ADDR_2MB_OFFSETE
ffff800000402198 r _ZN3PDEL13ADDR_2MB_BITSE
ffff8000004021a0 r _ZN3PDEL13ADDR_2MB_MASKE
ffff8000004021a8 r _ZN3PTEL5D_BITE
ffff8000004021b0 r _ZN3PTEL7PAT_BITE
ffff8000004021b8 r _ZN3PTEL5G_BITE
ffff8000004021c0 r _ZN3PTEL5R_BITE
ffff8000004021c8 r _ZN3PTEL7PK_BITSE
ffff8000004021d0 r _ZN3PTEL6D_MASKE
ffff8000004021d8 r _ZN3PTEL8PAT_MASKE
ffff8000004021e0 r _ZN3PTEL6G_MASKE
ffff8000004021e8 r _ZN3PTEL6R_MASKE
ffff8000004021f0 r _ZN3PTEL7PK_MASKE
ffff8000004021f8 r _ZN3PTEL11ADDR_OFFSETE
ffff800000402200 r _ZN3PTEL9ADDR_BITSE
ffff800000402208 r _ZN3PTEL9ADDR_MASKE
ffff800000402210 r _ZL13ENTRY_PRESENT
ffff800000402211 r _ZL17ENTRY_PRESENT_NOT
ffff800000402212 r _ZL17RWBIT_WRITE_ALLOW
ffff800000402213 r _ZL21RWBIT_WRITE_ALLOW_NOT
ffff800000402214 r _ZL16KERNE_BIT_KERNEL
ffff800000402215 r _ZL20KERNE_BIT_KERNEL_NOT
ffff800000402216 r _ZL17XD_BIT_EXECUTABLE
ffff800000402217 r _ZL21XD_BIT_EXECUTABLE_NOT
ffff800000402218 r _ZL20MAX_PROCESSORS_COUNT
ffff80000040221c r _ZN13PAGE_TBALE_LVL4LV_4E
ffff80000040221d r _ZN13PAGE_TBALE_LVL4LV_5E
ffff80000040221e r _ZL17KERNEL_SPACE_PCID
ffff800000402220 r _ZN18MEMMODULE_LOCAIONS18ADDRESSPACE_EVENTSL15EVENT_CODE_INITE
ffff800000402221 r _ZN18MEMMODULE_LOCAIONS18ADDRESSPACE_EVENTSL25EVENT_CODE_ENABLE_VMENTRYE
ffff800000402222 r _ZN18MEMMODULE_LOCAIONS18ADDRESSPACE_EVENTSL26EVENT_CODE_DISABLE_VMENTRYE
ffff800000402223 r _ZN18MEMMODULE_LOCAIONS18ADDRESSPACE_EVENTSL22EVENT_CODE_TRAN_TO_PHYE
ffff800000402224 r _ZN18MEMMODULE_LOCAIONS18ADDRESSPACE_EVENTSL25EVENT_CODE_INVALIDATE_TLBE
ffff800000402225 r _ZN18MEMMODULE_LOCAIONS18ADDRESSPACE_EVENTSL51EVENT_CODE_BUILD_INDENTITY_MAP_ONLY_ON_gKERNELSPACEE
ffff800000402226 r _ZN18MEMMODULE_LOCAIONS18ADDRESSPACE_EVENTSL19EVENT_CODE_UNREGISTE
ffff800000402228 r _ZN18MEMMODULE_LOCAIONS18ADDRESSPACE_EVENTS22ENABLE_VMENTRY_RESULTS12FAIL_REASONSL40REASON_CODE_VMENTRY_congruence_vlidationE
ffff80000040222a r _ZN18MEMMODULE_LOCAIONS18ADDRESSPACE_EVENTS22ENABLE_VMENTRY_RESULTS12FAIL_REASONSL23REASON_CODE_BAD_VMENTRYE
ffff80000040222c r _ZN18MEMMODULE_LOCAIONS18ADDRESSPACE_EVENTS22ENABLE_VMENTRY_RESULTS12FAIL_REASONSL34REASON_CODE_BAD_VMENTRY_CANT_SPLITE
ffff80000040222e r _ZN18MEMMODULE_LOCAIONS18ADDRESSPACE_EVENTS22ENABLE_VMENTRY_RESULTS12FAIL_REASONSL34REASON_CODE_NOT_SUPPORT_LV5_PAGINGE
ffff800000402230 r _ZN18MEMMODULE_LOCAIONS18ADDRESSPACE_EVENTS22ENABLE_VMENTRY_RESULTS13FATAL_REASONSL44REASON_CODE_TRY_TO_GET_SUB_PAGE_IN_ATOM_PAGEE
ffff800000402232 r _ZN18MEMMODULE_LOCAIONS18ADDRESSPACE_EVENTS22ENABLE_VMENTRY_RESULTS13FATAL_REASONSL26REASON_CODE_PAGES_SET_FALTE
ffff800000402234 r _ZN18MEMMODULE_LOCAIONS18ADDRESSPACE_EVENTS22ENABLE_VMENTRY_RESULTS13FATAL_REASONSL29REASON_CODE_INVALID_PAGE_SIZEE
ffff800000402236 r _ZN18MEMMODULE_LOCAIONS18ADDRESSPACE_EVENTS22ENABLE_VMENTRY_RESULTS24SUCCESS_BUT_SIDE_AFFECTSL23REASON_CODE_MAP_LOW_16KE
ffff800000402238 r _ZN18MEMMODULE_LOCAIONS18ADDRESSPACE_EVENTS24TRAN_TO_PHY_RESULTS_CODE12FAIL_REASONSL31REASON_CODE_NOT_ALLOW_KSPACE_VAE
ffff80000040223a r _ZN18MEMMODULE_LOCAIONS18ADDRESSPACE_EVENTS24TRAN_TO_PHY_RESULTS_CODE12FAIL_REASONSL29REASON_CODE_NOT_PRESENT_ENTRYE
ffff80000040223c r _ZN18MEMMODULE_LOCAIONS18ADDRESSPACE_EVENTS24TRAN_TO_PHY_RESULTS_CODE12FAIL_REASONSL34REASON_CODE_NOT_SUPPORT_LV5_PAGINGE
ffff80000040223e r _ZN18MEMMODULE_LOCAIONS18ADDRESSPACE_EVENTS23DISABLE_VMENTRY_RESULTS12FAIL_REASONSL35REASON_CODE_INVALID_PAGETABLE_ENTRYE
ffff800000402240 r _ZN18MEMMODULE_LOCAIONS18ADDRESSPACE_EVENTS23DISABLE_VMENTRY_RESULTS12FAIL_REASONSL63REASON_CODE_BAD_VMENTRY_TRY_TO_MAP_LOW_MEM_WHO_NOT_gKernelSpaceE
ffff800000402242 r _ZN18MEMMODULE_LOCAIONS18ADDRESSPACE_EVENTS23DISABLE_VMENTRY_RESULTS12FAIL_REASONSL23REASON_CODE_BAD_VMENTRYE
ffff800000402244 r _ZN18MEMMODULE_LOCAIONS18ADDRESSPACE_EVENTS23DISABLE_VMENTRY_RESULTS12FAIL_REASONSL34REASON_CODE_BAD_VMENTRY_CANT_SPLITE
ffff800000402246 r _ZN18MEMMODULE_LOCAIONS18ADDRESSPACE_EVENTS23DISABLE_VMENTRY_RESULTS12FAIL_REASONSL34REASON_CODE_NOT_SUPPORT_LV5_PAGINGE
ffff800000402248 r _ZN18MEMMODULE_LOCAIONS18ADDRESSPACE_EVENTS23DISABLE_VMENTRY_RESULTS13FATAL_REASONSL44REASON_CODE_TRY_TO_GET_SUB_PAGE_IN_ATOM_PAGEE
ffff80000040224a r _ZN18MEMMODULE_LOCAIONS18ADDRESSPACE_EVENTS23DISABLE_VMENTRY_RESULTS13FATAL_REASONSL26REASON_CODE_PAGES_SET_FALTE
ffff80000040224c r _ZN18MEMMODULE_LOCAIONS18ADDRESSPACE_EVENTS23DISABLE_VMENTRY_RESULTS13FATAL_REASONSL29REASON_CODE_INVALID_PAGE_SIZEE
ffff80000040224e r _ZN18MEMMODULE_LOCAIONS18ADDRESSPACE_EVENTS23DISABLE_VMENTRY_RESULTS13FATAL_REASONSL51REASON_CODE_TRY_TO_GET_SUB_PAGE_OF_NOT_PRESENT_PAGEE
ffff800000402250 r _ZN18MEMMODULE_LOCAIONS18ADDRESSPACE_EVENTS23DISABLE_VMENTRY_RESULTS13FATAL_REASONSL39REASON_CODE_TRY_TO_CLEAR_UNPRESENT_PAGEE
ffff800000402252 r _ZN18MEMMODULE_LOCAIONS18ADDRESSPACE_EVENTS23DISABLE_VMENTRY_RESULTS13FATAL_REASONSL61REASON_CODE_CONSISTENCY_VIOLATION_WHEN_CLEAR_PAGE_TABLE_ENTRYE
ffff800000402254 r _ZN18MEMMODULE_LOCAIONS18ADDRESSPACE_EVENTS23DISABLE_VMENTRY_RESULTS13FATAL_REASONSL33REASON_CODE_OTHER_PAGES_SET_FATALE
ffff800000402256 r _ZN18MEMMODULE_LOCAIONS18ADDRESSPACE_EVENTS22INVALIDATE_TLB_RESULTS12FAIL_REASONSL24REASON_CODE_BAD_VM_ENTRYE
ffff800000402258 r _ZN18MEMMODULE_LOCAIONS18ADDRESSPACE_EVENTS22INVALIDATE_TLB_RESULTS13FATAL_REASONSL29REASON_CODE_INVALID_PAGE_SIZEE
ffff80000040225a r _ZN18MEMMODULE_LOCAIONS18ADDRESSPACE_EVENTS40BUILD_INDENTITY_MAP_ONLY_ON_gKERNELSPACE12FAIL_REASONSL28REASON_CODE_NOT_gKERNELSPACEE
ffff80000040225c r _ZN18MEMMODULE_LOCAIONSL43LOCATION_CODE_KSPACE_MAP_MGR_VMENTRY_RBTREEE
ffff80000040225d r _ZN18MEMMODULE_LOCAIONS20KSPACE_MAPPER_EVENTSL15EVENT_CODE_INITE
ffff80000040225e r _ZN18MEMMODULE_LOCAIONS20KSPACE_MAPPER_EVENTS12INIT_RESULTS12FAIL_REASONSL31USER_TEST_KERNEL_IMAGE_SET_FAILE
ffff800000402260 r _ZN18MEMMODULE_LOCAIONS20KSPACE_MAPPER_EVENTS12INIT_RESULTS12FAIL_REASONSL36USER_TEST_KERNEL_IMAGE_BAD_ELF_MAGICE
ffff800000402262 r _ZN18MEMMODULE_LOCAIONS20KSPACE_MAPPER_EVENTSL25EVENT_CODE_ENABLE_VMENTRYE
ffff800000402263 r _ZN18MEMMODULE_LOCAIONS20KSPACE_MAPPER_EVENTSL26EVENT_CODE_DISABLE_VMENTRYE
ffff800000402264 r _ZN18MEMMODULE_LOCAIONS20KSPACE_MAPPER_EVENTSL28EVENT_CODE_TRAN_TO_PHY_ENTRYE
ffff800000402266 r _ZN18MEMMODULE_LOCAIONS20KSPACE_MAPPER_EVENTS30TRAN_TO_PHY_ENTRY_RESULTS_CODE12FAIL_REASONSL29REASON_CODE_NOT_PRESENT_ENTRYE
ffff800000402268 r _ZN18MEMMODULE_LOCAIONS20KSPACE_MAPPER_EVENTS30TRAN_TO_PHY_ENTRY_RESULTS_CODE12FAIL_REASONSL34REASON_CODE_NOT_SUPPORT_LV5_PAGINGE
ffff80000040226a r _ZN18MEMMODULE_LOCAIONS20KSPACE_MAPPER_EVENTS30TRAN_TO_PHY_ENTRY_RESULTS_CODE13FATAL_REASONSL28REASON_CODE_UNREACHABLE_CODEE
ffff80000040226c r _ZN18MEMMODULE_LOCAIONS20KSPACE_MAPPER_EVENTSL25EVENT_CODE_INVALIDATE_TLBE
ffff80000040226e r _ZN18MEMMODULE_LOCAIONS20KSPACE_MAPPER_EVENTS22INVALIDATE_TLB_RESULTS12FAIL_REASONSL35SHARED_INFO_PACKAGE_NOT_INITILAIZEDE
ffff800000402270 r _ZN18MEMMODULE_LOCAIONS20KSPACE_MAPPER_EVENTSL19EVENT_CODE_UNREGISTE
ffff800000402272 r _ZN18MEMMODULE_LOCAIONS20KSPACE_MAPPER_EVENTS22ENABLE_VMENTRY_RESULTS12FAIL_REASONSL40REASON_CODE_VMENTRY_congruence_vlidationE
ffff800000402274 r _ZN18MEMMODULE_LOCAIONS20KSPACE_MAPPER_EVENTS22ENABLE_VMENTRY_RESULTS12FAIL_REASONSL23REASON_CODE_BAD_VMENTRYE
ffff800000402276 r _ZN18MEMMODULE_LOCAIONS20KSPACE_MAPPER_EVENTS22ENABLE_VMENTRY_RESULTS12FAIL_REASONSL34REASON_CODE_NOT_SUPPORT_LV5_PAGINGE
ffff800000402278 r _ZN18MEMMODULE_LOCAIONS20KSPACE_MAPPER_EVENTS22ENABLE_VMENTRY_RESULTS13FATAL_REASONSL31REASON_CODE_INVALIDE_PAGES_SIZEE
ffff80000040227a r _ZN18MEMMODULE_LOCAIONS20KSPACE_MAPPER_EVENTS23DISABLE_VMENTRY_RESULTS12FAIL_REASONSL23REASON_CODE_BAD_VMENTRYE
ffff80000040227c r _ZN18MEMMODULE_LOCAIONS20KSPACE_MAPPER_EVENTS23DISABLE_VMENTRY_RESULTS13FATAL_REASONSL31REASON_CODE_INVALIDE_PAGES_SIZEE
ffff80000040227e r _ZN18MEMMODULE_LOCAIONS20KSPACE_MAPPER_EVENTS23DISABLE_VMENTRY_RESULTS13FATAL_REASONSL42REASON_CODE_BROADCAST_TLB_SHUTDOWN_TIMEOUTE
ffff800000402280 r _ZN18MEMMODULE_LOCAIONS20KSPACE_MAPPER_EVENTS23DISABLE_VMENTRY_RESULTS13FATAL_REASONSL36REASON_CODE_INVALID_CONGRUENCE_LEVELE
ffff800000402282 r _ZN18MEMMODULE_LOCAIONS20KSPACE_MAPPER_EVENTS22INVALIDATE_TLB_RESULTS12FAIL_REASONSL24REASON_CODE_BAD_VM_ENTRYE
ffff800000402284 r _ZN18MEMMODULE_LOCAIONS20KSPACE_MAPPER_EVENTS22INVALIDATE_TLB_RESULTS13FATAL_REASONSL29REASON_CODE_INVALID_PAGE_SIZEE
ffff800000402286 r _ZN18MEMMODULE_LOCAIONS20KSPACE_MAPPER_EVENTS40BUILD_INDENTITY_MAP_ONLY_ON_gKERNELSPACE12FAIL_REASONSL28REASON_CODE_NOT_gKERNELSPACEE
ffff800000402288 r _ZN18MEMMODULE_LOCAIONS20KSPACE_MAPPER_EVENTSL20EVENT_CODE_PAGES_SETE
ffff80000040228a r _ZN18MEMMODULE_LOCAIONS20KSPACE_MAPPER_EVENTS22PAGES_SET_RESULTS_CODE12FAIL_REASONSL21REASON_CODE_BAD_COUNTE
ffff80000040228c r _ZN18MEMMODULE_LOCAIONS20KSPACE_MAPPER_EVENTS22PAGES_SET_RESULTS_CODE12FAIL_REASONSL44REASON_CODE_COUNT_AND_BASEINDEX_OUT_OF_RANGEE
ffff80000040228e r _ZN18MEMMODULE_LOCAIONS20KSPACE_MAPPER_EVENTS22PAGES_SET_RESULTS_CODE12FAIL_REASONSL28REASON_CODE_BASE_NOT_ALIGNEDE
ffff800000402290 r _ZN18MEMMODULE_LOCAIONS20KSPACE_MAPPER_EVENTS22PAGES_SET_RESULTS_CODE13FATAL_REASONSL35REASON_CODE_HUGE_PDPTE_WHEN_GET_SUBE
ffff800000402292 r _ZN18MEMMODULE_LOCAIONS20KSPACE_MAPPER_EVENTS22PAGES_SET_RESULTS_CODE13FATAL_REASONSL33REASON_CODE_HUGE_PDE_WHEN_GET_SUBE
ffff800000402294 r _ZN18MEMMODULE_LOCAIONS20KSPACE_MAPPER_EVENTSL22EVENT_CODE_PAGES_CLEARE
ffff800000402296 r _ZN18MEMMODULE_LOCAIONS20KSPACE_MAPPER_EVENTS24PAGES_CLEAR_RESULTS_CODE12FAIL_REASONSL21REASON_CODE_BAD_COUNTE
ffff800000402298 r _ZN18MEMMODULE_LOCAIONS20KSPACE_MAPPER_EVENTS24PAGES_CLEAR_RESULTS_CODE12FAIL_REASONSL44REASON_CODE_COUNT_AND_BASEINDEX_OUT_OF_RANGEE
ffff80000040229a r _ZN18MEMMODULE_LOCAIONS20KSPACE_MAPPER_EVENTS24PAGES_CLEAR_RESULTS_CODE12FAIL_REASONSL28REASON_CODE_BASE_NOT_ALIGNEDE
ffff80000040229c r _ZN18MEMMODULE_LOCAIONS20KSPACE_MAPPER_EVENTS24PAGES_CLEAR_RESULTS_CODE13FATAL_REASONSL41REASON_CODE_HUGE_PDPTE_SUBTABLE_NOT_EXISTE
ffff80000040229e r _ZN18MEMMODULE_LOCAIONS20KSPACE_MAPPER_EVENTS24PAGES_CLEAR_RESULTS_CODE13FATAL_REASONSL39REASON_CODE_HUGE_PDE_SUBTABLE_NOT_EXISTE
ffff8000004022a0 r _ZN18MEMMODULE_LOCAIONS20KSPACE_MAPPER_EVENTS24PAGES_CLEAR_RESULTS_CODE13FATAL_REASONSL31REASON_CODE_HUGE_PDPTE_UNTIMELYE
ffff8000004022a2 r _ZN18MEMMODULE_LOCAIONS20KSPACE_MAPPER_EVENTS24PAGES_CLEAR_RESULTS_CODE13FATAL_REASONSL32REASON_CODE_HUGE_PDPTE_NOT_EXISTE
ffff8000004022a4 r _ZN18MEMMODULE_LOCAIONS20KSPACE_MAPPER_EVENTS24PAGES_CLEAR_RESULTS_CODE13FATAL_REASONSL29REASON_CODE_HUGE_PDE_UNTIMELYE
ffff8000004022a6 r _ZN18MEMMODULE_LOCAIONS20KSPACE_MAPPER_EVENTS24PAGES_CLEAR_RESULTS_CODE13FATAL_REASONSL30REASON_CODE_HUGE_PDE_NOT_EXISTE
ffff8000004022a8 r _ZN18MEMMODULE_LOCAIONS20KSPACE_MAPPER_EVENTSL30EVENT_CODE_SEG_TO_INFO_PACKAGEE
ffff8000004022a9 r _ZN18MEMMODULE_LOCAIONS20KSPACE_MAPPER_EVENTSL28EVENT_CODE_VM_SEARCH_BY_ADDRE
ffff8000004022aa r _ZN18MEMMODULE_LOCAIONS20KSPACE_MAPPER_EVENTS25VM_SEARCH_BY_ADDR_RESULTS12FAIL_REASONSL21REASON_CODE_NOT_FOUNDE
ffff8000004022ac r _ZN18MEMMODULE_LOCAIONSL43LOCATION_CODE_KSPACE_MAP_MGR_PGS_PAGE_TABLEE
ffff8000004022ad r _ZL28PROCESSOR_RSP0_STACK_BTM_IDX
ffff8000004022ae r _ZL21PROCESSOR_ID_GS_INDEX
ffff8000004022af r _ZL21TIME_COMPLEX_GS_INDEX
ffff8000004022b0 r _ZL35PROCESSOR_NOW_RUNNING_TASK_GS_INDEX
ffff8000004022b1 r _ZL22PROCESSOR_USER_RSP_TMP
ffff8000004022b2 r _ZL20SLOT_IS_SLOT_MAX_IDX
ffff8000004022b4 r _ZL11ARCH_x86_64
ffff8000004022b8 r _ZL9fs_per_ns
ffff8000004022c0 r _ZL11FS_per_mius
ffff8000004022c8 r _ZN18MEMMODULE_LOCAIONSL31LOCATION_CODE_TRANSPARNENT_PAGEE
ffff8000004022c9 r _ZN18MEMMODULE_LOCAIONS24TRANSPARNENT_PAGE_EVENTSL16EVENT_CODE_SPILTE
ffff8000004022ca r _ZN18MEMMODULE_LOCAIONS24TRANSPARNENT_PAGE_EVENTSL16EVENT_CODE_MERGEE
ffff8000004022cb r _ZN18MEMMODULE_LOCAIONS24TRANSPARNENT_PAGE_EVENTSL21EVENT_CODE_MERGE_FREEE
ffff8000004022cc r _ZN18MEMMODULE_LOCAIONS24TRANSPARNENT_PAGE_EVENTS18SPILT_RESULTS_CODE17FAIL_REASONS_CODEL37FAIL_REASON_CODE_INVALID_TARGET_ORDERE
ffff8000004022ce r _ZN18MEMMODULE_LOCAIONS24TRANSPARNENT_PAGE_EVENTS18SPILT_RESULTS_CODE17FAIL_REASONS_CODEL41FAIL_REASON_CODE_TARGET_ORDER_NOT_SMALLERE
ffff8000004022d0 r _ZN18MEMMODULE_LOCAIONS24TRANSPARNENT_PAGE_EVENTS18SPILT_RESULTS_CODE17FAIL_REASONS_CODEL38FAIL_REASON_CODE_INDEX_ALIGN_TOO_SMALLE
ffff8000004022d2 r _ZN18MEMMODULE_LOCAIONS24TRANSPARNENT_PAGE_EVENTS18SPILT_RESULTS_CODE17FAIL_REASONS_CODEL13NOT_HEAD_PAGEE
ffff8000004022d4 r _ZN18MEMMODULE_LOCAIONS24TRANSPARNENT_PAGE_EVENTS18SPILT_RESULTS_CODE17FAIL_REASONS_CODEL29FAIL_REASON_CODE_OUT_OF_RANGEE
ffff8000004022d6 r _ZN18MEMMODULE_LOCAIONS24TRANSPARNENT_PAGE_EVENTS18SPILT_RESULTS_CODE18FATAL_REASONS_CODEL21CONSISTENCY_VIOLATIONE
ffff8000004022d8 r _ZN18MEMMODULE_LOCAIONS24TRANSPARNENT_PAGE_EVENTS18MERGE_RESULTS_CODE17FAIL_REASONS_CODEL37FAIL_REASON_CODE_INVALID_TARGET_ORDERE
ffff8000004022da r _ZN18MEMMODULE_LOCAIONS24TRANSPARNENT_PAGE_EVENTS18MERGE_RESULTS_CODE17FAIL_REASONS_CODEL41FAIL_REASON_CODE_TARGET_ORDER_NOT_GREATERE
ffff8000004022dc r _ZN18MEMMODULE_LOCAIONS24TRANSPARNENT_PAGE_EVENTS18MERGE_RESULTS_CODE17FAIL_REASONS_CODEL38FAIL_REASON_CODE_INDEX_ALIGN_TOO_SMALLE
ffff8000004022de r _ZN18MEMMODULE_LOCAIONS24TRANSPARNENT_PAGE_EVENTS18MERGE_RESULTS_CODE17FAIL_REASONS_CODEL29FAIL_REASON_CODE_OUT_OF_RANGEE
ffff8000004022e0 r _ZN18MEMMODULE_LOCAIONS24TRANSPARNENT_PAGE_EVENTS18MERGE_RESULTS_CODE17FAIL_REASONS_CODEL30FAIL_REASON_CODE_NOT_HEAD_PAGEE
ffff8000004022e2 r _ZN18MEMMODULE_LOCAIONS24TRANSPARNENT_PAGE_EVENTS18MERGE_RESULTS_CODE17FAIL_REASONS_CODEL31FAIL_REASON_CODE_ORDER_MISMATCHE
ffff8000004022e4 r _ZN18MEMMODULE_LOCAIONS24TRANSPARNENT_PAGE_EVENTS18MERGE_RESULTS_CODE17FAIL_REASONS_CODEL30FAIL_REASON_CODE_TYPE_MISMATCHE
ffff8000004022e6 r _ZN18MEMMODULE_LOCAIONS24TRANSPARNENT_PAGE_EVENTS18MERGE_RESULTS_CODE17FAIL_REASONS_CODEL41FAIL_REASON_CODE_TRANSPARENT_PAGE_INVALIDE
ffff8000004022e8 r _ZN18MEMMODULE_LOCAIONS24TRANSPARNENT_PAGE_EVENTS18MERGE_RESULTS_CODE17FAIL_REASONS_CODEL34FAIL_REASON_CODE_HEAD_PTR_MISMATCHE
ffff8000004022ea r _ZN18MEMMODULE_LOCAIONS24TRANSPARNENT_PAGE_EVENTS18MERGE_RESULTS_CODE17FAIL_REASONS_CODEL36FAIL_REASON_CODE_HUGE_ORDER_MISMATCHE
ffff8000004022ec r _ZN18MEMMODULE_LOCAIONS24TRANSPARNENT_PAGE_EVENTS18MERGE_RESULTS_CODE17FAIL_REASONS_CODEL13NOT_HEAD_PAGEE
ffff8000004022ee r _ZN18MEMMODULE_LOCAIONS24TRANSPARNENT_PAGE_EVENTS23MERGE_FREE_RESULTS_CODE17FAIL_REASONS_CODEL37FAIL_REASON_CODE_INVALID_TARGET_ORDERE
ffff8000004022f0 r _ZN18MEMMODULE_LOCAIONS24TRANSPARNENT_PAGE_EVENTS23MERGE_FREE_RESULTS_CODE17FAIL_REASONS_CODEL41FAIL_REASON_CODE_TARGET_ORDER_NOT_GREATERE
ffff8000004022f2 r _ZN18MEMMODULE_LOCAIONS24TRANSPARNENT_PAGE_EVENTS23MERGE_FREE_RESULTS_CODE17FAIL_REASONS_CODEL38FAIL_REASON_CODE_INDEX_ALIGN_TOO_SMALLE
ffff8000004022f4 r _ZN18MEMMODULE_LOCAIONS24TRANSPARNENT_PAGE_EVENTS23MERGE_FREE_RESULTS_CODE17FAIL_REASONS_CODEL29FAIL_REASON_CODE_OUT_OF_RANGEE
ffff8000004022f6 r _ZN18MEMMODULE_LOCAIONS24TRANSPARNENT_PAGE_EVENTS23MERGE_FREE_RESULTS_CODE17FAIL_REASONS_CODEL30FAIL_REASON_CODE_NOT_HEAD_PAGEE
ffff8000004022f8 r _ZN18MEMMODULE_LOCAIONS24TRANSPARNENT_PAGE_EVENTS23MERGE_FREE_RESULTS_CODE17FAIL_REASONS_CODEL31FAIL_REASON_CODE_ORDER_MISMATCHE
ffff8000004022fa r _ZN18MEMMODULE_LOCAIONS24TRANSPARNENT_PAGE_EVENTS23MERGE_FREE_RESULTS_CODE17FAIL_REASONS_CODEL25FAIL_REASON_CODE_NOT_FREEE
ffff8000004022fc r _ZN18MEMMODULE_LOCAIONS24TRANSPARNENT_PAGE_EVENTS23MERGE_FREE_RESULTS_CODE17FAIL_REASONS_CODEL32FAIL_REASON_CODE_NOT_ALLOCATABLEE
ffff8000004022fe r _ZN18MEMMODULE_LOCAIONS24TRANSPARNENT_PAGE_EVENTS23MERGE_FREE_RESULTS_CODE17FAIL_REASONS_CODEL33FAIL_REASON_CODE_REFCOUNT_NONZEROE
ffff800000402300 r _ZN18MEMMODULE_LOCAIONS24TRANSPARNENT_PAGE_EVENTS23MERGE_FREE_RESULTS_CODE17FAIL_REASONS_CODEL41FAIL_REASON_CODE_TRANSPARENT_PAGE_INVALIDE
ffff800000402302 r _ZN18MEMMODULE_LOCAIONS24TRANSPARNENT_PAGE_EVENTS23MERGE_FREE_RESULTS_CODE17FAIL_REASONS_CODEL34FAIL_REASON_CODE_HEAD_PTR_MISMATCHE
ffff800000402304 r _ZN18MEMMODULE_LOCAIONS24TRANSPARNENT_PAGE_EVENTS23MERGE_FREE_RESULTS_CODE17FAIL_REASONS_CODEL36FAIL_REASON_CODE_HUGE_ORDER_MISMATCHE
ffff800000402306 r _ZN18MEMMODULE_LOCAIONS24TRANSPARNENT_PAGE_EVENTS23MERGE_FREE_RESULTS_CODE17FAIL_REASONS_CODEL13NOT_HEAD_PAGEE
ffff800000402308 r _ZN18MEMMODULE_LOCAIONSL23LOCATION_CODE_PAGES_ARRE
ffff800000402309 r _ZN18MEMMODULE_LOCAIONS16PAGES_ARR_EVENTSL25EVENT_CODE_SIMP_PAGES_SETE
ffff80000040230a r _ZN18MEMMODULE_LOCAIONS16PAGES_ARR_EVENTS27SIMP_PAGES_SET_RESULTS_CODE17FAIL_REASONS_CODEL40FAIL_REASON_CODE_INTERVAL_NOT_IN_FREERAME
ffff80000040230c r _ZN9SchedulerL14self_schedulerE
ffff80000040230d r _ZN9SchedulerL19scheduler_task_poolE
ffff80000040230e r _ZN9Scheduler16task_pool_eventsL4initE
ffff80000040230f r _ZN9Scheduler16task_pool_eventsL10slot_allocE
ffff800000402310 r _ZN9Scheduler16task_pool_events13alloc_results12fail_reasonsL9not_foundE
ffff800000402312 r _ZN9Scheduler16task_pool_eventsL9slot_freeE
ffff800000402314 r _ZN9Scheduler16task_pool_events12free_results12fail_reasonsL18index_out_of_rangeE
ffff800000402316 r _ZN9Scheduler16task_pool_events12free_results12fail_reasonsL13not_allocatedE
ffff800000402318 r _ZN9Scheduler16task_pool_events12free_results12fail_reasonsL7bad_tidE
ffff80000040231a r _ZN9Scheduler16task_pool_events12free_results12fail_reasonsL19sub_table_not_existE
ffff80000040231c r _ZN9Scheduler16task_pool_events17try_free_subtable12fail_reasonsL9null_poolE
ffff80000040231e r _ZN9Scheduler16task_pool_events17try_free_subtable12fail_reasonsL13not_all_emptyE
ffff800000402320 r _ZN9Scheduler21self_scheduler_eventsL15timer_cpp_enterE
ffff800000402322 r _ZN9Scheduler21self_scheduler_events23timer_cpp_enter_results13fatal_reasonsL14null_schedulerE
ffff800000402324 r _ZN9Scheduler21self_scheduler_events23timer_cpp_enter_results13fatal_reasonsL23invalid_running_task_idE
ffff800000402326 r _ZN9Scheduler21self_scheduler_events23timer_cpp_enter_results13fatal_reasonsL13null_task_ptrE
ffff800000402328 r _ZN9Scheduler21self_scheduler_events23timer_cpp_enter_results13fatal_reasonsL10invalid_csE
ffff80000040232a r _ZN9Scheduler21self_scheduler_events23timer_cpp_enter_results13fatal_reasonsL20null_kthread_contextE
ffff80000040232c r _ZN9Scheduler21self_scheduler_events23timer_cpp_enter_results13fatal_reasonsL18invalid_stack_sizeE
ffff80000040232e r _ZN9Scheduler21self_scheduler_events23timer_cpp_enter_results13fatal_reasonsL16rsp_out_of_rangeE
ffff800000402330 r _ZN9Scheduler21self_scheduler_events23timer_cpp_enter_results13fatal_reasonsL23null_userthread_contextE
ffff800000402332 r _ZN9Scheduler21self_scheduler_events23timer_cpp_enter_results13fatal_reasonsL17invalid_task_typeE
ffff800000402334 r _ZN9Scheduler21self_scheduler_eventsL19kthread_yield_enterE
ffff800000402336 r _ZN9Scheduler21self_scheduler_events27kthread_yield_enter_results13fatal_reasonsL14null_schedulerE
ffff800000402338 r _ZN9Scheduler21self_scheduler_events27kthread_yield_enter_results13fatal_reasonsL23invalid_running_task_idE
ffff80000040233a r _ZN9Scheduler21self_scheduler_events27kthread_yield_enter_results13fatal_reasonsL13null_task_ptrE
ffff80000040233c r _ZN9Scheduler21self_scheduler_events27kthread_yield_enter_results13fatal_reasonsL20null_kthread_contextE
ffff80000040233e r _ZN9Scheduler21self_scheduler_events27kthread_yield_enter_results13fatal_reasonsL18invalid_stack_sizeE
ffff800000402340 r _ZN9Scheduler21self_scheduler_events27kthread_yield_enter_results13fatal_reasonsL16rsp_out_of_rangeE
ffff800000402342 r _ZN9Scheduler21self_scheduler_events27kthread_yield_enter_results13fatal_reasonsL17invalid_task_typeE
ffff800000402344 r _ZN9Scheduler21self_scheduler_eventsL19schedule_and_switchE
ffff800000402346 r _ZN9Scheduler21self_scheduler_events27schedule_and_switch_results13fatal_reasonsL13empty_no_idleE
ffff800000402348 r _ZN9Scheduler21self_scheduler_events27schedule_and_switch_results13fatal_reasonsL13null_task_ptrE
ffff80000040234a r _ZN9Scheduler21self_scheduler_eventsL17insert_ready_taskE
ffff80000040234c r _ZN9Scheduler21self_scheduler_events25insert_ready_task_results12fail_reasonsL13null_task_ptrE
ffff80000040234e r _ZN9Scheduler21self_scheduler_events25insert_ready_task_results12fail_reasonsL13bad_task_typeE
ffff800000402350 r _ZN9Scheduler21self_scheduler_events25insert_ready_task_results12fail_reasonsL11insert_failE
ffff800000402352 r _ZN9Scheduler21self_scheduler_eventsL15wake_up_kthreadE
ffff800000402354 r _ZN9Scheduler21self_scheduler_events23wake_up_kthread_results15success_reasonsL19other_entity_wakeupE
ffff800000402356 r _ZN9Scheduler21self_scheduler_events23wake_up_kthread_results15success_reasonsL25already_wakeup_or_runningE
ffff800000402358 r _ZN9Scheduler21self_scheduler_events23wake_up_kthread_results12fail_reasonsL14bad_task_stateE
ffff80000040235a r _ZN9Scheduler21self_scheduler_events23wake_up_kthread_results12fail_reasonsL38kthread_cant_wake_for_bad_block_reasonE
ffff80000040235c r _ZN9Scheduler21self_scheduler_eventsL13kthread_blockE
ffff80000040235e r _ZN9Scheduler21self_scheduler_events21kthread_block_results13fatal_reasonsL13bad_task_typeE
ffff800000402360 r _ZN9Scheduler21self_scheduler_events21kthread_block_results13fatal_reasonsL15context_nullptrE
ffff800000402362 r _ZN9Scheduler21self_scheduler_events21kthread_block_results13fatal_reasonsL23context_null_stack_sizeE
ffff800000402364 r _ZN9Scheduler21self_scheduler_events21kthread_block_results13fatal_reasonsL29context_stackptr_out_of_rangeE
ffff800000402366 r _ZN9Scheduler21self_scheduler_events21kthread_block_results13fatal_reasonsL13illeage_stateE
ffff800000402368 r _ZN9Scheduler21self_scheduler_eventsL17sleep_task_insertE
ffff80000040236a r _ZN9Scheduler21self_scheduler_events25sleep_task_insert_results12fail_reasonsL13null_task_ptrE
ffff80000040236c r _ZN9Scheduler21self_scheduler_events25sleep_task_insert_results12fail_reasonsL13bad_task_typeE
ffff80000040236e r _ZN9Scheduler21self_scheduler_events25sleep_task_insert_results12fail_reasonsL11insert_failE
ffff800000402370 r _ZN9Scheduler21self_scheduler_eventsL13kthread_sleepE
ffff800000402372 r _ZN9Scheduler21self_scheduler_events21kthread_sleep_results13fatal_reasonsL14bad_task_stateE
ffff800000402374 r _ZN9Scheduler21self_scheduler_events21kthread_sleep_results13fatal_reasonsL15context_nullptrE
ffff800000402376 r _ZN9Scheduler21self_scheduler_events21kthread_sleep_results13fatal_reasonsL23context_null_stack_sizeE
ffff800000402378 r _ZN9Scheduler21self_scheduler_events21kthread_sleep_results13fatal_reasonsL29context_stackptr_out_of_rangeE
ffff80000040237a r _ZN9Scheduler21self_scheduler_events21kthread_sleep_results13fatal_reasonsL13illeage_stateE
ffff80000040237c r _ZN9Scheduler21self_scheduler_eventsL12kthread_waitE
ffff80000040237e r _ZN9Scheduler21self_scheduler_events20kthread_wait_results13fatal_reasonsL14bad_task_stateE
ffff800000402380 r _ZN9Scheduler21self_scheduler_events20kthread_wait_results13fatal_reasonsL29context_stackptr_out_of_rangeE
ffff800000402382 r _ZN9Scheduler21self_scheduler_eventsL12kthread_exitE
ffff800000402384 r _ZN9Scheduler21self_scheduler_events20kthread_exit_results13fatal_reasonsL14bad_task_stateE
ffff800000402386 r _ZN9Scheduler21self_scheduler_events20kthread_exit_results13fatal_reasonsL23waiter_bad_block_reasonE
ffff800000402388 r _ZN9Scheduler21self_scheduler_events20kthread_exit_results13fatal_reasonsL29context_stackptr_out_of_rangeE
ffff80000040238a r _ZN9Scheduler21self_scheduler_eventsL19kthread_block_queueE
ffff80000040238c r _ZN9Scheduler21self_scheduler_events27kthread_block_queue_results13fatal_reasonsL13bad_task_typeE
ffff80000040238e r _ZN9Scheduler21self_scheduler_events27kthread_block_queue_results13fatal_reasonsL15context_nullptrE
ffff800000402390 r _ZN9Scheduler21self_scheduler_events27kthread_block_queue_results13fatal_reasonsL23context_null_stack_sizeE
ffff800000402392 r _ZN9Scheduler21self_scheduler_events27kthread_block_queue_results13fatal_reasonsL29context_stackptr_out_of_rangeE
ffff800000402394 r _ZN9Scheduler21self_scheduler_events27kthread_block_queue_results13fatal_reasonsL13illeage_stateE
ffff800000402396 r _ZN9Scheduler21self_scheduler_eventsL28kthread_block_queue_if_equalE
ffff800000402398 r _ZN9Scheduler21self_scheduler_events36kthread_block_queue_if_equal_results13fatal_reasonsL13bad_task_typeE
ffff80000040239a r _ZN9Scheduler21self_scheduler_events36kthread_block_queue_if_equal_results13fatal_reasonsL15context_nullptrE
ffff80000040239c r _ZN9Scheduler21self_scheduler_events36kthread_block_queue_if_equal_results13fatal_reasonsL23context_null_stack_sizeE
ffff80000040239e r _ZN9Scheduler21self_scheduler_events36kthread_block_queue_if_equal_results13fatal_reasonsL29context_stackptr_out_of_rangeE
ffff8000004023a0 r _ZN9Scheduler21self_scheduler_events36kthread_block_queue_if_equal_results13fatal_reasonsL13illeage_stateE
ffff8000004023a2 r _ZN9Scheduler21self_scheduler_eventsL19kthread_common_saveE
ffff8000004023a4 r _ZN9Scheduler21self_scheduler_events27kthread_common_save_results13fatal_reasonsL13bad_task_typeE
ffff8000004023a6 r _ZN9Scheduler21self_scheduler_events27kthread_common_save_results13fatal_reasonsL15context_nullptrE
ffff8000004023a8 r _ZN9Scheduler21self_scheduler_events27kthread_common_save_results13fatal_reasonsL14bad_task_stateE
ffff8000004023aa r _ZN9Scheduler21self_scheduler_events27kthread_common_save_results13fatal_reasonsL29context_stackptr_out_of_rangeE
ffff8000004023ac r _ZN9Scheduler21self_scheduler_events27kthread_common_save_results12fail_reasonsL13nullptr_paramE
ffff8000004023b0 r _ZN16kthread_call_numL4exitE
ffff8000004023b8 r _ZN16kthread_call_numL5sleepE
ffff8000004023c0 r _ZN16kthread_call_numL5yieldE
ffff8000004023c8 r _ZN16kthread_call_numL4waitE
ffff8000004023d0 r _ZN16kthread_call_numL5blockE
ffff8000004023d8 r _ZN16kthread_call_numL14block_to_queueE
ffff8000004023e0 r _ZN16kthread_call_numL23block_to_queue_if_equalE
ffff8000004023e8 r _ZL11INVALID_TID
ffff8000004023f0 r _ZL22DEFAULT_STACK_PG_COUNT
ffff8000004023f4 r _ZL18DEFAULT_STACK_SIZE
ffff8000004023f8 r _ZL23DEFALUT_TIMER_SPAN_MIUS
ffff800000402400 r _ZL19INIT_DEFAULT_RFLAGS
ffff800000402408 r _ZL18INVALID_NODE_INDEX
ffff80000040240c r _ZN14x86_exceptionsL12DIVIDE_ERRORE
ffff80000040240d r _ZN14x86_exceptionsL5DEBUGE
ffff80000040240e r _ZN14x86_exceptionsL3NMIE
ffff80000040240f r _ZN14x86_exceptionsL10BREAKPOINTE
ffff800000402410 r _ZN14x86_exceptionsL8OVERFLOWE
ffff800000402411 r _ZN14x86_exceptionsL20BOUND_RANGE_EXCEEDEDE
ffff800000402412 r _ZN14x86_exceptionsL14INVALID_OPCODEE
ffff800000402413 r _ZN14x86_exceptionsL20DEVICE_NOT_AVAILABLEE
ffff800000402414 r _ZN14x86_exceptionsL12DOUBLE_FAULTE
ffff800000402415 r _ZN14x86_exceptionsL27COPROCESSOR_SEGMENT_OVERRUNE
ffff800000402416 r _ZN14x86_exceptionsL11INVALID_TSSE
ffff800000402417 r _ZN14x86_exceptionsL19SEGMENT_NOT_PRESENTE
ffff800000402418 r _ZN14x86_exceptionsL19STACK_SEGMENT_FAULTE
ffff800000402419 r _ZN14x86_exceptionsL24GENERAL_PROTECTION_FAULTE
ffff80000040241a r _ZN14x86_exceptionsL10PAGE_FAULTE
ffff80000040241b r _ZN14x86_exceptionsL13X87_FPU_ERRORE
ffff80000040241c r _ZN14x86_exceptionsL15ALIGNMENT_CHECKE
ffff80000040241d r _ZN14x86_exceptionsL13MACHINE_CHECKE
ffff80000040241e r _ZN14x86_exceptionsL29SIMD_FLOATING_POINT_EXCEPTIONE
ffff80000040241f r _ZN14x86_exceptionsL24VIRTUALIZATION_EXCEPTIONE
ffff800000402420 r _ZN14x86_exceptionsL28CONTROL_PROTECTION_EXCEPTIONE
ffff800000402421 r _ZN21x86_softinterrupt_abiL9ASM_PANICE
ffff800000402422 r _ZN21x86_softinterrupt_abiL12KTHREAD_CALLE
ffff800000402423 r _ZN21x86_softinterrupt_abiL14USER_ABI_ENTERE
ffff800000402424 r _ZN8ipi_vecsL11IPI_RUNAWAYE
ffff800000402425 r _ZN8ipi_vecsL14IPI_RETURNABLEE
ffff800000402426 r _ZN8ipi_vecsL8IPI_HALTE
ffff800000402427 r _ZN8ipi_vecsL11IPI_RESCHEDE
ffff800000402428 r _ZL18SUPRIOUS_INTERRUPT
ffff800000402430 r _ZL30TOKEN_FLAG_MASK_TOKEN_SCHEDULE
ffff800000402438 r _ZL23MSR_IA32_UMWAIT_CONTROL
ffff800000402440 r _ZL13ter16x32_data
ffff800000406440 r _ZN23COREHARDWARES_LOCATIONSL18LOCATION_CODE_HPETE
ffff800000406441 r _ZN23COREHARDWARES_LOCATIONS18HPET_DRIVER_EVENTSL4INITE
ffff800000406442 r _ZN23COREHARDWARES_LOCATIONS18HPET_DRIVER_EVENTS12INIT_RESULTS12FAIL_REASONSL17INVALID_ACPI_ADDRE
ffff800000406444 r _ZN23COREHARDWARES_LOCATIONS18HPET_DRIVER_EVENTS12INIT_RESULTS12FAIL_REASONSL19ACPI_ADDR_NOT_ALIGNE
ffff800000406446 r _ZN23COREHARDWARES_LOCATIONS18HPET_DRIVER_EVENTS12INIT_RESULTS12FAIL_REASONSL13ALLREADE_INITE
ffff800000406448 r _ZN23COREHARDWARES_LOCATIONS18HPET_DRIVER_EVENTS12INIT_RESULTS12FAIL_REASONSL19COUNTER_PERIOD_ZEROE
ffff80000040644c r _ZN4HPET4regsL34offset_General_Capabilities_and_IDE
ffff800000406450 r _ZN4HPET4regsL21offset_General_ConfigE
ffff800000406454 r _ZN4HPET4regsL25offset_main_counter_valueE
ffff800000406458 r _ZN4HPET4regsL44offset_Timer0_Configuration_and_CapabilitiesE
ffff80000040645c r _ZN4HPET4regsL14size_per_timerE
ffff800000406460 r _ZN4HPET4regsL28COMPARATOR_COUNT_LEFT_OFFSETE
ffff800000406461 r _ZN4HPET4regsL21COMPARATOR_COUNT_MASKE
ffff800000406462 r _ZN4HPET4regsL30COUNTER_CLK_PERIOD_LEFT_OFFSETE
ffff800000406468 r _ZN4HPET4regsL18GCONFIG_ENABLE_BITE
ffff800000406470 r _ZN4HPET4regsL18Tn_INT_ENB_CNF_BITE
ffff800000406478 r _ZN16Interrupt_moduleL16modloc_vec_demuxE
ffff80000040647a r _ZN16Interrupt_module16vec_demux_events23common_fail_reason_codeL11INVALID_VECE
ffff80000040647c r _ZN16Interrupt_module16vec_demux_events23common_fail_reason_codeL20INVALID_PROCESSOR_IDE
ffff80000040647e r _ZN16Interrupt_module16vec_demux_eventsL4initE
ffff80000040647f r _ZN16Interrupt_module16vec_demux_events12init_results17fatal_reason_codeL24SYMBOL_TABLE_UNAVAILABLEE
ffff800000406480 r _ZN16Interrupt_module16vec_demux_events12init_results17fatal_reason_codeL17NOT_ALL_IDT_FOUNDE
ffff800000406481 r _ZN16Interrupt_module16vec_demux_eventsL9alloc_vecE
ffff800000406482 r _ZN16Interrupt_module16vec_demux_events17alloc_vec_results16fail_reason_codeL11NO_FREE_VECE
ffff800000406484 r _ZN16Interrupt_module16vec_demux_events17alloc_vec_results16fail_reason_codeL12BAD_FUNC_PTRE
ffff800000406486 r _ZN16Interrupt_module16vec_demux_events17alloc_vec_results16fail_reason_codeL13SYM_NOT_FOUNDE
ffff800000406488 r _ZN16Interrupt_module16vec_demux_eventsL8free_vecE
ffff80000040648a r _ZN16Interrupt_module16vec_demux_events16free_vec_results16fail_reason_codeL15VEC_NOT_ALLOCEDE
ffff80000040648c r _ZN16Interrupt_module16vec_demux_eventsL7get_vecE
ffff80000040648d r _ZN16Interrupt_module16vec_demux_eventsL8dispatchE
ffff80000040648e r _ZN16Interrupt_module16vec_demux_events16dispatch_results17fatal_reason_codeL16BAD_VEC_RECIEVEDE
ffff800000406490 r _ZL21INVALID_INTERRUPT_VEC
ffff800000406491 r _ZN6x2apic8ESR_BITSL19SEND_CHECKSUM_ERRORE
ffff800000406492 r _ZN6x2apic8ESR_BITSL22RECEIVE_CHECKSUM_ERRORE
ffff800000406493 r _ZN6x2apic8ESR_BITSL17SEND_ACCEPT_ERRORE
ffff800000406494 r _ZN6x2apic8ESR_BITSL20RECEIVE_ACCEPT_ERRORE
ffff800000406495 r _ZN6x2apic8ESR_BITSL16REDIRECTABLE_IPIE
ffff800000406496 r _ZN6x2apic8ESR_BITSL19SEND_ILLEGAL_VECTORE
ffff800000406497 r _ZN6x2apic8ESR_BITSL22RECEIVE_ILLEGAL_VECTORE
ffff800000406498 r _ZN6x2apic8ESR_BITSL21ILLEGAL_REGISTER_ADDRE
ffff800000406499 r _ZN6x2apic8ESR_BITSL14RESERVED_STARTE
ffff80000040649a r _ZN6x2apic8ESR_BITSL12RESERVED_ENDE
ffff80000040649c r _ZN6x2apic9ESR_MASKSL19SEND_CHECKSUM_ERRORE
ffff8000004064a0 r _ZN6x2apic9ESR_MASKSL22RECEIVE_CHECKSUM_ERRORE
ffff8000004064a4 r _ZN6x2apic9ESR_MASKSL17SEND_ACCEPT_ERRORE
ffff8000004064a8 r _ZN6x2apic9ESR_MASKSL20RECEIVE_ACCEPT_ERRORE
ffff8000004064ac r _ZN6x2apic9ESR_MASKSL16REDIRECTABLE_IPIE
ffff8000004064b0 r _ZN6x2apic9ESR_MASKSL19SEND_ILLEGAL_VECTORE
ffff8000004064b4 r _ZN6x2apic9ESR_MASKSL22RECEIVE_ILLEGAL_VECTORE
ffff8000004064b8 r _ZN6x2apic9ESR_MASKSL21ILLEGAL_REGISTER_ADDRE
ffff8000004064bc r _ZN6x2apic9ESR_MASKSL13RESERVED_MASKE
ffff8000004064c0 r _ZN6x2apic9ESR_MASKSL16ERROR_FLAGS_MASKE
ffff8000004064c4 r _ZN6x2apic9ESR_MASKSL15CHECKSUM_ERRORSE
ffff8000004064c8 r _ZN6x2apic9ESR_MASKSL13ACCEPT_ERRORSE
ffff8000004064cc r _ZN6x2apic9ESR_MASKSL21ILLEGAL_VECTOR_ERRORSE
ffff8000004064d0 r _ZN6x2apic9ESR_MASKSL15ALL_ERROR_FLAGSE
ffff8000004064d8 r _ZN6x2apicL12ddline_timerE
ffff8000004064e0 r _ZL16panic_will_magic
ffff8000004064e8 r _ZL18panic_will_version
ffff8000004064f0 r _ZL18x86_64_arch_spcify
ffff8000004064f8 r _ZL29default_panic_behaviors_flags
ffff8000004064fc r _ZL16CACHE_SLOT_COUNT
ffff800000406500 r _ZN3msrL9IA32_EFERE
ffff800000406504 r _ZN3msr4apicL14IA32_APIC_BASEE
ffff800000406508 r _ZN3msr4apicL14IA32_X2APIC_IDE
ffff80000040650c r _ZN3msr4apicL19IA32_X2APIC_VERSIONE
ffff800000406510 r _ZN3msr4apicL15IA32_X2APIC_TPRE
ffff800000406514 r _ZN3msr4apicL15IA32_X2APIC_PPRE
ffff800000406518 r _ZN3msr4apicL15IA32_X2APIC_EOIE
ffff80000040651c r _ZN3msr4apicL15IA32_X2APIC_LDRE
ffff800000406520 r _ZN3msr4apicL15IA32_X2APIC_SVRE
ffff800000406524 r _ZN3msr4apicL16IA32_X2APIC_ISR0E
ffff800000406528 r _ZN3msr4apicL16IA32_X2APIC_ISR1E
ffff80000040652c r _ZN3msr4apicL16IA32_X2APIC_ISR2E
ffff800000406530 r _ZN3msr4apicL16IA32_X2APIC_ISR3E
ffff800000406534 r _ZN3msr4apicL16IA32_X2APIC_ISR4E
ffff800000406538 r _ZN3msr4apicL16IA32_X2APIC_ISR5E
ffff80000040653c r _ZN3msr4apicL16IA32_X2APIC_ISR6E
ffff800000406540 r _ZN3msr4apicL16IA32_X2APIC_ISR7E
ffff800000406544 r _ZN3msr4apicL16IA32_X2APIC_TMR0E
ffff800000406548 r _ZN3msr4apicL16IA32_X2APIC_TMR1E
ffff80000040654c r _ZN3msr4apicL16IA32_X2APIC_TMR2E
ffff800000406550 r _ZN3msr4apicL16IA32_X2APIC_TMR3E
ffff800000406554 r _ZN3msr4apicL16IA32_X2APIC_TMR4E
ffff800000406558 r _ZN3msr4apicL16IA32_X2APIC_TMR5E
ffff80000040655c r _ZN3msr4apicL16IA32_X2APIC_TMR6E
ffff800000406560 r _ZN3msr4apicL16IA32_X2APIC_TMR7E
ffff800000406564 r _ZN3msr4apicL16IA32_X2APIC_IRR0E
ffff800000406568 r _ZN3msr4apicL16IA32_X2APIC_IRR1E
ffff80000040656c r _ZN3msr4apicL16IA32_X2APIC_IRR2E
ffff800000406570 r _ZN3msr4apicL16IA32_X2APIC_IRR3E
ffff800000406574 r _ZN3msr4apicL16IA32_X2APIC_IRR4E
ffff800000406578 r _ZN3msr4apicL16IA32_X2APIC_IRR5E
ffff80000040657c r _ZN3msr4apicL16IA32_X2APIC_IRR6E
ffff800000406580 r _ZN3msr4apicL16IA32_X2APIC_IRR7E
ffff800000406584 r _ZN3msr4apicL15IA32_X2APIC_ESRE
ffff800000406588 r _ZN3msr4apicL20IA32_X2APIC_LVT_CMCIE
ffff80000040658c r _ZN3msr4apicL15IA32_X2APIC_ICRE
ffff800000406590 r _ZN3msr4apicL21IA32_X2APIC_LVT_TIMERE
ffff800000406594 r _ZN3msr4apicL23IA32_X2APIC_LVT_THERMALE
ffff800000406598 r _ZN3msr4apicL19IA32_X2APIC_LVT_PMIE
ffff80000040659c r _ZN3msr4apicL21IA32_X2APIC_LVT_LINT0E
ffff8000004065a0 r _ZN3msr4apicL21IA32_X2APIC_LVT_LINT1E
ffff8000004065a4 r _ZN3msr4apicL21IA32_X2APIC_LVT_ERRORE
ffff8000004065a8 r _ZN3msr4apicL31IA32_X2APIC_TIMER_INITIAL_COUNTE
ffff8000004065ac r _ZN3msr4apicL31IA32_X2APIC_TIMER_CURRENT_COUNTE
ffff8000004065b0 r _ZN3msr4apicL31IA32_X2APIC_TIMER_DIVIDE_CONFIGE
ffff8000004065b4 r _ZN3msr4apicL20IA32_X2APIC_SELF_IPIE
ffff8000004065b8 r _ZN3msr6systemL20IA32_FEATURE_CONTROLE
ffff8000004065bc r _ZN3msr6systemL8IA32_TSCE
ffff8000004065c0 r _ZN3msr6systemL16IA32_PLATFORM_IDE
ffff8000004065c4 r _ZN3msr6systemL19IA32_EBL_CR_POWERONE
ffff8000004065c8 r _ZN3msr6systemL21IA32_EBC_FREQUENCY_IDE
ffff8000004065cc r _ZN3msr5debugL13IA32_DEBUGCTLE
ffff8000004065d0 r _ZN3msr5debugL21IA32_LASTBRANCHFROMIPE
ffff8000004065d4 r _ZN3msr5debugL19IA32_LASTBRANCHTOIPE
ffff8000004065d8 r _ZN3msr5debugL18IA32_LASTINTFROMIPE
ffff8000004065dc r _ZN3msr5debugL16IA32_LASTINTTOIPE
ffff8000004065e0 r _ZN3msr11performanceL10IA32_MPERFE
ffff8000004065e4 r _ZN3msr11performanceL10IA32_APERFE
ffff8000004065e8 r _ZN3msr11performanceL16IA32_PERF_STATUSE
ffff8000004065ec r _ZN3msr11performanceL13IA32_PERF_CTLE
ffff8000004065f0 r _ZN3msr16power_managementL21IA32_CLOCK_MODULATIONE
ffff8000004065f4 r _ZN3msr16power_managementL20IA32_THERM_INTERRUPTE
ffff8000004065f8 r _ZN3msr16power_managementL17IA32_THERM_STATUSE
ffff8000004065fc r _ZN3msr16power_managementL16IA32_MISC_ENABLEE
ffff800000406600 r _ZN3msr4mtrrL13IA32_MTRR_CAPE
ffff800000406604 r _ZN3msr4mtrrL18IA32_MTRR_DEF_TYPEE
ffff800000406608 r _ZN3msr4mtrrL19IA32_MTRR_PHYSBASE0E
ffff80000040660c r _ZN3msr4mtrrL19IA32_MTRR_PHYSMASK0E
ffff800000406610 r _ZN3msr4mtrrL19IA32_MTRR_PHYSBASE1E
ffff800000406614 r _ZN3msr4mtrrL19IA32_MTRR_PHYSMASK1E
ffff800000406618 r _ZN3msr4mtrrL19IA32_MTRR_PHYSBASE2E
ffff80000040661c r _ZN3msr4mtrrL19IA32_MTRR_PHYSMASK2E
ffff800000406620 r _ZN3msr4mtrrL19IA32_MTRR_PHYSBASE3E
ffff800000406624 r _ZN3msr4mtrrL19IA32_MTRR_PHYSMASK3E
ffff800000406628 r _ZN3msr4mtrrL19IA32_MTRR_PHYSBASE4E
ffff80000040662c r _ZN3msr4mtrrL19IA32_MTRR_PHYSMASK4E
ffff800000406630 r _ZN3msr4mtrrL19IA32_MTRR_PHYSBASE5E
ffff800000406634 r _ZN3msr4mtrrL19IA32_MTRR_PHYSMASK5E
ffff800000406638 r _ZN3msr4mtrrL19IA32_MTRR_PHYSBASE6E
ffff80000040663c r _ZN3msr4mtrrL19IA32_MTRR_PHYSMASK6E
ffff800000406640 r _ZN3msr4mtrrL19IA32_MTRR_PHYSBASE7E
ffff800000406644 r _ZN3msr4mtrrL19IA32_MTRR_PHYSMASK7E
ffff800000406648 r _ZN3msr4mtrrL19IA32_MTRR_PHYSBASE8E
ffff80000040664c r _ZN3msr4mtrrL19IA32_MTRR_PHYSMASK8E
ffff800000406650 r _ZN3msr4mtrrL19IA32_MTRR_PHYSBASE9E
ffff800000406654 r _ZN3msr4mtrrL19IA32_MTRR_PHYSMASK9E
ffff800000406658 r _ZN3msr4mtrrL22IA32_MTRR_FIX64K_00000E
ffff80000040665c r _ZN3msr4mtrrL22IA32_MTRR_FIX16K_80000E
ffff800000406660 r _ZN3msr4mtrrL22IA32_MTRR_FIX16K_A0000E
ffff800000406664 r _ZN3msr4mtrrL21IA32_MTRR_FIX4K_C0000E
ffff800000406668 r _ZN3msr4mtrrL21IA32_MTRR_FIX4K_C8000E
ffff80000040666c r _ZN3msr4mtrrL21IA32_MTRR_FIX4K_D0000E
ffff800000406670 r _ZN3msr4mtrrL21IA32_MTRR_FIX4K_D8000E
ffff800000406674 r _ZN3msr4mtrrL21IA32_MTRR_FIX4K_E0000E
ffff800000406678 r _ZN3msr4mtrrL21IA32_MTRR_FIX4K_E8000E
ffff80000040667c r _ZN3msr4mtrrL21IA32_MTRR_FIX4K_F0000E
ffff800000406680 r _ZN3msr4mtrrL21IA32_MTRR_FIX4K_F8000E
ffff800000406684 r _ZN3msr4mtrrL8IA32_PATE
ffff800000406688 r _ZN3msr3vmxL14IA32_VMX_BASICE
ffff80000040668c r _ZN3msr3vmxL22IA32_VMX_PINBASED_CTLSE
ffff800000406690 r _ZN3msr3vmxL23IA32_VMX_PROCBASED_CTLSE
ffff800000406694 r _ZN3msr3vmxL18IA32_VMX_EXIT_CTLSE
ffff800000406698 r _ZN3msr3vmxL19IA32_VMX_ENTRY_CTLSE
ffff80000040669c r _ZN3msr3vmxL13IA32_VMX_MISCE
ffff8000004066a0 r _ZN3msr3vmxL19IA32_VMX_CR0_FIXED0E
ffff8000004066a4 r _ZN3msr3vmxL19IA32_VMX_CR0_FIXED1E
ffff8000004066a8 r _ZN3msr3vmxL19IA32_VMX_CR4_FIXED0E
ffff8000004066ac r _ZN3msr3vmxL19IA32_VMX_CR4_FIXED1E
ffff8000004066b0 r _ZN3msr3vmxL18IA32_VMX_VMCS_ENUME
ffff8000004066b4 r _ZN3msr3vmxL24IA32_VMX_PROCBASED_CTLS2E
ffff8000004066b8 r _ZN3msr3vmxL21IA32_VMX_EPT_VPID_CAPE
ffff8000004066bc r _ZN3msr3vmxL27IA32_VMX_TRUE_PINBASED_CTLSE
ffff8000004066c0 r _ZN3msr3vmxL28IA32_VMX_TRUE_PROCBASED_CTLSE
ffff8000004066c4 r _ZN3msr3vmxL23IA32_VMX_TRUE_EXIT_CTLSE
ffff8000004066c8 r _ZN3msr3vmxL24IA32_VMX_TRUE_ENTRY_CTLSE
ffff8000004066cc r _ZN3msr3vmxL15IA32_VMX_VMFUNCE
ffff8000004066d0 r _ZN3msr3sgxL21IA32_SGXLEPUBKEYHASH0E
ffff8000004066d4 r _ZN3msr3sgxL21IA32_SGXLEPUBKEYHASH1E
ffff8000004066d8 r _ZN3msr3sgxL21IA32_SGXLEPUBKEYHASH2E
ffff8000004066dc r _ZN3msr3sgxL21IA32_SGXLEPUBKEYHASH3E
ffff8000004066e0 r _ZN3msr4fredL14IA32_FRED_RSP0E
ffff8000004066e4 r _ZN3msr4fredL14IA32_FRED_RSP1E
ffff8000004066e8 r _ZN3msr4fredL14IA32_FRED_RSP2E
ffff8000004066ec r _ZN3msr4fredL14IA32_FRED_RSP3E
ffff8000004066f0 r _ZN3msr4fredL17IA32_FRED_STKLVLSE
ffff8000004066f4 r _ZN3msr4fredL14IA32_FRED_SSP1E
ffff8000004066f8 r _ZN3msr4fredL14IA32_FRED_SSP2E
ffff8000004066fc r _ZN3msr4fredL14IA32_FRED_SSP3E
ffff800000406700 r _ZN3msr4fredL16IA32_FRED_CONFIGE
ffff800000406708 r _ZN3msr4fred6configL8CSL_MASKE
ffff800000406710 r _ZN3msr4fred6configL17RSP_DEC_STEP_MASKE
ffff800000406718 r _ZN3msr4fred6configL15INT_STKLVL_MASKE
ffff800000406720 r _ZN3msr4fred6configL15ENTRY_PAGE_MASKE
ffff800000406728 r _ZN3msrL12IA32_PL0_SSPE
ffff80000040672c r _ZN3msr5timerL17IA32_TSC_DEADLINEE
ffff800000406730 r _ZN3msr7syscallL16IA32_SYSENTER_CSE
ffff800000406734 r _ZN3msr7syscallL17IA32_SYSENTER_ESPE
ffff800000406738 r _ZN3msr7syscallL17IA32_SYSENTER_EIPE
ffff80000040673c r _ZN3msr7syscallL9IA32_STARE
ffff800000406740 r _ZN3msr7syscallL10IA32_LSTARE
ffff800000406744 r _ZN3msr7syscallL10IA32_FMASKE
ffff800000406748 r _ZN3msr7syscallL12IA32_FS_BASEE
ffff80000040674c r _ZN3msr7syscallL12IA32_GS_BASEE
ffff800000406750 r _ZN3msr7syscallL19IA32_KERNEL_GS_BASEE
ffff800000406754 r _ZN3msr7syscallL12IA32_TSC_AUXE
ffff800000406758 r _ZN28infrastructure_location_codeL29location_code_textconsole_GoPE
ffff800000406759 r _ZN28infrastructure_location_code22textconsole_GoP_eventsL26textconsole_GoP_event_initE
ffff80000040675a r _ZN28infrastructure_location_code22textconsole_GoP_events12init_results12fail_reasonsL19font_bitmap_is_nullE
ffff80000040675b r _ZN28infrastructure_location_code22textconsole_GoP_events12init_results12fail_reasonsL13gfx_not_readyE
ffff80000040675c r _ZN28infrastructure_location_code22textconsole_GoP_events12init_results12fail_reasonsL13bad_cell_sizeE
ffff80000040675d r _ZN28infrastructure_location_code22textconsole_GoP_events12init_results12fail_reasonsL9zero_gridE
ffff80000040675e r _ZN28infrastructure_location_code22textconsole_GoP_events12init_results12fail_reasonsL12already_initE
ffff80000040675f r _ZN28infrastructure_location_code22textconsole_GoP_events12init_results12fail_reasonsL22glyph_cache_alloc_failE
ffff800000406760 r _ZN28infrastructure_location_code22textconsole_GoP_events12init_results12fail_reasonsL21backend_register_failE
ffff800000406764 r _ZL11TC_RING_CAP
ffff800000406768 r _ZL20TC_SERVICE_POP_BATCH
ffff800000406778 r _ZL19ACPI_XSDT_SIGNATURE
ffff800000406788 r _ZL19ACPI_FADT_SIGNATURE
ffff800000406798 r _ZL19ACPI_FACS_SIGNATURE
ffff8000004067a8 r _ZL19ACPI_MADT_SIGNATURE
ffff8000004067b8 r _ZL19ACPI_DSDT_SIGNATURE
ffff8000004067c8 r _ZL19ACPI_SSDT_SIGNATURE
ffff8000004067d8 r _ZL19ACPI_MCFG_SIGNATURE
ffff8000004067e8 r _ZL19ACPI_HPET_SIGNATURE
ffff8000004067f8 r _ZL19ACPI_DMAR_SIGNATURE
ffff800000406800 r _ZL21XSDT_SIGNATURE_UINT32
ffff800000406804 r _ZL21FADT_SIGNATURE_UINT32
ffff800000406808 r _ZL21FACS_SIGNATURE_UINT32
ffff80000040680c r _ZL21MADT_SIGNATURE_UINT32
ffff800000406810 r _ZL21DSDT_SIGNATURE_UINT32
ffff800000406814 r _ZL21SSDT_SIGNATURE_UINT32
ffff800000406818 r _ZL21MCFG_SIGNATURE_UINT32
ffff80000040681c r _ZL21HPET_SIGNATURE_UINT32
ffff800000406820 r _ZL21DMAR_SIGNATURE_UINT32
ffff800000406824 r _ZN14INFR_LOCATIONSL6KSHELLE
ffff800000406826 r _ZN14INFR_LOCATIONS13KSHELL_EVENTS19COMMON_FAIL_REASONSL21SHELL_NOT_INITIALIZEDE
ffff800000406828 r _ZN14INFR_LOCATIONS13KSHELL_EVENTS19COMMON_FAIL_REASONSL17INVALID_PARAMETERE
ffff80000040682a r _ZN14INFR_LOCATIONS13KSHELL_EVENTS19COMMON_FAIL_REASONSL9NOT_FOUNDE
ffff80000040682c r _ZN14INFR_LOCATIONS13KSHELL_EVENTSL12COMMAND_INITE
ffff80000040682d r _ZN14INFR_LOCATIONS13KSHELL_EVENTSL16COMMAND_REGISTERE
ffff80000040682e r _ZN14INFR_LOCATIONS13KSHELL_EVENTS24COMMAND_REGISTER_RESULTS12FAIL_REASONSL18INSERT_RBTREE_FAILE
ffff800000406830 r _ZN14INFR_LOCATIONS13KSHELL_EVENTSL18COMMAND_UNREGISTERE
ffff800000406831 r _ZN14INFR_LOCATIONS13KSHELL_EVENTSL15COMMAND_EXECUTEE
ffff800000406832 r _ZN14INFR_LOCATIONS13KSHELL_EVENTSL12COMMAND_FINDE
ffff800000406833 r _ZN14INFR_LOCATIONS13KSHELL_EVENTSL13COMMAND_PARSEE
ffff800000406834 r _ZN14INFR_LOCATIONS13KSHELL_EVENTSL12COMMAND_HELPE
ffff800000406835 r _ZN14INFR_LOCATIONS13KSHELL_EVENTSL10SHELL_LOOPE
ffff800000406836 r _ZN32AP_Init_error_observing_protocolL14realmode_magicE
ffff800000406838 r _ZN32AP_Init_error_observing_protocolL35PE_FINAL_STACK_NO_ERRCODE_TOP_MAGICE
ffff80000040683c r _ZN32AP_Init_error_observing_protocolL37PE_FINAL_STACK_WITH_ERRCODE_TOP_MAGICE
ffff800000406840 r _ZN32AP_Init_error_observing_protocolL37LONG_FINAL_STACK_NO_ERRCODE_TOP_MAGICE
ffff800000406848 r _ZN32AP_Init_error_observing_protocolL39LONG_FINAL_STACK_WITH_ERRCODE_TOP_MAGICE
ffff800000406850 r _ZN23COREHARDWARES_LOCATIONSL18LOCATION_CODE_DMARE
ffff800000406851 r _ZN23COREHARDWARES_LOCATIONS19DMAR_DRIVERS_EVENTSL4INITE
ffff800000406852 r _ZN23COREHARDWARES_LOCATIONS19DMAR_DRIVERS_EVENTS12INIT_RESULTS13FATAL_REASONSL27CAP_DIDNT_MET_LOWEST_DEMANDE
ffff800000406854 r _ZN23COREHARDWARES_LOCATIONS19DMAR_DRIVERS_EVENTS12INIT_RESULTS13FATAL_REASONSL20TIME_OUT_COMMAND_SETE
ffff800000406856 r _ZN23COREHARDWARES_LOCATIONS19DMAR_DRIVERS_EVENTS12INIT_RESULTS13FATAL_REASONSL18VECTOR_REGIST_FAILE
ffff800000406858 r _ZN23COREHARDWARES_LOCATIONS19DMAR_DRIVERS_EVENTSL11ALLOC_ENTRYE
ffff80000040685a r _ZN23COREHARDWARES_LOCATIONS19DMAR_DRIVERS_EVENTS19ALLOC_ENTRY_RESULTS12FAIL_REASONSL23FAIL_NO_AVALIABLE_ENTRYE
ffff80000040685c r _ZN4dmarL35interrupt_remapp_table_default_sizeE
ffff800000406860 r _ZN4dmarL32interrupt_remapp_table_default_SE
ffff800000406868 r _ZN4dmar12regs_specify21extended_caps_specifyL23mask_queue_invalidationE
ffff800000406870 r _ZN4dmar12regs_specify21extended_caps_specifyL9mask_dtlbE
ffff800000406878 r _ZN4dmar12regs_specify21extended_caps_specifyL11mask_iremapE
ffff800000406880 r _ZN4dmar12regs_specify21extended_caps_specifyL25mask_iremap_x2apicsupportE
ffff800000406888 r _ZN4dmar12regs_specify21extended_caps_specifyL21mask_smallest_cap_setE
ffff800000406890 r _ZN4dmar12regs_specify29global_command_status_specifyL35mask_compatibility_format_interruptE
ffff800000406894 r _ZN4dmar12regs_specify29global_command_status_specifyL23mask__set_iremapp_tbptrE
ffff800000406898 r _ZN4dmar12regs_specify29global_command_status_specifyL27mask_interrupt_remap_enableE
ffff80000040689c r _ZN4dmar12regs_specify29global_command_status_specifyL31mask_queue_invalidatiion_enableE
ffff8000004068a0 r _ZN4dmar12regs_specify29global_command_status_specifyL23mask_write_buffer_flushE
ffff8000004068a4 r _ZN4dmar12regs_specify29global_command_status_specifyL23mask_set_root_table_ptrE
ffff8000004068a8 r _ZN4dmar12regs_specify29global_command_status_specifyL25mask_dma_remapping_enableE
ffff8000004068ac r _ZN4dmar12regs_specify22imap_tbptr_reg_specifyL26mask_iremap_x2apic_supportE
ffff8000004068b0 r _ZN23COREHARDWARES_LOCATIONSL21LOCATION_CODE_IO_APICE
ffff8000004068b1 r _ZN23COREHARDWARES_LOCATIONS22IO_APIC_DRIVERS_EVENTSL4INITE
ffff8000004068b2 r _ZN23COREHARDWARES_LOCATIONS22IO_APIC_DRIVERS_EVENTSL10RTE_REGISTE
ffff8000004068b4 r _ZN23COREHARDWARES_LOCATIONS22IO_APIC_DRIVERS_EVENTS18RTE_REGIST_RESULTS12FAIL_RESULTSL14FAIL_BAD_PARAME
ffff8000004068b6 r _ZN23COREHARDWARES_LOCATIONS22IO_APIC_DRIVERS_EVENTSL12RTE_UNREGISTE
ffff8000004068b8 r _ZN23COREHARDWARES_LOCATIONS22IO_APIC_DRIVERS_EVENTS20RTE_UNREGIST_RESULTS12FAIL_RESULTSL14FAIL_BAD_PARAME
ffff8000004068ba r _ZN10i8042_regsL20STATUS_OUT_BUFF_MASKE
ffff8000004068bb r _ZN10i8042_regsL19STATUS_IN_BUFF_MASKE
ffff8000004068bc r _ZN10i8042_regsL23STATUS_SYSTEM_FLAG_MASKE
ffff8000004068bd r _ZN10i8042_regsL22STATUS_IS_COMMAND_MASKE
ffff8000004068be r _ZN10i8042_regsL27STATUS_KEYBOARD_ENABLE_MASKE
ffff8000004068bf r _ZN10i8042_regsL23STATUS_OUT_TIMEOUT_MASKE
ffff8000004068c0 r _ZN10i8042_regsL23STATUS_GET_TIMEOUT_MASKE
ffff8000004068c1 r _ZN10i8042_regsL31CONTROL_KEYBOARD_INTERRUPT_MASKE
ffff8000004068c2 r _ZN10i8042_regsL28CONTROL_MOUSE_INTERRUPT_MASKE
ffff8000004068c3 r _ZN10i8042_regsL26CONTROL_KEYBOARD_DENY_MASKE
ffff8000004068c4 r _ZN10i8042_regsL23CONTROL_MOUSE_DENY_MASKE
ffff8000004068c6 r _ZL21i8042_buffer_max_size
ffff8000004068c8 r _ZL26i8042_char_buffer_max_size
ffff8000004068ca r _ZL12TEXT_CTRL_UP
ffff8000004068cc r _ZL14TEXT_CTRL_DOWN
ffff8000004068ce r _ZL14TEXT_CTRL_LEFT
ffff8000004068d0 r _ZL15TEXT_CTRL_RIGHT
ffff8000004068d2 r _ZL14TEXT_CTRL_HOME
ffff8000004068d4 r _ZL13TEXT_CTRL_END
ffff8000004068d6 r _ZL14TEXT_CTRL_PGUP
ffff8000004068d8 r _ZL14TEXT_CTRL_PGDN
ffff8000004068da r _ZL16TEXT_CTRL_INSERT
ffff8000004068dc r _ZL16TEXT_CTRL_DELETE
ffff8000004068de r _ZL16TEXT_CTRL_ESCAPE
ffff8000004068e0 r _ZL13TEXT_CTRL_TAB
ffff8000004068e2 r _ZL15TEXT_CTRL_ENTER
ffff8000004068e4 r _ZL19TEXT_CTRL_BACKSPACE
ffff8000004068e6 r _ZL15ecam_mem_access
ffff8000004068e8 r _ZN31INTERRUPT_SUB_MODULES_LOCATIONSL24LOCATION_CODE_PROCESSORSE
ffff8000004068e9 r _ZN31INTERRUPT_SUB_MODULES_LOCATIONSL13loc_processorE
ffff8000004068ea r _ZN8gdtentryL17execute_only_typeE
ffff8000004068eb r _ZN8gdtentryL15read_write_typeE
ffff8000004068ec r _ZN31INTERRUPT_SUB_MODULES_LOCATIONS21PROCESSORS_EVENT_CODEL25EVENT_CODE_RUNTIME_RESGISE
ffff8000004068ed r _ZN31INTERRUPT_SUB_MODULES_LOCATIONS21PROCESSORS_EVENT_CODEL19EVENT_CODE_APS_INITE
ffff8000004068ee r _ZN31INTERRUPT_SUB_MODULES_LOCATIONS21PROCESSORS_EVENT_CODE21APS_INIT_RESULTS_CODE17RETRY_REASON_CODEL43RETRY_REASON_CODE_DEPENDIES_NOT_INITIALIZEDE
ffff8000004068f0 r _ZN31INTERRUPT_SUB_MODULES_LOCATIONS21PROCESSORS_EVENT_CODE21APS_INIT_RESULTS_CODE20PARTIAL_SUCCESS_CODEL42PARTIAL_SUCCESS_CODE_SOME_APS_IPI_TIME_OUTE
ffff8000004068f1 r _ZN31INTERRUPT_SUB_MODULES_LOCATIONS21PROCESSORS_EVENT_CODE21APS_INIT_RESULTS_CODE12FATAL_REASONL13AP_STAGE_FAILE
ffff8000004068f8 r _ZL18kspace_DS_SS_entry
ffff800000406900 r _ZL15kspace_CS_entry
ffff800000406908 r _ZL21userspace_DS_SS_entry
ffff800000406910 r _ZL18userspace_CS_entry
ffff800000406918 r _ZL10base0_mask
ffff800000406920 r _ZL10base1_mask
ffff800000406928 r _ZL10base2_mask
ffff800000406930 r _ZL10base3_mask
ffff800000406938 r _ZL13gdt_headcount
ffff80000040693c r _ZL23GS_SLOT_MAX_ENTRY_COUNT
ffff800000406940 r _ZL26STACK_PROTECTOR_CANARY_IDX
ffff800000406941 r _ZL8K_cs_idx
ffff800000406942 r _ZL11K_ds_ss_idx
ffff800000406943 r _ZL8U_cs_idx
ffff800000406944 r _ZL11U_ds_ss_idx
ffff800000406948 r _ZL14RSP0_STACKSIZE
ffff80000040694c r _ZL12DF_STACKSIZE
ffff800000406950 r _ZL12MC_STACKSIZE
ffff800000406954 r _ZL13NMI_STACKSIZE
ffff800000406958 r _ZL16BP_DBG_STACKSIZE
ffff80000040695c r _ZL16total_stack_size
ffff800000406960 r _ZL18L_PROCESSOR_GS_IDX
ffff800000406984 r _ZL18test_kthread_count
ffff800000406ae0 r _ZL6LOCKED
ffff800000406ae1 r _ZL8UNLOCKED
ffff800000406ae8 r _ZL10empty_kurd
ffff800000406af0 r _ZN10level_codeL7INVALIDE
ffff800000406af1 r _ZN10level_codeL4INFOE
ffff800000406af2 r _ZN10level_codeL6NOTICEE
ffff800000406af3 r _ZN10level_codeL7WARNINGE
ffff800000406af4 r _ZN10level_codeL5ERRORE
ffff800000406af5 r _ZN10level_codeL5FATALE
ffff800000406af6 r _ZN11module_codeL7INVALIDE
ffff800000406af7 r _ZN11module_codeL6MEMORYE
ffff800000406af8 r _ZN11module_codeL9SCHEDULERE
ffff800000406af9 r _ZN11module_codeL9INTERRUPTE
ffff800000406afa r _ZN11module_codeL8FIRMWAREE
ffff800000406afb r _ZN11module_codeL3VFSE
ffff800000406afc r _ZN11module_codeL3VMME
ffff800000406afd r _ZN11module_codeL5INFRAE
ffff800000406afe r _ZN11module_codeL6DEVICEE
ffff800000406aff r _ZN11module_codeL12DEVICES_COREE
ffff800000406b00 r _ZN11module_codeL14HARDWARE_DEBUGE
ffff800000406b01 r _ZN11module_codeL15USER_KERNEL_ABIE
ffff800000406b02 r _ZN11module_codeL4TIMEE
ffff800000406b03 r _ZN11module_codeL5PANICE
ffff800000406b04 r _ZN11result_codeL7SUCCESSE
ffff800000406b06 r _ZN11result_codeL23SUCCESS_BUT_SIDE_EFFECTE
ffff800000406b08 r _ZN11result_codeL15PARTIAL_SUCCESSE
ffff800000406b0a r _ZN11result_codeL4FAILE
ffff800000406b0c r _ZN11result_codeL5RETRYE
ffff800000406b0e r _ZN11result_codeL5FATALE
ffff800000406b10 r _ZN10err_domainL7INVALIDE
ffff800000406b11 r _ZN10err_domainL11CORE_MODULEE
ffff800000406b12 r _ZN10err_domainL4ARCHE
ffff800000406b13 r _ZN10err_domainL4USERE
ffff800000406b14 r _ZN10err_domainL10HYPERVISORE
ffff800000406b15 r _ZN10err_domainL11OUT_MODULESE
ffff800000406b16 r _ZN10err_domainL11FILE_SYSTEME
ffff800000406b17 r _ZN10err_domainL8HARDWAREE
ffff800000406b18 r _ZL10PAGE_DIRTY
ffff800000406b20 r _ZL11PAGE_LOCKED
ffff800000406b28 r _ZL14PAGE_WRITEBACK
ffff800000406b30 r _ZL13PAGE_UPTODATE
ffff800000406b38 r _ZL13PAGE_SWAPPING
ffff800000406b40 r _ZL15PAGE_REFERENCED
ffff800000406b48 r _ZL11PAGE_ACTIVE
ffff800000406b50 r _ZL12PAGE_RECLAIM
ffff800000406b58 r _ZL25MAX_PHYADDR_1GB_PGS_COUNT
ffff800000406b60 r _ZL18DEFAULT_PAT_CONFIG
ffff800000406b68 r _ZL16KSPACE_RW_ACCESS
ffff800000406b6a r _ZL17KSPACE_RWX_ACCESS
ffff800000406b6c r _ZL19KSPACE_RW_UC_ACCESS
ffff800000406b6e r _ZL16KSPACE_RX_ACCESS
ffff800000406b70 r _ZL15KSPACE_R_ACCESS
ffff800000406b72 r _ZL20KSPACE_RWX_NG_ACCESS
ffff800000406b74 r _ZL19KSPACE_RW_WC_ACCESS
ffff800000406b76 r _ZL13default_flags
ffff800000406b80 r _ZL24BUDDY_ALLOC_DEFAULT_FLAG
ffff800000406b90 r _ZL22BUDDY_ALLOC_ALWAYS_TRY
ffff800000406ba0 r _ZL20BUDDY_ALLOC_DOWN_4GB
ffff800000406bb0 r _ZL33PASS_THROUGH_DEVICE_GRAPHICS_INFO
ffff800000406bb4 r _ZL32VM_ID_architecture_agnostic_base
ffff800000406bb8 r _ZL20VM_ID_BSP_INIT_STACK
ffff800000406bc0 r _ZL19BSP_INIT_STACK_SIZE
ffff800000406bc8 r _ZL25BSP_INIT_STACK_ALIGN_LOG2
ffff800000406bcc r _ZL16VM_ID_FIRST_HEAP
ffff800000406bd0 r _ZL21FIRST_HEAP_SIZE_CONST
ffff800000406bd8 r _ZL21FIRST_HEAP_ALIGN_LOG2
ffff800000406bdc r _ZL23VM_ID_FIRST_HEAP_BITMAP
ffff800000406be0 r _ZL22FIRST_HEAP_BITMAP_SIZE
ffff800000406be8 r _ZL28FIRST_HEAP_BITMAP_ALIGN_LOG2
ffff800000406bec r _ZL15VM_ID_LOGBUFFER
ffff800000406bf0 r _ZL14LOGBUFFER_SIZE
ffff800000406bf8 r _ZL20LOGBUFFER_ALIGN_LOG2
ffff800000406bfc r _ZL14VM_ID_KSYMBOLS
ffff800000406c00 r _ZL13VM_ID_MEM_MAP
ffff800000406c04 r _ZL18VM_ID_BCBS_BITMAPS
ffff800000406c08 r _ZL18MEM_MAP_ALIGN_LOG2
ffff800000406c0c r _ZL20VM_ID_UP_KSPACE_PDPT
ffff800000406c10 r _ZL20VM_ID_GRAPHIC_BUFFER
ffff800000406c18 r _ZL19UP_KSPACE_PDPT_SIZE
ffff800000406c20 r _ZL25UP_KSPACE_PDPT_ALIGN_LOG2
ffff800000406c24 r _ZL15VM_ID_HPET_MMIO
ffff800000406c30 r _ZL10empty_kurd
ffff800000406c38 r _ZN10level_codeL7INVALIDE
ffff800000406c39 r _ZN10level_codeL4INFOE
ffff800000406c3a r _ZN10level_codeL6NOTICEE
ffff800000406c3b r _ZN10level_codeL7WARNINGE
ffff800000406c3c r _ZN10level_codeL5ERRORE
ffff800000406c3d r _ZN10level_codeL5FATALE
ffff800000406c3e r _ZN11module_codeL7INVALIDE
ffff800000406c3f r _ZN11module_codeL6MEMORYE
ffff800000406c40 r _ZN11module_codeL9SCHEDULERE
ffff800000406c41 r _ZN11module_codeL9INTERRUPTE
ffff800000406c42 r _ZN11module_codeL8FIRMWAREE
ffff800000406c43 r _ZN11module_codeL3VFSE
ffff800000406c44 r _ZN11module_codeL3VMME
ffff800000406c45 r _ZN11module_codeL5INFRAE
ffff800000406c46 r _ZN11module_codeL6DEVICEE
ffff800000406c47 r _ZN11module_codeL12DEVICES_COREE
ffff800000406c48 r _ZN11module_codeL14HARDWARE_DEBUGE
ffff800000406c49 r _ZN11module_codeL15USER_KERNEL_ABIE
ffff800000406c4a r _ZN11module_codeL4TIMEE
ffff800000406c4b r _ZN11module_codeL5PANICE
ffff800000406c4c r _ZN11result_codeL7SUCCESSE
ffff800000406c4e r _ZN11result_codeL23SUCCESS_BUT_SIDE_EFFECTE
ffff800000406c50 r _ZN11result_codeL15PARTIAL_SUCCESSE
ffff800000406c52 r _ZN11result_codeL4FAILE
ffff800000406c54 r _ZN11result_codeL5RETRYE
ffff800000406c56 r _ZN11result_codeL5FATALE
ffff800000406c58 r _ZN10err_domainL7INVALIDE
ffff800000406c59 r _ZN10err_domainL11CORE_MODULEE
ffff800000406c5a r _ZN10err_domainL4ARCHE
ffff800000406c5b r _ZN10err_domainL4USERE
ffff800000406c5c r _ZN10err_domainL10HYPERVISORE
ffff800000406c5d r _ZN10err_domainL11OUT_MODULESE
ffff800000406c5e r _ZN10err_domainL11FILE_SYSTEME
ffff800000406c5f r _ZN10err_domainL8HARDWAREE
ffff800000406c60 r _ZL11ARCH_x86_64
ffff800000406c68 r _ZL9fs_per_ns
ffff800000406c70 r _ZL11FS_per_mius
ffff800000406c78 r _ZL6LOCKED
ffff800000406c79 r _ZL8UNLOCKED
ffff800000406c80 r _ZL10PAGE_DIRTY
ffff800000406c88 r _ZL11PAGE_LOCKED
ffff800000406c90 r _ZL14PAGE_WRITEBACK
ffff800000406c98 r _ZL13PAGE_UPTODATE
ffff800000406ca0 r _ZL13PAGE_SWAPPING
ffff800000406ca8 r _ZL15PAGE_REFERENCED
ffff800000406cb0 r _ZL11PAGE_ACTIVE
ffff800000406cb8 r _ZL12PAGE_RECLAIM
ffff800000406cc0 r _ZL25MAX_PHYADDR_1GB_PGS_COUNT
ffff800000406cc8 r _ZL18DEFAULT_PAT_CONFIG
ffff800000406cd0 r _ZL16KSPACE_RW_ACCESS
ffff800000406cd2 r _ZL17KSPACE_RWX_ACCESS
ffff800000406cd4 r _ZL19KSPACE_RW_UC_ACCESS
ffff800000406cd6 r _ZL16KSPACE_RX_ACCESS
ffff800000406cd8 r _ZL15KSPACE_R_ACCESS
ffff800000406cda r _ZL20KSPACE_RWX_NG_ACCESS
ffff800000406cdc r _ZL19KSPACE_RW_WC_ACCESS
ffff800000406cde r _ZL13default_flags
ffff800000406ce0 r _ZL24BUDDY_ALLOC_DEFAULT_FLAG
ffff800000406cf0 r _ZL22BUDDY_ALLOC_ALWAYS_TRY
ffff800000406d00 r _ZL20BUDDY_ALLOC_DOWN_4GB
ffff800000406d10 r _ZL33PASS_THROUGH_DEVICE_GRAPHICS_INFO
ffff800000406d14 r _ZL32VM_ID_architecture_agnostic_base
ffff800000406d18 r _ZL20VM_ID_BSP_INIT_STACK
ffff800000406d20 r _ZL19BSP_INIT_STACK_SIZE
ffff800000406d28 r _ZL25BSP_INIT_STACK_ALIGN_LOG2
ffff800000406d2c r _ZL16VM_ID_FIRST_HEAP
ffff800000406d30 r _ZL21FIRST_HEAP_SIZE_CONST
ffff800000406d38 r _ZL21FIRST_HEAP_ALIGN_LOG2
ffff800000406d3c r _ZL23VM_ID_FIRST_HEAP_BITMAP
ffff800000406d40 r _ZL22FIRST_HEAP_BITMAP_SIZE
ffff800000406d48 r _ZL28FIRST_HEAP_BITMAP_ALIGN_LOG2
ffff800000406d4c r _ZL15VM_ID_LOGBUFFER
ffff800000406d50 r _ZL14LOGBUFFER_SIZE
ffff800000406d58 r _ZL20LOGBUFFER_ALIGN_LOG2
ffff800000406d5c r _ZL14VM_ID_KSYMBOLS
ffff800000406d60 r _ZL13VM_ID_MEM_MAP
ffff800000406d64 r _ZL18VM_ID_BCBS_BITMAPS
ffff800000406d68 r _ZL18MEM_MAP_ALIGN_LOG2
ffff800000406d6c r _ZL20VM_ID_UP_KSPACE_PDPT
ffff800000406d70 r _ZL20VM_ID_GRAPHIC_BUFFER
ffff800000406d78 r _ZL19UP_KSPACE_PDPT_SIZE
ffff800000406d80 r _ZL25UP_KSPACE_PDPT_ALIGN_LOG2
ffff800000406d84 r _ZL15VM_ID_HPET_MMIO
ffff800000406d88 r _ZN23COREHARDWARES_LOCATIONSL18LOCATION_CODE_HPETE
ffff800000406d89 r _ZN23COREHARDWARES_LOCATIONS18HPET_DRIVER_EVENTSL4INITE
ffff800000406d8a r _ZN23COREHARDWARES_LOCATIONS18HPET_DRIVER_EVENTS12INIT_RESULTS12FAIL_REASONSL17INVALID_ACPI_ADDRE
ffff800000406d8c r _ZN23COREHARDWARES_LOCATIONS18HPET_DRIVER_EVENTS12INIT_RESULTS12FAIL_REASONSL19ACPI_ADDR_NOT_ALIGNE
ffff800000406d8e r _ZN23COREHARDWARES_LOCATIONS18HPET_DRIVER_EVENTS12INIT_RESULTS12FAIL_REASONSL13ALLREADE_INITE
ffff800000406d90 r _ZN23COREHARDWARES_LOCATIONS18HPET_DRIVER_EVENTS12INIT_RESULTS12FAIL_REASONSL19COUNTER_PERIOD_ZEROE
ffff800000406d94 r _ZN4HPET4regsL34offset_General_Capabilities_and_IDE
ffff800000406d98 r _ZN4HPET4regsL21offset_General_ConfigE
ffff800000406d9c r _ZN4HPET4regsL25offset_main_counter_valueE
ffff800000406da0 r _ZN4HPET4regsL44offset_Timer0_Configuration_and_CapabilitiesE
ffff800000406da4 r _ZN4HPET4regsL14size_per_timerE
ffff800000406da8 r _ZN4HPET4regsL28COMPARATOR_COUNT_LEFT_OFFSETE
ffff800000406da9 r _ZN4HPET4regsL21COMPARATOR_COUNT_MASKE
ffff800000406daa r _ZN4HPET4regsL30COUNTER_CLK_PERIOD_LEFT_OFFSETE
ffff800000406db0 r _ZN4HPET4regsL18GCONFIG_ENABLE_BITE
ffff800000406db8 r _ZN4HPET4regsL18Tn_INT_ENB_CNF_BITE
ffff800000406dc0 r _ZL28PROCESSOR_RSP0_STACK_BTM_IDX
ffff800000406dc1 r _ZL21PROCESSOR_ID_GS_INDEX
ffff800000406dc2 r _ZL21TIME_COMPLEX_GS_INDEX
ffff800000406dc3 r _ZL35PROCESSOR_NOW_RUNNING_TASK_GS_INDEX
ffff800000406dc4 r _ZL22PROCESSOR_USER_RSP_TMP
ffff800000406dc5 r _ZL20SLOT_IS_SLOT_MAX_IDX
ffff800000406dc6 r _ZN14x86_exceptionsL12DIVIDE_ERRORE
ffff800000406dc7 r _ZN14x86_exceptionsL5DEBUGE
ffff800000406dc8 r _ZN14x86_exceptionsL3NMIE
ffff800000406dc9 r _ZN14x86_exceptionsL10BREAKPOINTE
ffff800000406dca r _ZN14x86_exceptionsL8OVERFLOWE
ffff800000406dcb r _ZN14x86_exceptionsL20BOUND_RANGE_EXCEEDEDE
ffff800000406dcc r _ZN14x86_exceptionsL14INVALID_OPCODEE
ffff800000406dcd r _ZN14x86_exceptionsL20DEVICE_NOT_AVAILABLEE
ffff800000406dce r _ZN14x86_exceptionsL12DOUBLE_FAULTE
ffff800000406dcf r _ZN14x86_exceptionsL27COPROCESSOR_SEGMENT_OVERRUNE
ffff800000406dd0 r _ZN14x86_exceptionsL11INVALID_TSSE
ffff800000406dd1 r _ZN14x86_exceptionsL19SEGMENT_NOT_PRESENTE
ffff800000406dd2 r _ZN14x86_exceptionsL19STACK_SEGMENT_FAULTE
ffff800000406dd3 r _ZN14x86_exceptionsL24GENERAL_PROTECTION_FAULTE
ffff800000406dd4 r _ZN14x86_exceptionsL10PAGE_FAULTE
ffff800000406dd5 r _ZN14x86_exceptionsL13X87_FPU_ERRORE
ffff800000406dd6 r _ZN14x86_exceptionsL15ALIGNMENT_CHECKE
ffff800000406dd7 r _ZN14x86_exceptionsL13MACHINE_CHECKE
ffff800000406dd8 r _ZN14x86_exceptionsL29SIMD_FLOATING_POINT_EXCEPTIONE
ffff800000406dd9 r _ZN14x86_exceptionsL24VIRTUALIZATION_EXCEPTIONE
ffff800000406dda r _ZN14x86_exceptionsL28CONTROL_PROTECTION_EXCEPTIONE
ffff800000406ddb r _ZN21x86_softinterrupt_abiL9ASM_PANICE
ffff800000406ddc r _ZN21x86_softinterrupt_abiL12KTHREAD_CALLE
ffff800000406ddd r _ZN21x86_softinterrupt_abiL14USER_ABI_ENTERE
ffff800000406dde r _ZN8ipi_vecsL11IPI_RUNAWAYE
ffff800000406ddf r _ZN8ipi_vecsL14IPI_RETURNABLEE
ffff800000406de0 r _ZN8ipi_vecsL8IPI_HALTE
ffff800000406de1 r _ZN8ipi_vecsL11IPI_RESCHEDE
ffff800000406de2 r _ZL18SUPRIOUS_INTERRUPT
ffff800000406de8 r _ZL30TOKEN_FLAG_MASK_TOKEN_SCHEDULE
ffff800000406df0 r _ZN6x2apic8ESR_BITSL19SEND_CHECKSUM_ERRORE
ffff800000406df1 r _ZN6x2apic8ESR_BITSL22RECEIVE_CHECKSUM_ERRORE
ffff800000406df2 r _ZN6x2apic8ESR_BITSL17SEND_ACCEPT_ERRORE
ffff800000406df3 r _ZN6x2apic8ESR_BITSL20RECEIVE_ACCEPT_ERRORE
ffff800000406df4 r _ZN6x2apic8ESR_BITSL16REDIRECTABLE_IPIE
ffff800000406df5 r _ZN6x2apic8ESR_BITSL19SEND_ILLEGAL_VECTORE
ffff800000406df6 r _ZN6x2apic8ESR_BITSL22RECEIVE_ILLEGAL_VECTORE
ffff800000406df7 r _ZN6x2apic8ESR_BITSL21ILLEGAL_REGISTER_ADDRE
ffff800000406df8 r _ZN6x2apic8ESR_BITSL14RESERVED_STARTE
ffff800000406df9 r _ZN6x2apic8ESR_BITSL12RESERVED_ENDE
ffff800000406dfc r _ZN6x2apic9ESR_MASKSL19SEND_CHECKSUM_ERRORE
ffff800000406e00 r _ZN6x2apic9ESR_MASKSL22RECEIVE_CHECKSUM_ERRORE
ffff800000406e04 r _ZN6x2apic9ESR_MASKSL17SEND_ACCEPT_ERRORE
ffff800000406e08 r _ZN6x2apic9ESR_MASKSL20RECEIVE_ACCEPT_ERRORE
ffff800000406e0c r _ZN6x2apic9ESR_MASKSL16REDIRECTABLE_IPIE
ffff800000406e10 r _ZN6x2apic9ESR_MASKSL19SEND_ILLEGAL_VECTORE
ffff800000406e14 r _ZN6x2apic9ESR_MASKSL22RECEIVE_ILLEGAL_VECTORE
ffff800000406e18 r _ZN6x2apic9ESR_MASKSL21ILLEGAL_REGISTER_ADDRE
ffff800000406e1c r _ZN6x2apic9ESR_MASKSL13RESERVED_MASKE
ffff800000406e20 r _ZN6x2apic9ESR_MASKSL16ERROR_FLAGS_MASKE
ffff800000406e24 r _ZN6x2apic9ESR_MASKSL15CHECKSUM_ERRORSE
ffff800000406e28 r _ZN6x2apic9ESR_MASKSL13ACCEPT_ERRORSE
ffff800000406e2c r _ZN6x2apic9ESR_MASKSL21ILLEGAL_VECTOR_ERRORSE
ffff800000406e30 r _ZN6x2apic9ESR_MASKSL15ALL_ERROR_FLAGSE
ffff800000406e38 r _ZN6x2apicL12ddline_timerE
ffff800000406e40 r _ZL23MSR_IA32_UMWAIT_CONTROL
ffff800000406e44 r _ZN31INTERRUPT_SUB_MODULES_LOCATIONSL24LOCATION_CODE_PROCESSORSE
ffff800000406e45 r _ZN31INTERRUPT_SUB_MODULES_LOCATIONSL13loc_processorE
ffff800000406e46 r _ZN18MEMMODULE_LOCAIONSL7INVALIDE
ffff800000406e47 r _ZN18MEMMODULE_LOCAIONSL25LOCATION_CODE_BASE_MEMMGRE
ffff800000406e48 r _ZN18MEMMODULE_LOCAIONSL29LOCATION_CODE_PHYMEM_ACCESSORE
ffff800000406e49 r _ZN18MEMMODULE_LOCAIONSL28LOCATION_CODE_KSPACE_MAP_MGRE
ffff800000406e4a r _ZN18MEMMODULE_LOCAIONSL25LOCATION_CODE_ADDRESSPACEE
ffff800000406e4b r _ZN18MEMMODULE_LOCAIONSL26LOCATION_CODE_OUT_SURFACESE
ffff800000406e4c r _ZN18MEMMODULE_LOCAIONSL25LOCATION_CODE_KPOOLMEMMGRE
ffff800000406e4d r _ZN18MEMMODULE_LOCAIONS18KPOOLMEMMGR_EVENTSL15EVENT_CODE_INITE
ffff800000406e4e r _ZN18MEMMODULE_LOCAIONS18KPOOLMEMMGR_EVENTSL16EVENT_CODE_ALLOCE
ffff800000406e50 r _ZN18MEMMODULE_LOCAIONS18KPOOLMEMMGR_EVENTS13ALLOC_RESULTS11FAIL_RESONSL28REASON_CODE_NO_AVALIABLE_MEME
ffff800000406e52 r _ZN18MEMMODULE_LOCAIONS18KPOOLMEMMGR_EVENTS13ALLOC_RESULTS11FAIL_RESONSL24REASON_CODE_SIZE_IS_ZEROE
ffff800000406e54 r _ZN18MEMMODULE_LOCAIONS18KPOOLMEMMGR_EVENTSL18EVENT_CODE_REALLOCE
ffff800000406e56 r _ZN18MEMMODULE_LOCAIONS18KPOOLMEMMGR_EVENTS15REALLOC_RESULTS11FAIL_RESONSL31REASON_CODE_DEMAND_SIZE_IS_ZEROE
ffff800000406e58 r _ZN18MEMMODULE_LOCAIONS18KPOOLMEMMGR_EVENTS15REALLOC_RESULTS11FAIL_RESONSL31REASON_CODE_PTR_NOT_IN_ANY_HEAPE
ffff800000406e5a r _ZN18MEMMODULE_LOCAIONS18KPOOLMEMMGR_EVENTS15REALLOC_RESULTS11FAIL_RESONSL28REASON_CODE_NO_AVALIABLE_MEME
ffff800000406e5c r _ZN18MEMMODULE_LOCAIONS18KPOOLMEMMGR_EVENTSL34EVENT_CODE_PER_PROCESSOR_HEAP_INITE
ffff800000406e5e r _ZN18MEMMODULE_LOCAIONS18KPOOLMEMMGR_EVENTS31PER_PROCESSOR_HEAP_INIT_RESULTS11FAIL_RESONSL27REASON_CODE_ALREADY_ENABLEDE
ffff800000406e60 r _ZN18MEMMODULE_LOCAIONS18KPOOLMEMMGR_EVENTS31PER_PROCESSOR_HEAP_INIT_RESULTS11FAIL_RESONSL31REASON_CODE_BAD_PROCESSOR_COUNTE
ffff800000406e62 r _ZN18MEMMODULE_LOCAIONS18KPOOLMEMMGR_EVENTS31PER_PROCESSOR_HEAP_INIT_RESULTS11FAIL_RESONSL26REASON_CODE_NO_VADDR_SPACEE
ffff800000406e64 r _ZN18MEMMODULE_LOCAIONS18KPOOLMEMMGR_EVENTS31PER_PROCESSOR_HEAP_INIT_RESULTS11FAIL_RESONSL23REASON_CODE_VM_ADD_FAILE
ffff800000406e66 r _ZN18MEMMODULE_LOCAIONS18KPOOLMEMMGR_EVENTS31PER_PROCESSOR_HEAP_INIT_RESULTS11FAIL_RESONSL28REASON_CODE_IDX_OUT_OF_RANGEE
ffff800000406e68 r _ZN18MEMMODULE_LOCAIONS18KPOOLMEMMGR_EVENTS31PER_PROCESSOR_HEAP_INIT_RESULTS11FAIL_RESONSL31REASON_CODE_HEAP_ALREADY_EXISTSE
ffff800000406e6a r _ZN18MEMMODULE_LOCAIONS18KPOOLMEMMGR_EVENTS31PER_PROCESSOR_HEAP_INIT_RESULTS11FAIL_RESONSL26REASON_CODE_HEAP_NOT_EXISTE
ffff800000406e6c r _ZN18MEMMODULE_LOCAIONSL32LOCATION_CODE_KPOOLMEMMGR_HCB_V3E
ffff800000406e6d r _ZN18MEMMODULE_LOCAIONS25KPOOLMEMMGR_HCB_V3_EVENTSL17EVENT_CODE_ONLINEE
ffff800000406e6e r _ZN18MEMMODULE_LOCAIONS25KPOOLMEMMGR_HCB_V3_EVENTSL18EVENT_CODE_OFFLINEE
ffff800000406e6f r _ZN18MEMMODULE_LOCAIONS25KPOOLMEMMGR_HCB_V3_EVENTSL16EVENT_CODE_ALLOCE
ffff800000406e70 r _ZN18MEMMODULE_LOCAIONS25KPOOLMEMMGR_HCB_V3_EVENTSL15EVENT_CODE_FREEE
ffff800000406e71 r _ZN18MEMMODULE_LOCAIONS25KPOOLMEMMGR_HCB_V3_EVENTSL18EVENT_CODE_REALLOCE
ffff800000406e72 r _ZN18MEMMODULE_LOCAIONS25KPOOLMEMMGR_HCB_V3_EVENTSL25EVENT_CODE_INTERNAL_ALLOCE
ffff800000406e73 r _ZN18MEMMODULE_LOCAIONS25KPOOLMEMMGR_HCB_V3_EVENTSL24EVENT_CODE_INTERNAL_FREEE
ffff800000406e74 r _ZN18MEMMODULE_LOCAIONS25KPOOLMEMMGR_HCB_V3_EVENTSL16EVENT_CODE_CLEARE
ffff800000406e76 r _ZN18MEMMODULE_LOCAIONS25KPOOLMEMMGR_HCB_V3_EVENTS19COMMON_FAIL_REASONSL20REASON_CODE_BAD_ADDRE
ffff800000406e78 r _ZN18MEMMODULE_LOCAIONS25KPOOLMEMMGR_HCB_V3_EVENTS19COMMON_FAIL_REASONSL30REASON_CODE_ADDR_NOT_THIS_HEAPE
ffff800000406e7a r _ZN18MEMMODULE_LOCAIONS25KPOOLMEMMGR_HCB_V3_EVENTS20COMMON_FATAL_REASONSL30REASON_CODE_METADATA_DESTROYEDE
ffff800000406e7c r _ZN18MEMMODULE_LOCAIONS25KPOOLMEMMGR_HCB_V3_EVENTS22INTERNAL_ALLOC_RESULTS11FAIL_RESONSL30REASON_CODE_NO_AVALIABLE_BUDDYE
ffff800000406e7e r _ZN18MEMMODULE_LOCAIONS25KPOOLMEMMGR_HCB_V3_EVENTS13ALLOC_RESULTS12FAIL_REASONSL24REASON_CODE_SIZE_IS_ZEROE
ffff800000406e80 r _ZN18MEMMODULE_LOCAIONS25KPOOLMEMMGR_HCB_V3_EVENTS13ALLOC_RESULTS12FAIL_REASONSL26REASON_CODE_SIZE_TOO_LARGEE
ffff800000406e82 r _ZN18MEMMODULE_LOCAIONS25KPOOLMEMMGR_HCB_V3_EVENTS12FREE_RESULTS13FATAL_REASONSL18DOUBLE_FREE_DETECTE
ffff800000406e84 r _ZN18MEMMODULE_LOCAIONS25KPOOLMEMMGR_HCB_V3_EVENTS12FREE_RESULTS13FATAL_REASONSL22MERGE_BUT_ALREADY_FREEE
ffff800000406e88 r _ZL14HCB_evict_span
ffff800000406e90 r _ZL23HCB_evictor_sleep_cycle
ffff800000406e98 r _ZN8gdtentryL17execute_only_typeE
ffff800000406e99 r _ZN8gdtentryL15read_write_typeE
ffff800000406e9a r _ZN31INTERRUPT_SUB_MODULES_LOCATIONS21PROCESSORS_EVENT_CODEL25EVENT_CODE_RUNTIME_RESGISE
ffff800000406e9b r _ZN31INTERRUPT_SUB_MODULES_LOCATIONS21PROCESSORS_EVENT_CODEL19EVENT_CODE_APS_INITE
ffff800000406e9c r _ZN31INTERRUPT_SUB_MODULES_LOCATIONS21PROCESSORS_EVENT_CODE21APS_INIT_RESULTS_CODE17RETRY_REASON_CODEL43RETRY_REASON_CODE_DEPENDIES_NOT_INITIALIZEDE
ffff800000406e9e r _ZN31INTERRUPT_SUB_MODULES_LOCATIONS21PROCESSORS_EVENT_CODE21APS_INIT_RESULTS_CODE20PARTIAL_SUCCESS_CODEL42PARTIAL_SUCCESS_CODE_SOME_APS_IPI_TIME_OUTE
ffff800000406e9f r _ZN31INTERRUPT_SUB_MODULES_LOCATIONS21PROCESSORS_EVENT_CODE21APS_INIT_RESULTS_CODE12FATAL_REASONL13AP_STAGE_FAILE
ffff800000406ea0 r _ZL18kspace_DS_SS_entry
ffff800000406ea8 r _ZL15kspace_CS_entry
ffff800000406eb0 r _ZL21userspace_DS_SS_entry
ffff800000406eb8 r _ZL18userspace_CS_entry
ffff800000406ec0 r _ZL10base0_mask
ffff800000406ec8 r _ZL10base1_mask
ffff800000406ed0 r _ZL10base2_mask
ffff800000406ed8 r _ZL10base3_mask
ffff800000406ee0 r _ZL13gdt_headcount
ffff800000406ee4 r _ZL23GS_SLOT_MAX_ENTRY_COUNT
ffff800000406ee8 r _ZL26STACK_PROTECTOR_CANARY_IDX
ffff800000406ee9 r _ZL8K_cs_idx
ffff800000406eea r _ZL11K_ds_ss_idx
ffff800000406eeb r _ZL8U_cs_idx
ffff800000406eec r _ZL11U_ds_ss_idx
ffff800000406ef0 r _ZL14RSP0_STACKSIZE
ffff800000406ef4 r _ZL12DF_STACKSIZE
ffff800000406ef8 r _ZL12MC_STACKSIZE
ffff800000406efc r _ZL13NMI_STACKSIZE
ffff800000406f00 r _ZL16BP_DBG_STACKSIZE
ffff800000406f04 r _ZL16total_stack_size
ffff800000406f08 r _ZL18L_PROCESSOR_GS_IDX
ffff800000406f20 r _ZL10empty_kurd
ffff800000406f28 r _ZN10level_codeL7INVALIDE
ffff800000406f29 r _ZN10level_codeL4INFOE
ffff800000406f2a r _ZN10level_codeL6NOTICEE
ffff800000406f2b r _ZN10level_codeL7WARNINGE
ffff800000406f2c r _ZN10level_codeL5ERRORE
ffff800000406f2d r _ZN10level_codeL5FATALE
ffff800000406f2e r _ZN11module_codeL7INVALIDE
ffff800000406f2f r _ZN11module_codeL6MEMORYE
ffff800000406f30 r _ZN11module_codeL9SCHEDULERE
ffff800000406f31 r _ZN11module_codeL9INTERRUPTE
ffff800000406f32 r _ZN11module_codeL8FIRMWAREE
ffff800000406f33 r _ZN11module_codeL3VFSE
ffff800000406f34 r _ZN11module_codeL3VMME
ffff800000406f35 r _ZN11module_codeL5INFRAE
ffff800000406f36 r _ZN11module_codeL6DEVICEE
ffff800000406f37 r _ZN11module_codeL12DEVICES_COREE
ffff800000406f38 r _ZN11module_codeL14HARDWARE_DEBUGE
ffff800000406f39 r _ZN11module_codeL15USER_KERNEL_ABIE
ffff800000406f3a r _ZN11module_codeL4TIMEE
ffff800000406f3b r _ZN11module_codeL5PANICE
ffff800000406f3c r _ZN11result_codeL7SUCCESSE
ffff800000406f3e r _ZN11result_codeL23SUCCESS_BUT_SIDE_EFFECTE
ffff800000406f40 r _ZN11result_codeL15PARTIAL_SUCCESSE
ffff800000406f42 r _ZN11result_codeL4FAILE
ffff800000406f44 r _ZN11result_codeL5RETRYE
ffff800000406f46 r _ZN11result_codeL5FATALE
ffff800000406f48 r _ZN10err_domainL7INVALIDE
ffff800000406f49 r _ZN10err_domainL11CORE_MODULEE
ffff800000406f4a r _ZN10err_domainL4ARCHE
ffff800000406f4b r _ZN10err_domainL4USERE
ffff800000406f4c r _ZN10err_domainL10HYPERVISORE
ffff800000406f4d r _ZN10err_domainL11OUT_MODULESE
ffff800000406f4e r _ZN10err_domainL11FILE_SYSTEME
ffff800000406f4f r _ZN10err_domainL8HARDWAREE
ffff800000406f50 r _ZL6LOCKED
ffff800000406f51 r _ZL8UNLOCKED
ffff800000406f58 r _ZL10PAGE_DIRTY
ffff800000406f60 r _ZL11PAGE_LOCKED
ffff800000406f68 r _ZL14PAGE_WRITEBACK
ffff800000406f70 r _ZL13PAGE_UPTODATE
ffff800000406f78 r _ZL13PAGE_SWAPPING
ffff800000406f80 r _ZL15PAGE_REFERENCED
ffff800000406f88 r _ZL11PAGE_ACTIVE
ffff800000406f90 r _ZL12PAGE_RECLAIM
ffff800000406f98 r _ZL25MAX_PHYADDR_1GB_PGS_COUNT
ffff800000406fa0 r _ZL18DEFAULT_PAT_CONFIG
ffff800000406fa8 r _ZL16KSPACE_RW_ACCESS
ffff800000406faa r _ZL17KSPACE_RWX_ACCESS
ffff800000406fac r _ZL19KSPACE_RW_UC_ACCESS
ffff800000406fae r _ZL16KSPACE_RX_ACCESS
ffff800000406fb0 r _ZL15KSPACE_R_ACCESS
ffff800000406fb2 r _ZL20KSPACE_RWX_NG_ACCESS
ffff800000406fb4 r _ZL19KSPACE_RW_WC_ACCESS
ffff800000406fb6 r _ZL13default_flags
ffff800000406fc0 r _ZL24BUDDY_ALLOC_DEFAULT_FLAG
ffff800000406fd0 r _ZL22BUDDY_ALLOC_ALWAYS_TRY
ffff800000406fe0 r _ZL20BUDDY_ALLOC_DOWN_4GB
ffff800000406ff0 r _ZL33PASS_THROUGH_DEVICE_GRAPHICS_INFO
ffff800000406ff4 r _ZL32VM_ID_architecture_agnostic_base
ffff800000406ff8 r _ZL20VM_ID_BSP_INIT_STACK
ffff800000407000 r _ZL19BSP_INIT_STACK_SIZE
ffff800000407008 r _ZL25BSP_INIT_STACK_ALIGN_LOG2
ffff80000040700c r _ZL16VM_ID_FIRST_HEAP
ffff800000407010 r _ZL21FIRST_HEAP_SIZE_CONST
ffff800000407018 r _ZL21FIRST_HEAP_ALIGN_LOG2
ffff80000040701c r _ZL23VM_ID_FIRST_HEAP_BITMAP
ffff800000407020 r _ZL22FIRST_HEAP_BITMAP_SIZE
ffff800000407028 r _ZL28FIRST_HEAP_BITMAP_ALIGN_LOG2
ffff80000040702c r _ZL15VM_ID_LOGBUFFER
ffff800000407030 r _ZL14LOGBUFFER_SIZE
ffff800000407038 r _ZL20LOGBUFFER_ALIGN_LOG2
ffff80000040703c r _ZL14VM_ID_KSYMBOLS
ffff800000407040 r _ZL13VM_ID_MEM_MAP
ffff800000407044 r _ZL18VM_ID_BCBS_BITMAPS
ffff800000407048 r _ZL18MEM_MAP_ALIGN_LOG2
ffff80000040704c r _ZL20VM_ID_UP_KSPACE_PDPT
ffff800000407050 r _ZL20VM_ID_GRAPHIC_BUFFER
ffff800000407058 r _ZL19UP_KSPACE_PDPT_SIZE
ffff800000407060 r _ZL25UP_KSPACE_PDPT_ALIGN_LOG2
ffff800000407064 r _ZL15VM_ID_HPET_MMIO
ffff800000407068 r _ZN23COREHARDWARES_LOCATIONSL27LOCATION_CODE_GOP_PRIMITIVEE
ffff800000407069 r _ZN23COREHARDWARES_LOCATIONS28GOP_PRIMITIVE_DRIVERS_EVENTSL4INITE
ffff80000040706a r _ZN23COREHARDWARES_LOCATIONS28GOP_PRIMITIVE_DRIVERS_EVENTS12INIT_RESULTS12FAIL_REASONSL21PARAM_METAINF_NULLPTRE
ffff80000040706c r _ZN23COREHARDWARES_LOCATIONS28GOP_PRIMITIVE_DRIVERS_EVENTS12INIT_RESULTS12FAIL_REASONSL9BAD_PARAME
ffff80000040706e r _ZN23COREHARDWARES_LOCATIONS28GOP_PRIMITIVE_DRIVERS_EVENTS12INIT_RESULTS12FAIL_REASONSL13ALLREADE_INITE
ffff800000407070 r _ZN23COREHARDWARES_LOCATIONSL22LOCATION_CODE_INIT_GOPE
ffff800000407071 r _ZN23COREHARDWARES_LOCATIONS15INIT_GOP_EVENTSL4INITE
ffff800000407072 r _ZN23COREHARDWARES_LOCATIONS15INIT_GOP_EVENTS12INIT_RESULTS12FAIL_REASONSL21PARAM_METAINF_NULLPTRE
ffff800000407074 r _ZN23COREHARDWARES_LOCATIONS15INIT_GOP_EVENTS12INIT_RESULTS12FAIL_REASONSL9BAD_PARAME
ffff800000407076 r _ZN23COREHARDWARES_LOCATIONS15INIT_GOP_EVENTS12INIT_RESULTS12FAIL_REASONSL13ALLREADE_INITE
ffff800000407078 r _ZN23COREHARDWARES_LOCATIONS15INIT_GOP_EVENTS12INIT_RESULTS12FAIL_REASONSL20MODIFY_ACCESS_FAILEDE
ffff80000040707a r _ZN28infrastructure_location_codeL29location_code_textconsole_GoPE
ffff80000040707b r _ZN28infrastructure_location_code22textconsole_GoP_eventsL26textconsole_GoP_event_initE
ffff80000040707c r _ZN28infrastructure_location_code22textconsole_GoP_events12init_results12fail_reasonsL19font_bitmap_is_nullE
ffff80000040707d r _ZN28infrastructure_location_code22textconsole_GoP_events12init_results12fail_reasonsL13gfx_not_readyE
ffff80000040707e r _ZN28infrastructure_location_code22textconsole_GoP_events12init_results12fail_reasonsL13bad_cell_sizeE
ffff80000040707f r _ZN28infrastructure_location_code22textconsole_GoP_events12init_results12fail_reasonsL9zero_gridE
ffff800000407080 r _ZN28infrastructure_location_code22textconsole_GoP_events12init_results12fail_reasonsL12already_initE
ffff800000407081 r _ZN28infrastructure_location_code22textconsole_GoP_events12init_results12fail_reasonsL22glyph_cache_alloc_failE
ffff800000407082 r _ZN28infrastructure_location_code22textconsole_GoP_events12init_results12fail_reasonsL21backend_register_failE
ffff800000407084 r _ZL11TC_RING_CAP
ffff800000407088 r _ZL20TC_SERVICE_POP_BATCH
ffff80000040708c r _ZN18MEMMODULE_LOCAIONSL7INVALIDE
ffff80000040708d r _ZN18MEMMODULE_LOCAIONSL25LOCATION_CODE_BASE_MEMMGRE
ffff80000040708e r _ZN18MEMMODULE_LOCAIONSL29LOCATION_CODE_PHYMEM_ACCESSORE
ffff80000040708f r _ZN18MEMMODULE_LOCAIONSL28LOCATION_CODE_KSPACE_MAP_MGRE
ffff800000407090 r _ZN18MEMMODULE_LOCAIONSL25LOCATION_CODE_ADDRESSPACEE
ffff800000407091 r _ZN18MEMMODULE_LOCAIONSL26LOCATION_CODE_OUT_SURFACESE
ffff800000407092 r _ZN18MEMMODULE_LOCAIONSL25LOCATION_CODE_KPOOLMEMMGRE
ffff800000407093 r _ZN18MEMMODULE_LOCAIONS18KPOOLMEMMGR_EVENTSL15EVENT_CODE_INITE
ffff800000407094 r _ZN18MEMMODULE_LOCAIONS18KPOOLMEMMGR_EVENTSL16EVENT_CODE_ALLOCE
ffff800000407096 r _ZN18MEMMODULE_LOCAIONS18KPOOLMEMMGR_EVENTS13ALLOC_RESULTS11FAIL_RESONSL28REASON_CODE_NO_AVALIABLE_MEME
ffff800000407098 r _ZN18MEMMODULE_LOCAIONS18KPOOLMEMMGR_EVENTS13ALLOC_RESULTS11FAIL_RESONSL24REASON_CODE_SIZE_IS_ZEROE
ffff80000040709a r _ZN18MEMMODULE_LOCAIONS18KPOOLMEMMGR_EVENTSL18EVENT_CODE_REALLOCE
ffff80000040709c r _ZN18MEMMODULE_LOCAIONS18KPOOLMEMMGR_EVENTS15REALLOC_RESULTS11FAIL_RESONSL31REASON_CODE_DEMAND_SIZE_IS_ZEROE
ffff80000040709e r _ZN18MEMMODULE_LOCAIONS18KPOOLMEMMGR_EVENTS15REALLOC_RESULTS11FAIL_RESONSL31REASON_CODE_PTR_NOT_IN_ANY_HEAPE
ffff8000004070a0 r _ZN18MEMMODULE_LOCAIONS18KPOOLMEMMGR_EVENTS15REALLOC_RESULTS11FAIL_RESONSL28REASON_CODE_NO_AVALIABLE_MEME
ffff8000004070a2 r _ZN18MEMMODULE_LOCAIONS18KPOOLMEMMGR_EVENTSL34EVENT_CODE_PER_PROCESSOR_HEAP_INITE
ffff8000004070a4 r _ZN18MEMMODULE_LOCAIONS18KPOOLMEMMGR_EVENTS31PER_PROCESSOR_HEAP_INIT_RESULTS11FAIL_RESONSL27REASON_CODE_ALREADY_ENABLEDE
ffff8000004070a6 r _ZN18MEMMODULE_LOCAIONS18KPOOLMEMMGR_EVENTS31PER_PROCESSOR_HEAP_INIT_RESULTS11FAIL_RESONSL31REASON_CODE_BAD_PROCESSOR_COUNTE
ffff8000004070a8 r _ZN18MEMMODULE_LOCAIONS18KPOOLMEMMGR_EVENTS31PER_PROCESSOR_HEAP_INIT_RESULTS11FAIL_RESONSL26REASON_CODE_NO_VADDR_SPACEE
ffff8000004070aa r _ZN18MEMMODULE_LOCAIONS18KPOOLMEMMGR_EVENTS31PER_PROCESSOR_HEAP_INIT_RESULTS11FAIL_RESONSL23REASON_CODE_VM_ADD_FAILE
ffff8000004070ac r _ZN18MEMMODULE_LOCAIONS18KPOOLMEMMGR_EVENTS31PER_PROCESSOR_HEAP_INIT_RESULTS11FAIL_RESONSL28REASON_CODE_IDX_OUT_OF_RANGEE
ffff8000004070ae r _ZN18MEMMODULE_LOCAIONS18KPOOLMEMMGR_EVENTS31PER_PROCESSOR_HEAP_INIT_RESULTS11FAIL_RESONSL31REASON_CODE_HEAP_ALREADY_EXISTSE
ffff8000004070b0 r _ZN18MEMMODULE_LOCAIONS18KPOOLMEMMGR_EVENTS31PER_PROCESSOR_HEAP_INIT_RESULTS11FAIL_RESONSL26REASON_CODE_HEAP_NOT_EXISTE
ffff8000004070b2 r _ZN18MEMMODULE_LOCAIONSL32LOCATION_CODE_KPOOLMEMMGR_HCB_V3E
ffff8000004070b3 r _ZN18MEMMODULE_LOCAIONS25KPOOLMEMMGR_HCB_V3_EVENTSL17EVENT_CODE_ONLINEE
ffff8000004070b4 r _ZN18MEMMODULE_LOCAIONS25KPOOLMEMMGR_HCB_V3_EVENTSL18EVENT_CODE_OFFLINEE
ffff8000004070b5 r _ZN18MEMMODULE_LOCAIONS25KPOOLMEMMGR_HCB_V3_EVENTSL16EVENT_CODE_ALLOCE
ffff8000004070b6 r _ZN18MEMMODULE_LOCAIONS25KPOOLMEMMGR_HCB_V3_EVENTSL15EVENT_CODE_FREEE
ffff8000004070b7 r _ZN18MEMMODULE_LOCAIONS25KPOOLMEMMGR_HCB_V3_EVENTSL18EVENT_CODE_REALLOCE
ffff8000004070b8 r _ZN18MEMMODULE_LOCAIONS25KPOOLMEMMGR_HCB_V3_EVENTSL25EVENT_CODE_INTERNAL_ALLOCE
ffff8000004070b9 r _ZN18MEMMODULE_LOCAIONS25KPOOLMEMMGR_HCB_V3_EVENTSL24EVENT_CODE_INTERNAL_FREEE
ffff8000004070ba r _ZN18MEMMODULE_LOCAIONS25KPOOLMEMMGR_HCB_V3_EVENTSL16EVENT_CODE_CLEARE
ffff8000004070bc r _ZN18MEMMODULE_LOCAIONS25KPOOLMEMMGR_HCB_V3_EVENTS19COMMON_FAIL_REASONSL20REASON_CODE_BAD_ADDRE
ffff8000004070be r _ZN18MEMMODULE_LOCAIONS25KPOOLMEMMGR_HCB_V3_EVENTS19COMMON_FAIL_REASONSL30REASON_CODE_ADDR_NOT_THIS_HEAPE
ffff8000004070c0 r _ZN18MEMMODULE_LOCAIONS25KPOOLMEMMGR_HCB_V3_EVENTS20COMMON_FATAL_REASONSL30REASON_CODE_METADATA_DESTROYEDE
ffff8000004070c2 r _ZN18MEMMODULE_LOCAIONS25KPOOLMEMMGR_HCB_V3_EVENTS22INTERNAL_ALLOC_RESULTS11FAIL_RESONSL30REASON_CODE_NO_AVALIABLE_BUDDYE
ffff8000004070c4 r _ZN18MEMMODULE_LOCAIONS25KPOOLMEMMGR_HCB_V3_EVENTS13ALLOC_RESULTS12FAIL_REASONSL24REASON_CODE_SIZE_IS_ZEROE
